---
triple:          'arm64-apple-darwin'
binary-path:     '/Users/albinbajrami/Desktop/RIPEMD-128/main'
relocations:
  - { offsetInCU: 0x32D3, offset: 0x32D3, size: 0x8, addend: 0x0, symName: __ZN8CryptoPP6STDMINImEERKT_S3_S3_, symObjAddr: 0x1D50, symBinAddr: 0x100005B34, symSize: 0x50 }
  - { offsetInCU: 0x3319, offset: 0x3319, size: 0x8, addend: 0x0, symName: __ZN8CryptoPP15SecureWipeArrayIjEEvPT_m, symObjAddr: 0x1DAC, symBinAddr: 0x100005B90, symSize: 0xC0 }
  - { offsetInCU: 0x335B, offset: 0x335B, size: 0x8, addend: 0x0, symName: __ZN8CryptoPP14GetAlignmentOfIjEEjv, symObjAddr: 0x1E84, symBinAddr: 0x100005C68, symSize: 0x8 }
  - { offsetInCU: 0x3383, offset: 0x3383, size: 0x8, addend: 0x0, symName: __ZN8CryptoPP16SecureWipeBufferIjEEvPT_m, symObjAddr: 0x1E8C, symBinAddr: 0x100005C70, symSize: 0x58 }
  - { offsetInCU: 0x33D4, offset: 0x33D4, size: 0x8, addend: 0x0, symName: __ZN8CryptoPP14GetAlignmentOfItEEjv, symObjAddr: 0x1EE4, symBinAddr: 0x100005CC8, symSize: 0x8 }
  - { offsetInCU: 0x33FC, offset: 0x33FC, size: 0x8, addend: 0x0, symName: __ZN8CryptoPP16SecureWipeBufferItEEvPT_m, symObjAddr: 0x1EEC, symBinAddr: 0x100005CD0, symSize: 0x5C }
  - { offsetInCU: 0x344D, offset: 0x344D, size: 0x8, addend: 0x0, symName: __ZN8CryptoPP16SecureWipeBufferIhEEvPT_m, symObjAddr: 0x1F48, symBinAddr: 0x100005D2C, symSize: 0x5C }
  - { offsetInCU: 0x349E, offset: 0x349E, size: 0x8, addend: 0x0, symName: __ZN8CryptoPP8memcpy_sEPvmPKvm, symObjAddr: 0x2620, symBinAddr: 0x100006404, symSize: 0x138 }
  - { offsetInCU: 0x37F8, offset: 0x37F8, size: 0x8, addend: 0x0, symName: __ZN8CryptoPP14MakeParametersIbEENS_19AlgorithmParametersEPKcRKT_b, symObjAddr: 0x2C24, symBinAddr: 0x100006A08, symSize: 0x98 }
  - { offsetInCU: 0x3852, offset: 0x3852, size: 0x8, addend: 0x0, symName: __ZN8CryptoPP4Name9UppercaseEv, symObjAddr: 0x2CBC, symBinAddr: 0x100006AA0, symSize: 0xC }
  - { offsetInCU: 0x386F, offset: 0x386F, size: 0x8, addend: 0x0, symName: __ZN8CryptoPP4Name9GroupSizeEv, symObjAddr: 0x2D04, symBinAddr: 0x100006AE8, symSize: 0xC }
  - { offsetInCU: 0x388C, offset: 0x388C, size: 0x8, addend: 0x0, symName: __ZN8CryptoPP4Name9SeparatorEv, symObjAddr: 0x2D4C, symBinAddr: 0x100006B30, symSize: 0xC }
  - { offsetInCU: 0x38A9, offset: 0x38A9, size: 0x8, addend: 0x0, symName: __ZN8CryptoPP4Name10TerminatorEv, symObjAddr: 0x2DA0, symBinAddr: 0x100006B84, symSize: 0xC }
  - { offsetInCU: 0x6E43, offset: 0x6E43, size: 0x8, addend: 0x0, symName: __ZNSt3__124__put_character_sequenceB7v160006IcNS_11char_traitsIcEEEERNS_13basic_ostreamIT_T0_EES7_PKS4_m, symObjAddr: 0x4B1C, symBinAddr: 0x100008900, symSize: 0x1EC }
  - { offsetInCU: 0x95A0, offset: 0x95A0, size: 0x8, addend: 0x0, symName: __ZNSt3__1lsB7v160006IcNS_11char_traitsIcEENS_9allocatorIcEEEERNS_13basic_ostreamIT_T0_EES9_RKNS_12basic_stringIS6_S7_T1_EE, symObjAddr: 0x590, symBinAddr: 0x100004494, symSize: 0x4C }
  - { offsetInCU: 0x95F8, offset: 0x95F8, size: 0x8, addend: 0x0, symName: __ZNSt3__1lsB7v160006INS_11char_traitsIcEEEERNS_13basic_ostreamIcT_EES6_PKc, symObjAddr: 0x5DC, symBinAddr: 0x1000044E0, symSize: 0x48 }
  - { offsetInCU: 0x963E, offset: 0x963E, size: 0x8, addend: 0x0, symName: __ZNSt3__14endlB7v160006IcNS_11char_traitsIcEEEERNS_13basic_ostreamIT_T0_EES7_, symObjAddr: 0x650, symBinAddr: 0x100004554, symSize: 0x58 }
  - { offsetInCU: 0x9689, offset: 0x9689, size: 0x8, addend: 0x0, symName: __ZNSt3__1eqB7v160006INS_9allocatorIcEEEEbRKNS_12basic_stringIcNS_11char_traitsIcEET_EES9_, symObjAddr: 0x9D8, symBinAddr: 0x1000048DC, symSize: 0x148 }
  - { offsetInCU: 0x96FC, offset: 0x96FC, size: 0x8, addend: 0x0, symName: __ZNSt3__112__to_addressB7v160006IKcEEPT_S3_, symObjAddr: 0x1A68, symBinAddr: 0x10000584C, symSize: 0x14 }
  - { offsetInCU: 0x9764, offset: 0x9764, size: 0x8, addend: 0x0, symName: __ZNSt3__119__debug_db_insert_cB7v160006INS_12basic_stringIcNS_11char_traitsIcEENS_9allocatorIcEEEEEEvPT_, symObjAddr: 0x4714, symBinAddr: 0x1000084F8, symSize: 0x10 }
  - { offsetInCU: 0x9795, offset: 0x9795, size: 0x8, addend: 0x0, symName: __ZNSt3__118__constexpr_strlenB7v160006EPKc, symObjAddr: 0x48EC, symBinAddr: 0x1000086D0, symSize: 0x24 }
  - { offsetInCU: 0x97C1, offset: 0x97C1, size: 0x8, addend: 0x0, symName: __ZNSt3__116__pad_and_outputB7v160006IcNS_11char_traitsIcEEEENS_19ostreambuf_iteratorIT_T0_EES6_PKS4_S8_S8_RNS_8ios_baseES4_, symObjAddr: 0x4D24, symBinAddr: 0x100008B08, symSize: 0x240 }
  - { offsetInCU: 0x9890, offset: 0x9890, size: 0x8, addend: 0x0, symName: __ZNSt3__19use_facetB7v160006INS_5ctypeIcEEEERKT_RKNS_6localeE, symObjAddr: 0x5284, symBinAddr: 0x100009068, symSize: 0x2C }
  - { offsetInCU: 0x9D5F, offset: 0x9D5F, size: 0x8, addend: 0x0, symName: __ZNSt3__118__constexpr_memcmpB7v160006IcEEiPKT_S3_m, symObjAddr: 0x5354, symBinAddr: 0x100009138, symSize: 0x34 }
  - { offsetInCU: 0xA209, offset: 0xA209, size: 0x8, addend: 0x0, symName: __ZN8CryptoPP23ConstByteArrayParameterC2INSt3__112basic_stringIcNS2_11char_traitsIcEENS2_9allocatorIcEEEEEERKT_b, symObjAddr: 0x4130, symBinAddr: 0x100007F14, symSize: 0xB0 }
  - { offsetInCU: 0xA230, offset: 0xA230, size: 0x8, addend: 0x0, symName: __ZZN8CryptoPP23ConstByteArrayParameterC1INSt3__112basic_stringIcNS2_11char_traitsIcEENS2_9allocatorIcEEEEEERKT_bE27cryptopp_CRYPTOPP_ASSERT_59, symObjAddr: 0x68F7, symBinAddr: 0x100118000, symSize: 0x0 }
  - { offsetInCU: 0xC701, offset: 0xC701, size: 0x8, addend: 0x0, symName: __Z8hashFileRKNSt3__112basic_stringIcNS_11char_traitsIcEENS_9allocatorIcEEEE, symObjAddr: 0x0, symBinAddr: 0x100003F04, symSize: 0x3FC }
  - { offsetInCU: 0xC8B4, offset: 0xC8B4, size: 0x8, addend: 0x0, symName: __ZNSt3__114basic_ifstreamIcNS_11char_traitsIcEEEC1ERKNS_12basic_stringIcS2_NS_9allocatorIcEEEEj, symObjAddr: 0x3FC, symBinAddr: 0x100004300, symSize: 0x16C }
  - { offsetInCU: 0xC8FD, offset: 0xC8FD, size: 0x8, addend: 0x0, symName: __ZNKSt3__19basic_iosIcNS_11char_traitsIcEEEntB7v160006Ev, symObjAddr: 0x568, symBinAddr: 0x10000446C, symSize: 0x28 }
  - { offsetInCU: 0xC922, offset: 0xC922, size: 0x8, addend: 0x0, symName: __ZNSt3__113basic_ostreamIcNS_11char_traitsIcEEElsB7v160006EPFRS3_S4_E, symObjAddr: 0x624, symBinAddr: 0x100004528, symSize: 0x2C }
  - { offsetInCU: 0xC959, offset: 0xC959, size: 0x8, addend: 0x0, symName: __ZNSt3__112basic_stringIcNS_11char_traitsIcEENS_9allocatorIcEEEC1B7v160006IDnEEPKc, symObjAddr: 0x6A8, symBinAddr: 0x1000045AC, symSize: 0x34 }
  - { offsetInCU: 0xC996, offset: 0xC996, size: 0x8, addend: 0x0, symName: __ZNKSt3__14fposI11__mbstate_tEcvxB7v160006Ev, symObjAddr: 0x6DC, symBinAddr: 0x1000045E0, symSize: 0x18 }
  - { offsetInCU: 0xC9C0, offset: 0xC9C0, size: 0x8, addend: 0x0, symName: __ZN8CryptoPP9RIPEMD128C1Ev, symObjAddr: 0x6F4, symBinAddr: 0x1000045F8, symSize: 0x2C }
  - { offsetInCU: 0xC9EB, offset: 0xC9EB, size: 0x8, addend: 0x0, symName: __ZN8CryptoPP18HashTransformation15CalculateDigestEPhPKhm, symObjAddr: 0x720, symBinAddr: 0x100004624, symSize: 0x58 }
  - { offsetInCU: 0xCA3D, offset: 0xCA3D, size: 0x8, addend: 0x0, symName: __ZN8CryptoPP9RIPEMD128D1Ev, symObjAddr: 0x778, symBinAddr: 0x10000467C, symSize: 0x2C }
  - { offsetInCU: 0xCB5E, offset: 0xCB5E, size: 0x8, addend: 0x0, symName: __ZN8CryptoPP10HexEncoderC1EPNS_22BufferedTransformationEbiRKNSt3__112basic_stringIcNS3_11char_traitsIcEENS3_9allocatorIcEEEESB_, symObjAddr: 0x7A4, symBinAddr: 0x1000046A8, symSize: 0x60 }
  - { offsetInCU: 0xCBCC, offset: 0xCBCC, size: 0x8, addend: 0x0, symName: __ZNSt3__112basic_stringIcNS_11char_traitsIcEENS_9allocatorIcEEEC1B7v160006Ev, symObjAddr: 0x804, symBinAddr: 0x100004708, symSize: 0x2C }
  - { offsetInCU: 0xCBF5, offset: 0xCBF5, size: 0x8, addend: 0x0, symName: __ZN8CryptoPP22BufferedTransformation3PutEPKhmb, symObjAddr: 0x830, symBinAddr: 0x100004734, symSize: 0x54 }
  - { offsetInCU: 0xCC47, offset: 0xCC47, size: 0x8, addend: 0x0, symName: __ZN8CryptoPP22BufferedTransformation10MessageEndEib, symObjAddr: 0x884, symBinAddr: 0x100004788, symSize: 0x94 }
  - { offsetInCU: 0xCC8A, offset: 0xCC8A, size: 0x8, addend: 0x0, symName: __ZN8CryptoPP10HexEncoderD1Ev, symObjAddr: 0x918, symBinAddr: 0x10000481C, symSize: 0x2C }
  - { offsetInCU: 0xCCBA, offset: 0xCCBA, size: 0x8, addend: 0x0, symName: __ZNSt3__114basic_ifstreamIcNS_11char_traitsIcEEED1Ev, symObjAddr: 0x944, symBinAddr: 0x100004848, symSize: 0x40 }
  - { offsetInCU: 0xCCE5, offset: 0xCCE5, size: 0x8, addend: 0x0, symName: __Z10verifyFileRKNSt3__112basic_stringIcNS_11char_traitsIcEENS_9allocatorIcEEEES7_, symObjAddr: 0x984, symBinAddr: 0x100004888, symSize: 0x54 }
  - { offsetInCU: 0xCD2F, offset: 0xCD2F, size: 0x8, addend: 0x0, symName: _main, symObjAddr: 0xB20, symBinAddr: 0x100004A24, symSize: 0x138 }
  - { offsetInCU: 0xCD68, offset: 0xCD68, size: 0x8, addend: 0x0, symName: __ZN8CryptoPP9RIPEMD128C2Ev, symObjAddr: 0xC58, symBinAddr: 0x100004B5C, symSize: 0x44 }
  - { offsetInCU: 0xCD92, offset: 0xCD92, size: 0x8, addend: 0x0, symName: __ZN8CryptoPP31IteratedHashWithStaticTransformIjNS_10EnumToTypeINS_9ByteOrderELi0EEELj64ELj16ENS_9RIPEMD128ELj0ELb0EEC2Ev, symObjAddr: 0xC9C, symBinAddr: 0x100004BA0, symSize: 0xA4 }
  - { offsetInCU: 0xCDBB, offset: 0xCDBB, size: 0x8, addend: 0x0, symName: __ZN8CryptoPP9RIPEMD128D0Ev, symObjAddr: 0xD40, symBinAddr: 0x100004C44, symSize: 0x30 }
  - { offsetInCU: 0xCDE6, offset: 0xCDE6, size: 0x8, addend: 0x0, symName: __ZNK8CryptoPP12ClonableImplINS_9RIPEMD128ENS_13AlgorithmImplINS_12IteratedHashIjNS_10EnumToTypeINS_9ByteOrderELi0EEELj64ENS_18HashTransformationEEES1_EEE5CloneEv, symObjAddr: 0xD70, symBinAddr: 0x100004C74, symSize: 0x64 }
  - { offsetInCU: 0xCE0B, offset: 0xCE0B, size: 0x8, addend: 0x0, symName: __ZNK8CryptoPP13AlgorithmImplINS_12IteratedHashIjNS_10EnumToTypeINS_9ByteOrderELi0EEELj64ENS_18HashTransformationEEENS_9RIPEMD128EE13AlgorithmNameEv, symObjAddr: 0xDD4, symBinAddr: 0x100004CD8, symSize: 0x34 }
  - { offsetInCU: 0xCE30, offset: 0xCE30, size: 0x8, addend: 0x0, symName: __ZN8CryptoPP18HashTransformation5FinalEPh, symObjAddr: 0xE44, symBinAddr: 0x100004D0C, symSize: 0x5C }
  - { offsetInCU: 0xCE64, offset: 0xCE64, size: 0x8, addend: 0x0, symName: __ZNK8CryptoPP31IteratedHashWithStaticTransformIjNS_10EnumToTypeINS_9ByteOrderELi0EEELj64ELj16ENS_9RIPEMD128ELj0ELb0EE10DigestSizeEv, symObjAddr: 0xEA0, symBinAddr: 0x100004D68, symSize: 0x14 }
  - { offsetInCU: 0xCE89, offset: 0xCE89, size: 0x8, addend: 0x0, symName: __ZNK8CryptoPP12IteratedHashIjNS_10EnumToTypeINS_9ByteOrderELi0EEELj64ENS_18HashTransformationEE9BlockSizeEv, symObjAddr: 0xEB4, symBinAddr: 0x100004D7C, symSize: 0x14 }
  - { offsetInCU: 0xCEAE, offset: 0xCEAE, size: 0x8, addend: 0x0, symName: __ZN8CryptoPP18HashTransformation6VerifyEPKh, symObjAddr: 0xF14, symBinAddr: 0x100004D90, symSize: 0x60 }
  - { offsetInCU: 0xCEE2, offset: 0xCEE2, size: 0x8, addend: 0x0, symName: __ZN8CryptoPP18HashTransformation12VerifyDigestEPKhS2_m, symObjAddr: 0xF74, symBinAddr: 0x100004DF0, symSize: 0x5C }
  - { offsetInCU: 0xCF34, offset: 0xCF34, size: 0x8, addend: 0x0, symName: __ZN8CryptoPP18HashTransformation24CalculateTruncatedDigestEPhmPKhm, symObjAddr: 0xFD0, symBinAddr: 0x100004E4C, symSize: 0x60 }
  - { offsetInCU: 0xCF95, offset: 0xCF95, size: 0x8, addend: 0x0, symName: __ZN8CryptoPP18HashTransformation21VerifyTruncatedDigestEPKhmS2_m, symObjAddr: 0x1030, symBinAddr: 0x100004EAC, symSize: 0x64 }
  - { offsetInCU: 0xCFF6, offset: 0xCFF6, size: 0x8, addend: 0x0, symName: __ZN8CryptoPP31IteratedHashWithStaticTransformIjNS_10EnumToTypeINS_9ByteOrderELi0EEELj64ELj16ENS_9RIPEMD128ELj0ELb0EE4InitEv, symObjAddr: 0x1094, symBinAddr: 0x100004F10, symSize: 0x2C }
  - { offsetInCU: 0xD01B, offset: 0xD01B, size: 0x8, addend: 0x0, symName: __ZNK8CryptoPP12IteratedHashIjNS_10EnumToTypeINS_9ByteOrderELi0EEELj64ENS_18HashTransformationEE12GetByteOrderEv, symObjAddr: 0x10C0, symBinAddr: 0x100004F3C, symSize: 0x20 }
  - { offsetInCU: 0xD040, offset: 0xD040, size: 0x8, addend: 0x0, symName: __ZN8CryptoPP31IteratedHashWithStaticTransformIjNS_10EnumToTypeINS_9ByteOrderELi0EEELj64ELj16ENS_9RIPEMD128ELj0ELb0EE24HashEndianCorrectedBlockEPKj, symObjAddr: 0x10E0, symBinAddr: 0x100004F5C, symSize: 0x34 }
  - { offsetInCU: 0xD073, offset: 0xD073, size: 0x8, addend: 0x0, symName: __ZN8CryptoPP12IteratedHashIjNS_10EnumToTypeINS_9ByteOrderELi0EEELj64ENS_18HashTransformationEE7DataBufEv, symObjAddr: 0x1114, symBinAddr: 0x100004F90, symSize: 0x28 }
  - { offsetInCU: 0xD098, offset: 0xD098, size: 0x8, addend: 0x0, symName: __ZN8CryptoPP31IteratedHashWithStaticTransformIjNS_10EnumToTypeINS_9ByteOrderELi0EEELj64ELj16ENS_9RIPEMD128ELj0ELb0EE8StateBufEv, symObjAddr: 0x113C, symBinAddr: 0x100004FB8, symSize: 0x28 }
  - { offsetInCU: 0xD0C2, offset: 0xD0C2, size: 0x8, addend: 0x0, symName: __ZN8CryptoPP12ClonableImplINS_9RIPEMD128ENS_13AlgorithmImplINS_12IteratedHashIjNS_10EnumToTypeINS_9ByteOrderELi0EEELj64ENS_18HashTransformationEEES1_EEEC2Ev, symObjAddr: 0x1164, symBinAddr: 0x100004FE0, symSize: 0x44 }
  - { offsetInCU: 0xD0F2, offset: 0xD0F2, size: 0x8, addend: 0x0, symName: __ZN8CryptoPP24FixedSizeAlignedSecBlockIjLj16ELb0EEC1Ev, symObjAddr: 0x11A8, symBinAddr: 0x100005024, symSize: 0x2C }
  - { offsetInCU: 0xD11E, offset: 0xD11E, size: 0x8, addend: 0x0, symName: __ZN8CryptoPP24FixedSizeAlignedSecBlockIjLj16ELb0EED1Ev, symObjAddr: 0x11D4, symBinAddr: 0x100005050, symSize: 0x2C }
  - { offsetInCU: 0xD14A, offset: 0xD14A, size: 0x8, addend: 0x0, symName: __ZN8CryptoPP12ClonableImplINS_9RIPEMD128ENS_13AlgorithmImplINS_12IteratedHashIjNS_10EnumToTypeINS_9ByteOrderELi0EEELj64ENS_18HashTransformationEEES1_EEED2Ev, symObjAddr: 0x1200, symBinAddr: 0x10000507C, symSize: 0x2C }
  - { offsetInCU: 0xD174, offset: 0xD174, size: 0x8, addend: 0x0, symName: __ZN8CryptoPP31IteratedHashWithStaticTransformIjNS_10EnumToTypeINS_9ByteOrderELi0EEELj64ELj16ENS_9RIPEMD128ELj0ELb0EED1Ev, symObjAddr: 0x122C, symBinAddr: 0x1000050A8, symSize: 0x2C }
  - { offsetInCU: 0xD19C, offset: 0xD19C, size: 0x8, addend: 0x0, symName: __ZN8CryptoPP31IteratedHashWithStaticTransformIjNS_10EnumToTypeINS_9ByteOrderELi0EEELj64ELj16ENS_9RIPEMD128ELj0ELb0EED0Ev, symObjAddr: 0x1258, symBinAddr: 0x1000050D4, symSize: 0x30 }
  - { offsetInCU: 0xD1CA, offset: 0xD1CA, size: 0x8, addend: 0x0, symName: __ZN8CryptoPP13AlgorithmImplINS_12IteratedHashIjNS_10EnumToTypeINS_9ByteOrderELi0EEELj64ENS_18HashTransformationEEENS_9RIPEMD128EEC2Ev, symObjAddr: 0x1288, symBinAddr: 0x100005104, symSize: 0x44 }
  - { offsetInCU: 0xD1F5, offset: 0xD1F5, size: 0x8, addend: 0x0, symName: __ZN8CryptoPP12ClonableImplINS_9RIPEMD128ENS_13AlgorithmImplINS_12IteratedHashIjNS_10EnumToTypeINS_9ByteOrderELi0EEELj64ENS_18HashTransformationEEES1_EEED1Ev, symObjAddr: 0x12CC, symBinAddr: 0x100005148, symSize: 0x14 }
  - { offsetInCU: 0xD220, offset: 0xD220, size: 0x8, addend: 0x0, symName: __ZN8CryptoPP12ClonableImplINS_9RIPEMD128ENS_13AlgorithmImplINS_12IteratedHashIjNS_10EnumToTypeINS_9ByteOrderELi0EEELj64ENS_18HashTransformationEEES1_EEED0Ev, symObjAddr: 0x12E0, symBinAddr: 0x10000515C, symSize: 0xC }
  - { offsetInCU: 0xD24B, offset: 0xD24B, size: 0x8, addend: 0x0, symName: __ZN8CryptoPP12IteratedHashIjNS_10EnumToTypeINS_9ByteOrderELi0EEELj64ENS_18HashTransformationEEC2Ev, symObjAddr: 0x12EC, symBinAddr: 0x100005168, symSize: 0x78 }
  - { offsetInCU: 0xD276, offset: 0xD276, size: 0x8, addend: 0x0, symName: __ZN8CryptoPP13AlgorithmImplINS_12IteratedHashIjNS_10EnumToTypeINS_9ByteOrderELi0EEELj64ENS_18HashTransformationEEENS_9RIPEMD128EED1Ev, symObjAddr: 0x1364, symBinAddr: 0x1000051E0, symSize: 0x14 }
  - { offsetInCU: 0xD2A1, offset: 0xD2A1, size: 0x8, addend: 0x0, symName: __ZN8CryptoPP13AlgorithmImplINS_12IteratedHashIjNS_10EnumToTypeINS_9ByteOrderELi0EEELj64ENS_18HashTransformationEEENS_9RIPEMD128EED0Ev, symObjAddr: 0x1378, symBinAddr: 0x1000051F4, symSize: 0xC }
  - { offsetInCU: 0xD2CC, offset: 0xD2CC, size: 0x8, addend: 0x0, symName: __ZNK8CryptoPP8Clonable5CloneEv, symObjAddr: 0x1384, symBinAddr: 0x100005200, symSize: 0xCC }
  - { offsetInCU: 0xD2F0, offset: 0xD2F0, size: 0x8, addend: 0x0, symName: __ZN8CryptoPP17FixedSizeSecBlockIjLj16ENS_29FixedSizeAllocatorWithCleanupIjLm16ENS_13NullAllocatorIjEELb0EEEEC1Ev, symObjAddr: 0x149C, symBinAddr: 0x1000052CC, symSize: 0x2C }
  - { offsetInCU: 0xD319, offset: 0xD319, size: 0x8, addend: 0x0, symName: __ZN8CryptoPP12IteratedHashIjNS_10EnumToTypeINS_9ByteOrderELi0EEELj64ENS_18HashTransformationEED1Ev, symObjAddr: 0x14F4, symBinAddr: 0x1000052F8, symSize: 0x14 }
  - { offsetInCU: 0xD342, offset: 0xD342, size: 0x8, addend: 0x0, symName: __ZN8CryptoPP12IteratedHashIjNS_10EnumToTypeINS_9ByteOrderELi0EEELj64ENS_18HashTransformationEED0Ev, symObjAddr: 0x1508, symBinAddr: 0x10000530C, symSize: 0xC }
  - { offsetInCU: 0xD36B, offset: 0xD36B, size: 0x8, addend: 0x0, symName: __ZNK8CryptoPP9Algorithm13AlgorithmNameEv, symObjAddr: 0x1514, symBinAddr: 0x100005318, symSize: 0x3C }
  - { offsetInCU: 0xD390, offset: 0xD390, size: 0x8, addend: 0x0, symName: __ZN8CryptoPP18HashTransformationC2Ev, symObjAddr: 0x1550, symBinAddr: 0x100005354, symSize: 0x4C }
  - { offsetInCU: 0xD3BC, offset: 0xD3BC, size: 0x8, addend: 0x0, symName: __ZNK8CryptoPP18HashTransformation9BlockSizeEv, symObjAddr: 0x15BC, symBinAddr: 0x1000053A0, symSize: 0x14 }
  - { offsetInCU: 0xD3E0, offset: 0xD3E0, size: 0x8, addend: 0x0, symName: __ZN8CryptoPP17FixedSizeSecBlockIjLj16ENS_29FixedSizeAllocatorWithCleanupIjLm16ENS_13NullAllocatorIjEELb0EEEEC2Ev, symObjAddr: 0x15D0, symBinAddr: 0x1000053B4, symSize: 0x30 }
  - { offsetInCU: 0xD408, offset: 0xD408, size: 0x8, addend: 0x0, symName: __ZN8CryptoPP8SecBlockIjNS_29FixedSizeAllocatorWithCleanupIjLm16ENS_13NullAllocatorIjEELb0EEEEC2Em, symObjAddr: 0x1600, symBinAddr: 0x1000053E4, symSize: 0x58 }
  - { offsetInCU: 0xD43F, offset: 0xD43F, size: 0x8, addend: 0x0, symName: __ZN8CryptoPP29FixedSizeAllocatorWithCleanupIjLm16ENS_13NullAllocatorIjEELb0EEC1Ev, symObjAddr: 0x1658, symBinAddr: 0x10000543C, symSize: 0x2C }
  - { offsetInCU: 0xD468, offset: 0xD468, size: 0x8, addend: 0x0, symName: __ZN8CryptoPP29FixedSizeAllocatorWithCleanupIjLm16ENS_13NullAllocatorIjEELb0EE8allocateEmPKv, symObjAddr: 0x1684, symBinAddr: 0x100005468, symSize: 0x88 }
  - { offsetInCU: 0xD4AB, offset: 0xD4AB, size: 0x8, addend: 0x0, symName: __ZN8CryptoPP29FixedSizeAllocatorWithCleanupIjLm16ENS_13NullAllocatorIjEELb0EEC2Ev, symObjAddr: 0x170C, symBinAddr: 0x1000054F0, symSize: 0x18 }
  - { offsetInCU: 0xD4D4, offset: 0xD4D4, size: 0x8, addend: 0x0, symName: __ZN8CryptoPP29FixedSizeAllocatorWithCleanupIjLm16ENS_13NullAllocatorIjEELb0EE15GetAlignedArrayEv, symObjAddr: 0x1724, symBinAddr: 0x100005508, symSize: 0x14 }
  - { offsetInCU: 0xD4F9, offset: 0xD4F9, size: 0x8, addend: 0x0, symName: __ZN8CryptoPP13NullAllocatorIjE8allocateEmPKv, symObjAddr: 0x1738, symBinAddr: 0x10000551C, symSize: 0x1C }
  - { offsetInCU: 0xD53B, offset: 0xD53B, size: 0x8, addend: 0x0, symName: __ZN8CryptoPP18HashTransformationD2Ev, symObjAddr: 0x1754, symBinAddr: 0x100005538, symSize: 0x2C }
  - { offsetInCU: 0xD563, offset: 0xD563, size: 0x8, addend: 0x0, symName: __ZN8CryptoPP9AlgorithmD2Ev, symObjAddr: 0x1780, symBinAddr: 0x100005564, symSize: 0x2C }
  - { offsetInCU: 0xD58C, offset: 0xD58C, size: 0x8, addend: 0x0, symName: __ZN8CryptoPP8ClonableD2Ev, symObjAddr: 0x17AC, symBinAddr: 0x100005590, symSize: 0x14 }
  - { offsetInCU: 0xD5B4, offset: 0xD5B4, size: 0x8, addend: 0x0, symName: __ZN8CryptoPP14NotImplementedC1ERKNSt3__112basic_stringIcNS1_11char_traitsIcEENS1_9allocatorIcEEEE, symObjAddr: 0x17C0, symBinAddr: 0x1000055A4, symSize: 0x34 }
  - { offsetInCU: 0xD5EB, offset: 0xD5EB, size: 0x8, addend: 0x0, symName: __ZN8CryptoPP14NotImplementedD1Ev, symObjAddr: 0x17F4, symBinAddr: 0x1000055D8, symSize: 0x2C }
  - { offsetInCU: 0xD615, offset: 0xD615, size: 0x8, addend: 0x0, symName: __ZN8CryptoPP14NotImplementedC2ERKNSt3__112basic_stringIcNS1_11char_traitsIcEENS1_9allocatorIcEEEE, symObjAddr: 0x1820, symBinAddr: 0x100005604, symSize: 0x50 }
  - { offsetInCU: 0xD64B, offset: 0xD64B, size: 0x8, addend: 0x0, symName: __ZN8CryptoPP9ExceptionC2ENS0_9ErrorTypeERKNSt3__112basic_stringIcNS2_11char_traitsIcEENS2_9allocatorIcEEEE, symObjAddr: 0x1870, symBinAddr: 0x100005654, symSize: 0x8C }
  - { offsetInCU: 0xD690, offset: 0xD690, size: 0x8, addend: 0x0, symName: __ZN8CryptoPP14NotImplementedD0Ev, symObjAddr: 0x18FC, symBinAddr: 0x1000056E0, symSize: 0x30 }
  - { offsetInCU: 0xD6BB, offset: 0xD6BB, size: 0x8, addend: 0x0, symName: __ZNK8CryptoPP9Exception4whatEv, symObjAddr: 0x192C, symBinAddr: 0x100005710, symSize: 0x28 }
  - { offsetInCU: 0xD6E0, offset: 0xD6E0, size: 0x8, addend: 0x0, symName: __ZNSt9exceptionC2B7v160006Ev, symObjAddr: 0x1954, symBinAddr: 0x100005738, symSize: 0x24 }
  - { offsetInCU: 0xD708, offset: 0xD708, size: 0x8, addend: 0x0, symName: __ZN8CryptoPP9ExceptionD1Ev, symObjAddr: 0x1978, symBinAddr: 0x10000575C, symSize: 0x2C }
  - { offsetInCU: 0xD730, offset: 0xD730, size: 0x8, addend: 0x0, symName: __ZN8CryptoPP9ExceptionD0Ev, symObjAddr: 0x19A4, symBinAddr: 0x100005788, symSize: 0x30 }
  - { offsetInCU: 0xD758, offset: 0xD758, size: 0x8, addend: 0x0, symName: __ZN8CryptoPP9ExceptionD2Ev, symObjAddr: 0x19D4, symBinAddr: 0x1000057B8, symSize: 0x48 }
  - { offsetInCU: 0xD781, offset: 0xD781, size: 0x8, addend: 0x0, symName: __ZNKSt3__112basic_stringIcNS_11char_traitsIcEENS_9allocatorIcEEE5c_strB7v160006Ev, symObjAddr: 0x1A1C, symBinAddr: 0x100005800, symSize: 0x24 }
  - { offsetInCU: 0xD7A6, offset: 0xD7A6, size: 0x8, addend: 0x0, symName: __ZNKSt3__112basic_stringIcNS_11char_traitsIcEENS_9allocatorIcEEE4dataB7v160006Ev, symObjAddr: 0x1A40, symBinAddr: 0x100005824, symSize: 0x28 }
  - { offsetInCU: 0xD7CB, offset: 0xD7CB, size: 0x8, addend: 0x0, symName: __ZNKSt3__112basic_stringIcNS_11char_traitsIcEENS_9allocatorIcEEE13__get_pointerB7v160006Ev, symObjAddr: 0x1A7C, symBinAddr: 0x100005860, symSize: 0x54 }
  - { offsetInCU: 0xD7F0, offset: 0xD7F0, size: 0x8, addend: 0x0, symName: __ZNKSt3__112basic_stringIcNS_11char_traitsIcEENS_9allocatorIcEEE9__is_longB7v160006Ev, symObjAddr: 0x1AD0, symBinAddr: 0x1000058B4, symSize: 0x38 }
  - { offsetInCU: 0xD815, offset: 0xD815, size: 0x8, addend: 0x0, symName: __ZNKSt3__112basic_stringIcNS_11char_traitsIcEENS_9allocatorIcEEE18__get_long_pointerB7v160006Ev, symObjAddr: 0x1B08, symBinAddr: 0x1000058EC, symSize: 0x28 }
  - { offsetInCU: 0xD83A, offset: 0xD83A, size: 0x8, addend: 0x0, symName: __ZNKSt3__112basic_stringIcNS_11char_traitsIcEENS_9allocatorIcEEE19__get_short_pointerB7v160006Ev, symObjAddr: 0x1B30, symBinAddr: 0x100005914, symSize: 0x28 }
  - { offsetInCU: 0xD85F, offset: 0xD85F, size: 0x8, addend: 0x0, symName: __ZNKSt3__117__compressed_pairINS_12basic_stringIcNS_11char_traitsIcEENS_9allocatorIcEEE5__repES5_E5firstB7v160006Ev, symObjAddr: 0x1B58, symBinAddr: 0x10000593C, symSize: 0x24 }
  - { offsetInCU: 0xD884, offset: 0xD884, size: 0x8, addend: 0x0, symName: __ZNKSt3__122__compressed_pair_elemINS_12basic_stringIcNS_11char_traitsIcEENS_9allocatorIcEEE5__repELi0ELb0EE5__getB7v160006Ev, symObjAddr: 0x1B7C, symBinAddr: 0x100005960, symSize: 0x14 }
  - { offsetInCU: 0xD8A9, offset: 0xD8A9, size: 0x8, addend: 0x0, symName: __ZNSt3__114pointer_traitsIPKcE10pointer_toB7v160006ERS1_, symObjAddr: 0x1B90, symBinAddr: 0x100005974, symSize: 0x14 }
  - { offsetInCU: 0xD8CC, offset: 0xD8CC, size: 0x8, addend: 0x0, symName: __ZN8CryptoPP14NotImplementedD2Ev, symObjAddr: 0x1BA4, symBinAddr: 0x100005988, symSize: 0x2C }
  - { offsetInCU: 0xD8F7, offset: 0xD8F7, size: 0x8, addend: 0x0, symName: __ZN8CryptoPP24FixedSizeAlignedSecBlockIjLj16ELb0EEC2Ev, symObjAddr: 0x1BD0, symBinAddr: 0x1000059B4, symSize: 0x2C }
  - { offsetInCU: 0xD923, offset: 0xD923, size: 0x8, addend: 0x0, symName: __ZN8CryptoPP24FixedSizeAlignedSecBlockIjLj16ELb0EED2Ev, symObjAddr: 0x1BFC, symBinAddr: 0x1000059E0, symSize: 0x2C }
  - { offsetInCU: 0xD94F, offset: 0xD94F, size: 0x8, addend: 0x0, symName: __ZN8CryptoPP17FixedSizeSecBlockIjLj16ENS_29FixedSizeAllocatorWithCleanupIjLm16ENS_13NullAllocatorIjEELb0EEEED2Ev, symObjAddr: 0x1C28, symBinAddr: 0x100005A0C, symSize: 0x2C }
  - { offsetInCU: 0xD97A, offset: 0xD97A, size: 0x8, addend: 0x0, symName: __ZN8CryptoPP8SecBlockIjNS_29FixedSizeAllocatorWithCleanupIjLm16ENS_13NullAllocatorIjEELb0EEEED2Ev, symObjAddr: 0x1C54, symBinAddr: 0x100005A38, symSize: 0x60 }
  - { offsetInCU: 0xD9A3, offset: 0xD9A3, size: 0x8, addend: 0x0, symName: __ZN8CryptoPP29FixedSizeAllocatorWithCleanupIjLm16ENS_13NullAllocatorIjEELb0EE10deallocateEPvm, symObjAddr: 0x1CB4, symBinAddr: 0x100005A98, symSize: 0x9C }
  - { offsetInCU: 0xD9E6, offset: 0xD9E6, size: 0x8, addend: 0x0, symName: __ZN8CryptoPP13NullAllocatorIjE10deallocateEPvm, symObjAddr: 0x1E6C, symBinAddr: 0x100005C50, symSize: 0x18 }
  - { offsetInCU: 0xDA29, offset: 0xDA29, size: 0x8, addend: 0x0, symName: __ZN8CryptoPP13AlgorithmImplINS_12IteratedHashIjNS_10EnumToTypeINS_9ByteOrderELi0EEELj64ENS_18HashTransformationEEENS_9RIPEMD128EED2Ev, symObjAddr: 0x1FA4, symBinAddr: 0x100005D88, symSize: 0x2C }
  - { offsetInCU: 0xDA53, offset: 0xDA53, size: 0x8, addend: 0x0, symName: __ZN8CryptoPP12IteratedHashIjNS_10EnumToTypeINS_9ByteOrderELi0EEELj64ENS_18HashTransformationEED2Ev, symObjAddr: 0x1FD0, symBinAddr: 0x100005DB4, symSize: 0x48 }
  - { offsetInCU: 0xDA7C, offset: 0xDA7C, size: 0x8, addend: 0x0, symName: __ZN8CryptoPP17FixedSizeSecBlockIjLj16ENS_29FixedSizeAllocatorWithCleanupIjLm16ENS_13NullAllocatorIjEELb0EEEED1Ev, symObjAddr: 0x2018, symBinAddr: 0x100005DFC, symSize: 0x2C }
  - { offsetInCU: 0xDAA7, offset: 0xDAA7, size: 0x8, addend: 0x0, symName: __ZN8CryptoPP31IteratedHashWithStaticTransformIjNS_10EnumToTypeINS_9ByteOrderELi0EEELj64ELj16ENS_9RIPEMD128ELj0ELb0EED2Ev, symObjAddr: 0x2044, symBinAddr: 0x100005E28, symSize: 0x48 }
  - { offsetInCU: 0xDAD5, offset: 0xDAD5, size: 0x8, addend: 0x0, symName: __ZN8CryptoPP9RIPEMD128C1ERKS0_, symObjAddr: 0x208C, symBinAddr: 0x100005E70, symSize: 0x34 }
  - { offsetInCU: 0xDB09, offset: 0xDB09, size: 0x8, addend: 0x0, symName: __ZN8CryptoPP9RIPEMD128C2ERKS0_, symObjAddr: 0x20C0, symBinAddr: 0x100005EA4, symSize: 0x4C }
  - { offsetInCU: 0xDB42, offset: 0xDB42, size: 0x8, addend: 0x0, symName: __ZN8CryptoPP31IteratedHashWithStaticTransformIjNS_10EnumToTypeINS_9ByteOrderELi0EEELj64ELj16ENS_9RIPEMD128ELj0ELb0EEC2ERKS5_, symObjAddr: 0x210C, symBinAddr: 0x100005EF0, symSize: 0x88 }
  - { offsetInCU: 0xDB7B, offset: 0xDB7B, size: 0x8, addend: 0x0, symName: __ZN8CryptoPP12ClonableImplINS_9RIPEMD128ENS_13AlgorithmImplINS_12IteratedHashIjNS_10EnumToTypeINS_9ByteOrderELi0EEELj64ENS_18HashTransformationEEES1_EEEC2ERKSA_, symObjAddr: 0x2194, symBinAddr: 0x100005F78, symSize: 0x4C }
  - { offsetInCU: 0xDBB9, offset: 0xDBB9, size: 0x8, addend: 0x0, symName: __ZN8CryptoPP24FixedSizeAlignedSecBlockIjLj16ELb0EEC1ERKS1_, symObjAddr: 0x21E0, symBinAddr: 0x100005FC4, symSize: 0x34 }
  - { offsetInCU: 0xDBF3, offset: 0xDBF3, size: 0x8, addend: 0x0, symName: __ZN8CryptoPP13AlgorithmImplINS_12IteratedHashIjNS_10EnumToTypeINS_9ByteOrderELi0EEELj64ENS_18HashTransformationEEENS_9RIPEMD128EEC2ERKS8_, symObjAddr: 0x2214, symBinAddr: 0x100005FF8, symSize: 0x4C }
  - { offsetInCU: 0xDC2C, offset: 0xDC2C, size: 0x8, addend: 0x0, symName: __ZN8CryptoPP12IteratedHashIjNS_10EnumToTypeINS_9ByteOrderELi0EEELj64ENS_18HashTransformationEEC2ERKS5_, symObjAddr: 0x2260, symBinAddr: 0x100006044, symSize: 0x88 }
  - { offsetInCU: 0xDC65, offset: 0xDC65, size: 0x8, addend: 0x0, symName: __ZN8CryptoPP16IteratedHashBaseIjNS_18HashTransformationEEC2ERKS2_, symObjAddr: 0x22E8, symBinAddr: 0x1000060CC, symSize: 0x58 }
  - { offsetInCU: 0xDCA3, offset: 0xDCA3, size: 0x8, addend: 0x0, symName: __ZN8CryptoPP17FixedSizeSecBlockIjLj16ENS_29FixedSizeAllocatorWithCleanupIjLm16ENS_13NullAllocatorIjEELb0EEEEC1ERKS5_, symObjAddr: 0x2340, symBinAddr: 0x100006124, symSize: 0x34 }
  - { offsetInCU: 0xDCDD, offset: 0xDCDD, size: 0x8, addend: 0x0, symName: __ZN8CryptoPP18HashTransformationC2ERKS0_, symObjAddr: 0x2374, symBinAddr: 0x100006158, symSize: 0x4C }
  - { offsetInCU: 0xDD17, offset: 0xDD17, size: 0x8, addend: 0x0, symName: __ZN8CryptoPP9AlgorithmC2ERKS0_, symObjAddr: 0x23C0, symBinAddr: 0x1000061A4, symSize: 0x4C }
  - { offsetInCU: 0xDD51, offset: 0xDD51, size: 0x8, addend: 0x0, symName: __ZN8CryptoPP8ClonableC2ERKS0_, symObjAddr: 0x240C, symBinAddr: 0x1000061F0, symSize: 0x28 }
  - { offsetInCU: 0xDD85, offset: 0xDD85, size: 0x8, addend: 0x0, symName: __ZN8CryptoPP9AlgorithmD1Ev, symObjAddr: 0x2434, symBinAddr: 0x100006218, symSize: 0x2C }
  - { offsetInCU: 0xDDAD, offset: 0xDDAD, size: 0x8, addend: 0x0, symName: __ZN8CryptoPP9AlgorithmD0Ev, symObjAddr: 0x2460, symBinAddr: 0x100006244, symSize: 0x30 }
  - { offsetInCU: 0xDDD6, offset: 0xDDD6, size: 0x8, addend: 0x0, symName: __ZNK8CryptoPP9Algorithm17AlgorithmProviderEv, symObjAddr: 0x2490, symBinAddr: 0x100006274, symSize: 0x3C }
  - { offsetInCU: 0xDDFA, offset: 0xDDFA, size: 0x8, addend: 0x0, symName: __ZN8CryptoPP8ClonableD1Ev, symObjAddr: 0x24CC, symBinAddr: 0x1000062B0, symSize: 0x2C }
  - { offsetInCU: 0xDE22, offset: 0xDE22, size: 0x8, addend: 0x0, symName: __ZN8CryptoPP8ClonableD0Ev, symObjAddr: 0x24F8, symBinAddr: 0x1000062DC, symSize: 0x30 }
  - { offsetInCU: 0xDE4B, offset: 0xDE4B, size: 0x8, addend: 0x0, symName: __ZN8CryptoPP17FixedSizeSecBlockIjLj16ENS_29FixedSizeAllocatorWithCleanupIjLm16ENS_13NullAllocatorIjEELb0EEEEC2ERKS5_, symObjAddr: 0x2528, symBinAddr: 0x10000630C, symSize: 0x34 }
  - { offsetInCU: 0xDE7F, offset: 0xDE7F, size: 0x8, addend: 0x0, symName: __ZN8CryptoPP8SecBlockIjNS_29FixedSizeAllocatorWithCleanupIjLm16ENS_13NullAllocatorIjEELb0EEEEC2ERKS5_, symObjAddr: 0x255C, symBinAddr: 0x100006340, symSize: 0xC4 }
  - { offsetInCU: 0xDEB6, offset: 0xDEB6, size: 0x8, addend: 0x0, symName: __ZN8CryptoPP15InvalidArgumentC1ERKNSt3__112basic_stringIcNS1_11char_traitsIcEENS1_9allocatorIcEEEE, symObjAddr: 0x2758, symBinAddr: 0x10000653C, symSize: 0x34 }
  - { offsetInCU: 0xDEED, offset: 0xDEED, size: 0x8, addend: 0x0, symName: __ZN8CryptoPP15InvalidArgumentD1Ev, symObjAddr: 0x278C, symBinAddr: 0x100006570, symSize: 0x2C }
  - { offsetInCU: 0xDF17, offset: 0xDF17, size: 0x8, addend: 0x0, symName: __ZN8CryptoPP15InvalidArgumentC2ERKNSt3__112basic_stringIcNS1_11char_traitsIcEENS1_9allocatorIcEEEE, symObjAddr: 0x27B8, symBinAddr: 0x10000659C, symSize: 0x50 }
  - { offsetInCU: 0xDF4E, offset: 0xDF4E, size: 0x8, addend: 0x0, symName: __ZN8CryptoPP15InvalidArgumentD0Ev, symObjAddr: 0x2808, symBinAddr: 0x1000065EC, symSize: 0x30 }
  - { offsetInCU: 0xDF79, offset: 0xDF79, size: 0x8, addend: 0x0, symName: __ZN8CryptoPP15InvalidArgumentD2Ev, symObjAddr: 0x2838, symBinAddr: 0x10000661C, symSize: 0x2C }
  - { offsetInCU: 0xDFA4, offset: 0xDFA4, size: 0x8, addend: 0x0, symName: __ZN8CryptoPP24FixedSizeAlignedSecBlockIjLj16ELb0EEC2ERKS1_, symObjAddr: 0x2864, symBinAddr: 0x100006648, symSize: 0x34 }
  - { offsetInCU: 0xDFD9, offset: 0xDFD9, size: 0x8, addend: 0x0, symName: __ZN8CryptoPP9RIPEMD12819StaticAlgorithmNameEv, symObjAddr: 0x2898, symBinAddr: 0x10000667C, symSize: 0xC }
  - { offsetInCU: 0xDFED, offset: 0xDFED, size: 0x8, addend: 0x0, symName: __ZN8CryptoPP8SecBlockIjNS_29FixedSizeAllocatorWithCleanupIjLm16ENS_13NullAllocatorIjEELb0EEEEcvPjEv, symObjAddr: 0x28A4, symBinAddr: 0x100006688, symSize: 0x18 }
  - { offsetInCU: 0xE012, offset: 0xE012, size: 0x8, addend: 0x0, symName: __ZN8CryptoPP10EnumToTypeINS_9ByteOrderELi0EE6ToEnumEv, symObjAddr: 0x28BC, symBinAddr: 0x1000066A0, symSize: 0x8 }
  - { offsetInCU: 0xE026, offset: 0xE026, size: 0x8, addend: 0x0, symName: __ZN8CryptoPP9RIPEMD128D2Ev, symObjAddr: 0x28C4, symBinAddr: 0x1000066A8, symSize: 0x2C }
  - { offsetInCU: 0xE050, offset: 0xE050, size: 0x8, addend: 0x0, symName: __ZN8CryptoPP10HexEncoderC2EPNS_22BufferedTransformationEbiRKNSt3__112basic_stringIcNS3_11char_traitsIcEENS3_9allocatorIcEEEESB_, symObjAddr: 0x28F0, symBinAddr: 0x1000066D4, symSize: 0x260 }
  - { offsetInCU: 0xE0C8, offset: 0xE0C8, size: 0x8, addend: 0x0, symName: __ZN8CryptoPP7GrouperC1EPNS_22BufferedTransformationE, symObjAddr: 0x2B50, symBinAddr: 0x100006934, symSize: 0x34 }
  - { offsetInCU: 0xE112, offset: 0xE112, size: 0x8, addend: 0x0, symName: __ZN8CryptoPP13BaseN_EncoderC1EPNS_22BufferedTransformationE, symObjAddr: 0x2B84, symBinAddr: 0x100006968, symSize: 0x34 }
  - { offsetInCU: 0xE148, offset: 0xE148, size: 0x8, addend: 0x0, symName: __ZN8CryptoPP17SimpleProxyFilterC2EPNS_22BufferedTransformationES2_, symObjAddr: 0x2BB8, symBinAddr: 0x10000699C, symSize: 0x6C }
  - { offsetInCU: 0xE1E9, offset: 0xE1E9, size: 0x8, addend: 0x0, symName: __ZN8CryptoPP19AlgorithmParametersclIiEERS0_PKcRKT_, symObjAddr: 0x2CC8, symBinAddr: 0x100006AAC, symSize: 0x3C }
  - { offsetInCU: 0xE23A, offset: 0xE23A, size: 0x8, addend: 0x0, symName: __ZN8CryptoPP19AlgorithmParametersclINS_23ConstByteArrayParameterEEERS0_PKcRKT_, symObjAddr: 0x2D10, symBinAddr: 0x100006AF4, symSize: 0x3C }
  - { offsetInCU: 0xE285, offset: 0xE285, size: 0x8, addend: 0x0, symName: __ZN8CryptoPP23ConstByteArrayParameterC1INSt3__112basic_stringIcNS2_11char_traitsIcEENS2_9allocatorIcEEEEEERKT_b, symObjAddr: 0x2D58, symBinAddr: 0x100006B3C, symSize: 0x48 }
  - { offsetInCU: 0xE2D3, offset: 0xE2D3, size: 0x8, addend: 0x0, symName: __ZN8CryptoPP23ConstByteArrayParameterD1Ev, symObjAddr: 0x2DAC, symBinAddr: 0x100006B90, symSize: 0x2C }
  - { offsetInCU: 0xE2FE, offset: 0xE2FE, size: 0x8, addend: 0x0, symName: __ZN8CryptoPP19AlgorithmParametersD1Ev, symObjAddr: 0x2DD8, symBinAddr: 0x100006BBC, symSize: 0x2C }
  - { offsetInCU: 0xE32A, offset: 0xE32A, size: 0x8, addend: 0x0, symName: __ZN8CryptoPP17SimpleProxyFilterD2Ev, symObjAddr: 0x2E04, symBinAddr: 0x100006BE8, symSize: 0x2C }
  - { offsetInCU: 0xE355, offset: 0xE355, size: 0x8, addend: 0x0, symName: __ZN8CryptoPP7GrouperC2EPNS_22BufferedTransformationE, symObjAddr: 0x2E30, symBinAddr: 0x100006C14, symSize: 0x104 }
  - { offsetInCU: 0xE38C, offset: 0xE38C, size: 0x8, addend: 0x0, symName: __ZN8CryptoPP10BufferlessINS_6FilterEEC2Ev, symObjAddr: 0x2F34, symBinAddr: 0x100006D18, symSize: 0x58 }
  - { offsetInCU: 0xE3B6, offset: 0xE3B6, size: 0x8, addend: 0x0, symName: __ZN8CryptoPP8SecBlockIhNS_20AllocatorWithCleanupIhLb0EEEEC1Em, symObjAddr: 0x2F8C, symBinAddr: 0x100006D70, symSize: 0x34 }
  - { offsetInCU: 0xE3ED, offset: 0xE3ED, size: 0x8, addend: 0x0, symName: __ZN8CryptoPP8SecBlockIhNS_20AllocatorWithCleanupIhLb0EEEED1Ev, symObjAddr: 0x2FC0, symBinAddr: 0x100006DA4, symSize: 0x2C }
  - { offsetInCU: 0xE416, offset: 0xE416, size: 0x8, addend: 0x0, symName: __ZN8CryptoPP10BufferlessINS_6FilterEED2Ev, symObjAddr: 0x2FEC, symBinAddr: 0x100006DD0, symSize: 0x2C }
  - { offsetInCU: 0xE441, offset: 0xE441, size: 0x8, addend: 0x0, symName: __ZN8CryptoPP10BufferlessINS_6FilterEED1Ev, symObjAddr: 0x3018, symBinAddr: 0x100006DFC, symSize: 0x14 }
  - { offsetInCU: 0xE46C, offset: 0xE46C, size: 0x8, addend: 0x0, symName: __ZN8CryptoPP10BufferlessINS_6FilterEED0Ev, symObjAddr: 0x302C, symBinAddr: 0x100006E10, symSize: 0xC }
  - { offsetInCU: 0xE497, offset: 0xE497, size: 0x8, addend: 0x0, symName: __ZN8CryptoPP22BufferedTransformation14CreatePutSpaceERm, symObjAddr: 0x3038, symBinAddr: 0x100006E1C, symSize: 0x20 }
  - { offsetInCU: 0xE4CB, offset: 0xE4CB, size: 0x8, addend: 0x0, symName: __ZNK8CryptoPP22BufferedTransformation14CanModifyInputEv, symObjAddr: 0x3058, symBinAddr: 0x100006E3C, symSize: 0x18 }
  - { offsetInCU: 0xE4F0, offset: 0xE4F0, size: 0x8, addend: 0x0, symName: __ZN8CryptoPP22BufferedTransformation14PutModifiable2EPhmib, symObjAddr: 0x3070, symBinAddr: 0x100006E54, symSize: 0x58 }
  - { offsetInCU: 0xE551, offset: 0xE551, size: 0x8, addend: 0x0, symName: __ZN8CryptoPP22BufferedTransformation18IsolatedInitializeERKNS_14NameValuePairsE, symObjAddr: 0x30C8, symBinAddr: 0x100006EAC, symSize: 0xD0 }
  - { offsetInCU: 0xE585, offset: 0xE585, size: 0x8, addend: 0x0, symName: __ZN8CryptoPP10BufferlessINS_6FilterEE13IsolatedFlushEbb, symObjAddr: 0x3198, symBinAddr: 0x100006F7C, symSize: 0x2C }
  - { offsetInCU: 0xE5C6, offset: 0xE5C6, size: 0x8, addend: 0x0, symName: __ZN8CryptoPP22BufferedTransformation24IsolatedMessageSeriesEndEb, symObjAddr: 0x31C4, symBinAddr: 0x100006FA8, symSize: 0x24 }
  - { offsetInCU: 0xE5FA, offset: 0xE5FA, size: 0x8, addend: 0x0, symName: __ZN8CryptoPP22BufferedTransformation24SetAutoSignalPropagationEi, symObjAddr: 0x31E8, symBinAddr: 0x100006FCC, symSize: 0x14 }
  - { offsetInCU: 0xE62E, offset: 0xE62E, size: 0x8, addend: 0x0, symName: __ZNK8CryptoPP22BufferedTransformation24GetAutoSignalPropagationEv, symObjAddr: 0x31FC, symBinAddr: 0x100006FE0, symSize: 0x14 }
  - { offsetInCU: 0xE653, offset: 0xE653, size: 0x8, addend: 0x0, symName: __ZN8CryptoPP22BufferedTransformation20GetNextMessageSeriesEv, symObjAddr: 0x3210, symBinAddr: 0x100006FF4, symSize: 0x18 }
  - { offsetInCU: 0xE678, offset: 0xE678, size: 0x8, addend: 0x0, symName: __ZNK8CryptoPP22BufferedTransformation28NumberOfMessagesInThisSeriesEv, symObjAddr: 0x3228, symBinAddr: 0x10000700C, symSize: 0x2C }
  - { offsetInCU: 0xE69D, offset: 0xE69D, size: 0x8, addend: 0x0, symName: __ZNK8CryptoPP22BufferedTransformation21NumberOfMessageSeriesEv, symObjAddr: 0x3254, symBinAddr: 0x100007038, symSize: 0x14 }
  - { offsetInCU: 0xE6C2, offset: 0xE6C2, size: 0x8, addend: 0x0, symName: __ZN8CryptoPP6Filter10AttachableEv, symObjAddr: 0x3268, symBinAddr: 0x10000704C, symSize: 0x18 }
  - { offsetInCU: 0xE6E7, offset: 0xE6E7, size: 0x8, addend: 0x0, symName: __ZNK8CryptoPP6Filter25ShouldPropagateMessageEndEv, symObjAddr: 0x3280, symBinAddr: 0x100007064, symSize: 0x18 }
  - { offsetInCU: 0xE70C, offset: 0xE70C, size: 0x8, addend: 0x0, symName: __ZNK8CryptoPP6Filter31ShouldPropagateMessageSeriesEndEv, symObjAddr: 0x3298, symBinAddr: 0x10000707C, symSize: 0x18 }
  - { offsetInCU: 0xE731, offset: 0xE731, size: 0x8, addend: 0x0, symName: __ZThn8_N8CryptoPP10BufferlessINS_6FilterEED1Ev, symObjAddr: 0x32B0, symBinAddr: 0x100007094, symSize: 0x1C }
  - { offsetInCU: 0xE747, offset: 0xE747, size: 0x8, addend: 0x0, symName: __ZThn8_N8CryptoPP10BufferlessINS_6FilterEED0Ev, symObjAddr: 0x32CC, symBinAddr: 0x1000070B0, symSize: 0x18 }
  - { offsetInCU: 0xE75C, offset: 0xE75C, size: 0x8, addend: 0x0, symName: __ZN8CryptoPP8SecBlockIhNS_20AllocatorWithCleanupIhLb0EEEEC2Em, symObjAddr: 0x32E4, symBinAddr: 0x1000070C8, symSize: 0x50 }
  - { offsetInCU: 0xE793, offset: 0xE793, size: 0x8, addend: 0x0, symName: __ZN8CryptoPP8SecBlockIhNS_20AllocatorWithCleanupIhLb0EEEED2Ev, symObjAddr: 0x3334, symBinAddr: 0x100007118, symSize: 0x58 }
  - { offsetInCU: 0xE7BB, offset: 0xE7BB, size: 0x8, addend: 0x0, symName: __ZN8CryptoPP6FilterD2Ev, symObjAddr: 0x338C, symBinAddr: 0x100007170, symSize: 0x50 }
  - { offsetInCU: 0xE7E4, offset: 0xE7E4, size: 0x8, addend: 0x0, symName: __ZN8CryptoPP10member_ptrINS_22BufferedTransformationEED1Ev, symObjAddr: 0x33DC, symBinAddr: 0x1000071C0, symSize: 0x2C }
  - { offsetInCU: 0xE80D, offset: 0xE80D, size: 0x8, addend: 0x0, symName: __ZN8CryptoPP22BufferedTransformationD2Ev, symObjAddr: 0x3408, symBinAddr: 0x1000071EC, symSize: 0x38 }
  - { offsetInCU: 0xE836, offset: 0xE836, size: 0x8, addend: 0x0, symName: __ZN8CryptoPP10member_ptrINS_22BufferedTransformationEED2Ev, symObjAddr: 0x3440, symBinAddr: 0x100007224, symSize: 0x58 }
  - { offsetInCU: 0xE860, offset: 0xE860, size: 0x8, addend: 0x0, symName: __ZN8CryptoPP8WaitableD2Ev, symObjAddr: 0x3498, symBinAddr: 0x10000727C, symSize: 0x14 }
  - { offsetInCU: 0xE888, offset: 0xE888, size: 0x8, addend: 0x0, symName: __ZN8CryptoPP13BaseN_EncoderC2EPNS_22BufferedTransformationE, symObjAddr: 0x34AC, symBinAddr: 0x100007290, symSize: 0xE0 }
  - { offsetInCU: 0xE8BF, offset: 0xE8BF, size: 0x8, addend: 0x0, symName: __ZN8CryptoPP11UnflushableINS_6FilterEEC2Ev, symObjAddr: 0x358C, symBinAddr: 0x100007370, symSize: 0x58 }
  - { offsetInCU: 0xE8EA, offset: 0xE8EA, size: 0x8, addend: 0x0, symName: __ZN8CryptoPP11UnflushableINS_6FilterEED2Ev, symObjAddr: 0x35E4, symBinAddr: 0x1000073C8, symSize: 0x2C }
  - { offsetInCU: 0xE915, offset: 0xE915, size: 0x8, addend: 0x0, symName: __ZN8CryptoPP11UnflushableINS_6FilterEED1Ev, symObjAddr: 0x3610, symBinAddr: 0x1000073F4, symSize: 0x14 }
  - { offsetInCU: 0xE940, offset: 0xE940, size: 0x8, addend: 0x0, symName: __ZN8CryptoPP11UnflushableINS_6FilterEED0Ev, symObjAddr: 0x3624, symBinAddr: 0x100007408, symSize: 0xC }
  - { offsetInCU: 0xE96B, offset: 0xE96B, size: 0x8, addend: 0x0, symName: __ZN8CryptoPP11UnflushableINS_6FilterEE13IsolatedFlushEbb, symObjAddr: 0x3630, symBinAddr: 0x100007414, symSize: 0x2C }
  - { offsetInCU: 0xE9AC, offset: 0xE9AC, size: 0x8, addend: 0x0, symName: __ZN8CryptoPP11UnflushableINS_6FilterEE5FlushEbib, symObjAddr: 0x365C, symBinAddr: 0x100007440, symSize: 0x64 }
  - { offsetInCU: 0xE9FB, offset: 0xE9FB, size: 0x8, addend: 0x0, symName: __ZN8CryptoPP11UnflushableINS_6FilterEE12ChannelFlushERKNSt3__112basic_stringIcNS3_11char_traitsIcEENS3_9allocatorIcEEEEbib, symObjAddr: 0x36C0, symBinAddr: 0x1000074A4, symSize: 0x1A4 }
  - { offsetInCU: 0xEA76, offset: 0xEA76, size: 0x8, addend: 0x0, symName: __ZNK8CryptoPP11UnflushableINS_6FilterEE18InputBufferIsEmptyEv, symObjAddr: 0x3864, symBinAddr: 0x100007648, symSize: 0x18 }
  - { offsetInCU: 0xEA9B, offset: 0xEA9B, size: 0x8, addend: 0x0, symName: __ZThn8_N8CryptoPP11UnflushableINS_6FilterEED1Ev, symObjAddr: 0x387C, symBinAddr: 0x100007660, symSize: 0x1C }
  - { offsetInCU: 0xEAB1, offset: 0xEAB1, size: 0x8, addend: 0x0, symName: __ZThn8_N8CryptoPP11UnflushableINS_6FilterEED0Ev, symObjAddr: 0x3898, symBinAddr: 0x10000767C, symSize: 0x18 }
  - { offsetInCU: 0xEAC6, offset: 0xEAC6, size: 0x8, addend: 0x0, symName: __ZN8CryptoPP11CannotFlushC1ERKNSt3__112basic_stringIcNS1_11char_traitsIcEENS1_9allocatorIcEEEE, symObjAddr: 0x38B0, symBinAddr: 0x100007694, symSize: 0x34 }
  - { offsetInCU: 0xEAFD, offset: 0xEAFD, size: 0x8, addend: 0x0, symName: __ZN8CryptoPP11CannotFlushD1Ev, symObjAddr: 0x38E4, symBinAddr: 0x1000076C8, symSize: 0x2C }
  - { offsetInCU: 0xEB27, offset: 0xEB27, size: 0x8, addend: 0x0, symName: __ZN8CryptoPP11CannotFlushC2ERKNSt3__112basic_stringIcNS1_11char_traitsIcEENS1_9allocatorIcEEEE, symObjAddr: 0x3910, symBinAddr: 0x1000076F4, symSize: 0x50 }
  - { offsetInCU: 0xEB5E, offset: 0xEB5E, size: 0x8, addend: 0x0, symName: __ZN8CryptoPP11CannotFlushD0Ev, symObjAddr: 0x3960, symBinAddr: 0x100007744, symSize: 0x30 }
  - { offsetInCU: 0xEB89, offset: 0xEB89, size: 0x8, addend: 0x0, symName: __ZN8CryptoPP11CannotFlushD2Ev, symObjAddr: 0x3990, symBinAddr: 0x100007774, symSize: 0x2C }
  - { offsetInCU: 0xEBB4, offset: 0xEBB4, size: 0x8, addend: 0x0, symName: __ZN8CryptoPP17SimpleProxyFilterD1Ev, symObjAddr: 0x39BC, symBinAddr: 0x1000077A0, symSize: 0x2C }
  - { offsetInCU: 0xEBE0, offset: 0xEBE0, size: 0x8, addend: 0x0, symName: __ZN8CryptoPP17SimpleProxyFilterD0Ev, symObjAddr: 0x39E8, symBinAddr: 0x1000077CC, symSize: 0x30 }
  - { offsetInCU: 0xEC0C, offset: 0xEC0C, size: 0x8, addend: 0x0, symName: __ZN8CryptoPP23FilterWithBufferedInput4Put2EPKhmib, symObjAddr: 0x3A18, symBinAddr: 0x1000077FC, symSize: 0x58 }
  - { offsetInCU: 0xEC6D, offset: 0xEC6D, size: 0x8, addend: 0x0, symName: __ZN8CryptoPP23FilterWithBufferedInput14PutModifiable2EPhmib, symObjAddr: 0x3A70, symBinAddr: 0x100007854, symSize: 0x54 }
  - { offsetInCU: 0xECCE, offset: 0xECCE, size: 0x8, addend: 0x0, symName: __ZNK8CryptoPP23FilterWithBufferedInput11DidFirstPutEv, symObjAddr: 0x3AC4, symBinAddr: 0x1000078A8, symSize: 0x1C }
  - { offsetInCU: 0xECF3, offset: 0xECF3, size: 0x8, addend: 0x0, symName: __ZNK8CryptoPP23FilterWithBufferedInput15GetFirstPutSizeEv, symObjAddr: 0x3AE0, symBinAddr: 0x1000078C4, symSize: 0x18 }
  - { offsetInCU: 0xED18, offset: 0xED18, size: 0x8, addend: 0x0, symName: __ZNK8CryptoPP23FilterWithBufferedInput15GetBlockPutSizeEv, symObjAddr: 0x3AF8, symBinAddr: 0x1000078DC, symSize: 0x18 }
  - { offsetInCU: 0xED3D, offset: 0xED3D, size: 0x8, addend: 0x0, symName: __ZNK8CryptoPP23FilterWithBufferedInput14GetLastPutSizeEv, symObjAddr: 0x3B10, symBinAddr: 0x1000078F4, symSize: 0x18 }
  - { offsetInCU: 0xED62, offset: 0xED62, size: 0x8, addend: 0x0, symName: __ZN8CryptoPP23FilterWithBufferedInput34InitializeDerivedAndReturnNewSizesERKNS_14NameValuePairsERmS4_S4_, symObjAddr: 0x3B28, symBinAddr: 0x10000790C, symSize: 0x40 }
  - { offsetInCU: 0xEDC3, offset: 0xEDC3, size: 0x8, addend: 0x0, symName: __ZN8CryptoPP23FilterWithBufferedInput17InitializeDerivedERKNS_14NameValuePairsE, symObjAddr: 0x3B68, symBinAddr: 0x10000794C, symSize: 0x14 }
  - { offsetInCU: 0xEDF7, offset: 0xEDF7, size: 0x8, addend: 0x0, symName: __ZN8CryptoPP17SimpleProxyFilter8FirstPutEPKh, symObjAddr: 0x3B7C, symBinAddr: 0x100007960, symSize: 0x14 }
  - { offsetInCU: 0xEE2B, offset: 0xEE2B, size: 0x8, addend: 0x0, symName: __ZN8CryptoPP23FilterWithBufferedInput13NextPutSingleEPKh, symObjAddr: 0x3B90, symBinAddr: 0x100007974, symSize: 0x14 }
  - { offsetInCU: 0xEE5F, offset: 0xEE5F, size: 0x8, addend: 0x0, symName: __ZN8CryptoPP17SimpleProxyFilter7LastPutEPKhm, symObjAddr: 0x3BA4, symBinAddr: 0x100007988, symSize: 0x40 }
  - { offsetInCU: 0xEEA2, offset: 0xEEA2, size: 0x8, addend: 0x0, symName: __ZN8CryptoPP23FilterWithBufferedInput12FlushDerivedEv, symObjAddr: 0x3BE4, symBinAddr: 0x1000079C8, symSize: 0x10 }
  - { offsetInCU: 0xEEC7, offset: 0xEEC7, size: 0x8, addend: 0x0, symName: __ZN8CryptoPP23FilterWithBufferedInput7NextPutEPKhm, symObjAddr: 0x3BF4, symBinAddr: 0x1000079D8, symSize: 0x1C }
  - { offsetInCU: 0xEF0A, offset: 0xEF0A, size: 0x8, addend: 0x0, symName: __ZThn8_N8CryptoPP17SimpleProxyFilterD1Ev, symObjAddr: 0x3C10, symBinAddr: 0x1000079F4, symSize: 0x1C }
  - { offsetInCU: 0xEF21, offset: 0xEF21, size: 0x8, addend: 0x0, symName: __ZThn8_N8CryptoPP17SimpleProxyFilterD0Ev, symObjAddr: 0x3C2C, symBinAddr: 0x100007A10, symSize: 0x18 }
  - { offsetInCU: 0xEF38, offset: 0xEF38, size: 0x8, addend: 0x0, symName: __ZN8CryptoPP10member_ptrINS_22BufferedTransformationEEptEv, symObjAddr: 0x3C44, symBinAddr: 0x100007A28, symSize: 0x18 }
  - { offsetInCU: 0xEF62, offset: 0xEF62, size: 0x8, addend: 0x0, symName: __ZN8CryptoPP19AlgorithmParametersclIbEERS0_PKcRKT_b, symObjAddr: 0x3C5C, symBinAddr: 0x100007A40, symSize: 0x130 }
  - { offsetInCU: 0xEFCB, offset: 0xEFCB, size: 0x8, addend: 0x0, symName: __ZN8CryptoPP10member_ptrINS_23AlgorithmParametersBaseEEC1EPS1_, symObjAddr: 0x3D8C, symBinAddr: 0x100007B70, symSize: 0x34 }
  - { offsetInCU: 0xF002, offset: 0xF002, size: 0x8, addend: 0x0, symName: __ZN8CryptoPP10member_ptrINS_23AlgorithmParametersBaseEEptEv, symObjAddr: 0x3DC0, symBinAddr: 0x100007BA4, symSize: 0x18 }
  - { offsetInCU: 0xF027, offset: 0xF027, size: 0x8, addend: 0x0, symName: __ZN8CryptoPP10member_ptrINS_23AlgorithmParametersBaseEE5resetEPS1_, symObjAddr: 0x3DD8, symBinAddr: 0x100007BBC, symSize: 0x60 }
  - { offsetInCU: 0xF05B, offset: 0xF05B, size: 0x8, addend: 0x0, symName: __ZN8CryptoPP10member_ptrINS_23AlgorithmParametersBaseEE7releaseEv, symObjAddr: 0x3E38, symBinAddr: 0x100007C1C, symSize: 0x24 }
  - { offsetInCU: 0xF08F, offset: 0xF08F, size: 0x8, addend: 0x0, symName: __ZN8CryptoPP10member_ptrINS_23AlgorithmParametersBaseEED1Ev, symObjAddr: 0x3E5C, symBinAddr: 0x100007C40, symSize: 0x2C }
  - { offsetInCU: 0xF0B9, offset: 0xF0B9, size: 0x8, addend: 0x0, symName: __ZN8CryptoPP10member_ptrINS_23AlgorithmParametersBaseEEC2EPS1_, symObjAddr: 0x3E88, symBinAddr: 0x100007C6C, symSize: 0x20 }
  - { offsetInCU: 0xF0F0, offset: 0xF0F0, size: 0x8, addend: 0x0, symName: __ZN8CryptoPP10member_ptrINS_23AlgorithmParametersBaseEED2Ev, symObjAddr: 0x3EA8, symBinAddr: 0x100007C8C, symSize: 0x60 }
  - { offsetInCU: 0xF11A, offset: 0xF11A, size: 0x8, addend: 0x0, symName: __ZN8CryptoPP19AlgorithmParametersclIiEERS0_PKcRKT_b, symObjAddr: 0x3F08, symBinAddr: 0x100007CEC, symSize: 0x114 }
  - { offsetInCU: 0xF184, offset: 0xF184, size: 0x8, addend: 0x0, symName: __ZN8CryptoPP19AlgorithmParametersclINS_23ConstByteArrayParameterEEERS0_PKcRKT_b, symObjAddr: 0x401C, symBinAddr: 0x100007E00, symSize: 0x114 }
  - { offsetInCU: 0xF1EE, offset: 0xF1EE, size: 0x8, addend: 0x0, symName: __ZN8CryptoPP23ConstByteArrayParameter6AssignEPKhmb, symObjAddr: 0x41E0, symBinAddr: 0x100007FC4, symSize: 0x84 }
  - { offsetInCU: 0xF23D, offset: 0xF23D, size: 0x8, addend: 0x0, symName: __ZNKSt3__112basic_stringIcNS_11char_traitsIcEENS_9allocatorIcEEEixB7v160006Em, symObjAddr: 0x4264, symBinAddr: 0x100008048, symSize: 0x30 }
  - { offsetInCU: 0xF271, offset: 0xF271, size: 0x8, addend: 0x0, symName: __ZNKSt3__112basic_stringIcNS_11char_traitsIcEENS_9allocatorIcEEE4sizeB7v160006Ev, symObjAddr: 0x4294, symBinAddr: 0x100008078, symSize: 0x54 }
  - { offsetInCU: 0xF296, offset: 0xF296, size: 0x8, addend: 0x0, symName: __ZN8CryptoPP8SecBlockIhNS_20AllocatorWithCleanupIhLb0EEEE6AssignEPKhm, symObjAddr: 0x42E8, symBinAddr: 0x1000080CC, symSize: 0x90 }
  - { offsetInCU: 0xF2D9, offset: 0xF2D9, size: 0x8, addend: 0x0, symName: __ZN8CryptoPP8SecBlockIhNS_20AllocatorWithCleanupIhLb0EEEE3NewEm, symObjAddr: 0x4378, symBinAddr: 0x10000815C, symSize: 0x58 }
  - { offsetInCU: 0xF30D, offset: 0xF30D, size: 0x8, addend: 0x0, symName: __ZNKSt3__112basic_stringIcNS_11char_traitsIcEENS_9allocatorIcEEE15__get_long_sizeB7v160006Ev, symObjAddr: 0x43D0, symBinAddr: 0x1000081B4, symSize: 0x28 }
  - { offsetInCU: 0xF332, offset: 0xF332, size: 0x8, addend: 0x0, symName: __ZNKSt3__112basic_stringIcNS_11char_traitsIcEENS_9allocatorIcEEE16__get_short_sizeB7v160006Ev, symObjAddr: 0x43F8, symBinAddr: 0x1000081DC, symSize: 0x34 }
  - { offsetInCU: 0xF357, offset: 0xF357, size: 0x8, addend: 0x0, symName: __ZN8CryptoPP23ConstByteArrayParameterD2Ev, symObjAddr: 0x442C, symBinAddr: 0x100008210, symSize: 0x30 }
  - { offsetInCU: 0xF382, offset: 0xF382, size: 0x8, addend: 0x0, symName: __ZN8CryptoPP19AlgorithmParametersD2Ev, symObjAddr: 0x445C, symBinAddr: 0x100008240, symSize: 0x48 }
  - { offsetInCU: 0xF3AE, offset: 0xF3AE, size: 0x8, addend: 0x0, symName: __ZN8CryptoPP14NameValuePairsD2Ev, symObjAddr: 0x44A4, symBinAddr: 0x100008288, symSize: 0x14 }
  - { offsetInCU: 0xF3D6, offset: 0xF3D6, size: 0x8, addend: 0x0, symName: __ZN8CryptoPP11ProxyFilterD2Ev, symObjAddr: 0x44B8, symBinAddr: 0x10000829C, symSize: 0x50 }
  - { offsetInCU: 0xF3FE, offset: 0xF3FE, size: 0x8, addend: 0x0, symName: __ZN8CryptoPP23FilterWithBufferedInputD2Ev, symObjAddr: 0x4508, symBinAddr: 0x1000082EC, symSize: 0x50 }
  - { offsetInCU: 0xF427, offset: 0xF427, size: 0x8, addend: 0x0, symName: __ZN8CryptoPP23FilterWithBufferedInput10BlockQueueD1Ev, symObjAddr: 0x4558, symBinAddr: 0x10000833C, symSize: 0x2C }
  - { offsetInCU: 0xF453, offset: 0xF453, size: 0x8, addend: 0x0, symName: __ZN8CryptoPP23FilterWithBufferedInput10BlockQueueD2Ev, symObjAddr: 0x4584, symBinAddr: 0x100008368, symSize: 0x2C }
  - { offsetInCU: 0xF47F, offset: 0xF47F, size: 0x8, addend: 0x0, symName: __ZN8CryptoPP10HexEncoderD2Ev, symObjAddr: 0x45B0, symBinAddr: 0x100008394, symSize: 0x2C }
  - { offsetInCU: 0xF4AA, offset: 0xF4AA, size: 0x8, addend: 0x0, symName: __ZThn8_N8CryptoPP10HexEncoderD1Ev, symObjAddr: 0x45DC, symBinAddr: 0x1000083C0, symSize: 0x1C }
  - { offsetInCU: 0xF4C0, offset: 0xF4C0, size: 0x8, addend: 0x0, symName: __ZNSt3__114basic_ifstreamIcNS_11char_traitsIcEEED2Ev, symObjAddr: 0x45F8, symBinAddr: 0x1000083DC, symSize: 0x64 }
  - { offsetInCU: 0xF4F8, offset: 0xF4F8, size: 0x8, addend: 0x0, symName: __ZTv0_n24_NSt3__114basic_ifstreamIcNS_11char_traitsIcEEED1Ev, symObjAddr: 0x465C, symBinAddr: 0x100008440, symSize: 0x28 }
  - { offsetInCU: 0xF50E, offset: 0xF50E, size: 0x8, addend: 0x0, symName: __ZNSt3__112basic_stringIcNS_11char_traitsIcEENS_9allocatorIcEEEC2B7v160006Ev, symObjAddr: 0x4684, symBinAddr: 0x100008468, symSize: 0x54 }
  - { offsetInCU: 0xF53B, offset: 0xF53B, size: 0x8, addend: 0x0, symName: __ZNSt3__117__compressed_pairINS_12basic_stringIcNS_11char_traitsIcEENS_9allocatorIcEEE5__repES5_EC1B7v160006INS_18__default_init_tagESA_EEOT_OT0_, symObjAddr: 0x46D8, symBinAddr: 0x1000084BC, symSize: 0x3C }
  - { offsetInCU: 0xF592, offset: 0xF592, size: 0x8, addend: 0x0, symName: __ZNSt3__112basic_stringIcNS_11char_traitsIcEENS_9allocatorIcEEE14__default_initB7v160006Ev, symObjAddr: 0x4724, symBinAddr: 0x100008508, symSize: 0x40 }
  - { offsetInCU: 0xF5B6, offset: 0xF5B6, size: 0x8, addend: 0x0, symName: __ZNSt3__117__compressed_pairINS_12basic_stringIcNS_11char_traitsIcEENS_9allocatorIcEEE5__repES5_EC2B7v160006INS_18__default_init_tagESA_EEOT_OT0_, symObjAddr: 0x4764, symBinAddr: 0x100008548, symSize: 0x3C }
  - { offsetInCU: 0xF60D, offset: 0xF60D, size: 0x8, addend: 0x0, symName: __ZNSt3__122__compressed_pair_elemINS_12basic_stringIcNS_11char_traitsIcEENS_9allocatorIcEEE5__repELi0ELb0EEC2B7v160006ENS_18__default_init_tagE, symObjAddr: 0x47A0, symBinAddr: 0x100008584, symSize: 0x14 }
  - { offsetInCU: 0xF640, offset: 0xF640, size: 0x8, addend: 0x0, symName: __ZNSt3__122__compressed_pair_elemINS_9allocatorIcEELi1ELb1EEC2B7v160006ENS_18__default_init_tagE, symObjAddr: 0x47B4, symBinAddr: 0x100008598, symSize: 0x2C }
  - { offsetInCU: 0xF673, offset: 0xF673, size: 0x8, addend: 0x0, symName: __ZNSt3__19allocatorIcEC2B7v160006Ev, symObjAddr: 0x47E0, symBinAddr: 0x1000085C4, symSize: 0x2C }
  - { offsetInCU: 0xF69C, offset: 0xF69C, size: 0x8, addend: 0x0, symName: __ZNSt3__116__non_trivial_ifILb1ENS_9allocatorIcEEEC2B7v160006Ev, symObjAddr: 0x480C, symBinAddr: 0x1000085F0, symSize: 0x14 }
  - { offsetInCU: 0xF6C5, offset: 0xF6C5, size: 0x8, addend: 0x0, symName: __ZNSt3__117__compressed_pairINS_12basic_stringIcNS_11char_traitsIcEENS_9allocatorIcEEE5__repES5_E5firstB7v160006Ev, symObjAddr: 0x4820, symBinAddr: 0x100008604, symSize: 0x24 }
  - { offsetInCU: 0xF6EA, offset: 0xF6EA, size: 0x8, addend: 0x0, symName: __ZNSt3__122__compressed_pair_elemINS_12basic_stringIcNS_11char_traitsIcEENS_9allocatorIcEEE5__repELi0ELb0EE5__getB7v160006Ev, symObjAddr: 0x4844, symBinAddr: 0x100008628, symSize: 0x14 }
  - { offsetInCU: 0xF70E, offset: 0xF70E, size: 0x8, addend: 0x0, symName: __ZNSt3__112basic_stringIcNS_11char_traitsIcEENS_9allocatorIcEEEC2B7v160006IDnEEPKc, symObjAddr: 0x4858, symBinAddr: 0x10000863C, symSize: 0x60 }
  - { offsetInCU: 0xF74B, offset: 0xF74B, size: 0x8, addend: 0x0, symName: __ZNSt3__111char_traitsIcE6lengthEPKc, symObjAddr: 0x48B8, symBinAddr: 0x10000869C, symSize: 0x34 }
  - { offsetInCU: 0xF76D, offset: 0xF76D, size: 0x8, addend: 0x0, symName: __ZNSt3__19basic_iosIcNS_11char_traitsIcEEEC2B7v160006Ev, symObjAddr: 0x4910, symBinAddr: 0x1000086F4, symSize: 0x44 }
  - { offsetInCU: 0xF795, offset: 0xF795, size: 0x8, addend: 0x0, symName: __ZNSt3__113basic_istreamIcNS_11char_traitsIcEEEC2B7v160006EPNS_15basic_streambufIcS2_EE, symObjAddr: 0x4954, symBinAddr: 0x100008738, symSize: 0x64 }
  - { offsetInCU: 0xF7D8, offset: 0xF7D8, size: 0x8, addend: 0x0, symName: __ZNSt3__113basic_filebufIcNS_11char_traitsIcEEE4openERKNS_12basic_stringIcS2_NS_9allocatorIcEEEEj, symObjAddr: 0x49B8, symBinAddr: 0x10000879C, symSize: 0x44 }
  - { offsetInCU: 0xF81B, offset: 0xF81B, size: 0x8, addend: 0x0, symName: __ZNSt3__19basic_iosIcNS_11char_traitsIcEEE8setstateB7v160006Ej, symObjAddr: 0x49FC, symBinAddr: 0x1000087E0, symSize: 0x2C }
  - { offsetInCU: 0xF84F, offset: 0xF84F, size: 0x8, addend: 0x0, symName: __ZNSt3__18ios_baseC2B7v160006Ev, symObjAddr: 0x4A28, symBinAddr: 0x10000880C, symSize: 0x24 }
  - { offsetInCU: 0xF878, offset: 0xF878, size: 0x8, addend: 0x0, symName: __ZNSt3__19basic_iosIcNS_11char_traitsIcEEE4initB7v160006EPNS_15basic_streambufIcS2_EE, symObjAddr: 0x4A4C, symBinAddr: 0x100008830, symSize: 0x44 }
  - { offsetInCU: 0xF8AE, offset: 0xF8AE, size: 0x8, addend: 0x0, symName: __ZNSt3__111char_traitsIcE3eofEv, symObjAddr: 0x4A90, symBinAddr: 0x100008874, symSize: 0x8 }
  - { offsetInCU: 0xF8C2, offset: 0xF8C2, size: 0x8, addend: 0x0, symName: __ZNSt3__18ios_base8setstateB7v160006Ej, symObjAddr: 0x4A98, symBinAddr: 0x10000887C, symSize: 0x34 }
  - { offsetInCU: 0xF8F8, offset: 0xF8F8, size: 0x8, addend: 0x0, symName: __ZNKSt3__19basic_iosIcNS_11char_traitsIcEEE4failB7v160006Ev, symObjAddr: 0x4ACC, symBinAddr: 0x1000088B0, symSize: 0x28 }
  - { offsetInCU: 0xF91D, offset: 0xF91D, size: 0x8, addend: 0x0, symName: __ZNKSt3__18ios_base4failB7v160006Ev, symObjAddr: 0x4AF4, symBinAddr: 0x1000088D8, symSize: 0x28 }
  - { offsetInCU: 0xF962, offset: 0xF962, size: 0x8, addend: 0x0, symName: __ZNKSt3__113basic_ostreamIcNS_11char_traitsIcEEE6sentrycvbB7v160006Ev, symObjAddr: 0x4D08, symBinAddr: 0x100008AEC, symSize: 0x1C }
  - { offsetInCU: 0xF986, offset: 0xF986, size: 0x8, addend: 0x0, symName: __ZNSt3__119ostreambuf_iteratorIcNS_11char_traitsIcEEEC1B7v160006ERNS_13basic_ostreamIcS2_EE, symObjAddr: 0x4F64, symBinAddr: 0x100008D48, symSize: 0x34 }
  - { offsetInCU: 0xF9BD, offset: 0xF9BD, size: 0x8, addend: 0x0, symName: __ZNKSt3__18ios_base5flagsB7v160006Ev, symObjAddr: 0x4F98, symBinAddr: 0x100008D7C, symSize: 0x18 }
  - { offsetInCU: 0xF9E4, offset: 0xF9E4, size: 0x8, addend: 0x0, symName: __ZNKSt3__19basic_iosIcNS_11char_traitsIcEEE4fillB7v160006Ev, symObjAddr: 0x4FB0, symBinAddr: 0x100008D94, symSize: 0x64 }
  - { offsetInCU: 0xFA0B, offset: 0xFA0B, size: 0x8, addend: 0x0, symName: __ZNKSt3__119ostreambuf_iteratorIcNS_11char_traitsIcEEE6failedB7v160006Ev, symObjAddr: 0x5014, symBinAddr: 0x100008DF8, symSize: 0x24 }
  - { offsetInCU: 0xFA30, offset: 0xFA30, size: 0x8, addend: 0x0, symName: __ZNKSt3__18ios_base5widthB7v160006Ev, symObjAddr: 0x5038, symBinAddr: 0x100008E1C, symSize: 0x18 }
  - { offsetInCU: 0xFA57, offset: 0xFA57, size: 0x8, addend: 0x0, symName: __ZNSt3__115basic_streambufIcNS_11char_traitsIcEEE5sputnB7v160006EPKcl, symObjAddr: 0x5050, symBinAddr: 0x100008E34, symSize: 0x3C }
  - { offsetInCU: 0xFA97, offset: 0xFA97, size: 0x8, addend: 0x0, symName: __ZNSt3__112basic_stringIcNS_11char_traitsIcEENS_9allocatorIcEEEC1B7v160006Emc, symObjAddr: 0x508C, symBinAddr: 0x100008E70, symSize: 0x3C }
  - { offsetInCU: 0xFADE, offset: 0xFADE, size: 0x8, addend: 0x0, symName: __ZNSt3__18ios_base5widthB7v160006El, symObjAddr: 0x50C8, symBinAddr: 0x100008EAC, symSize: 0x2C }
  - { offsetInCU: 0xFB22, offset: 0xFB22, size: 0x8, addend: 0x0, symName: __ZNSt3__112basic_stringIcNS_11char_traitsIcEENS_9allocatorIcEEEC2B7v160006Emc, symObjAddr: 0x50F4, symBinAddr: 0x100008ED8, symSize: 0x54 }
  - { offsetInCU: 0xFB68, offset: 0xFB68, size: 0x8, addend: 0x0, symName: __ZNSt3__119ostreambuf_iteratorIcNS_11char_traitsIcEEEC2B7v160006ERNS_13basic_ostreamIcS2_EE, symObjAddr: 0x5148, symBinAddr: 0x100008F2C, symSize: 0x54 }
  - { offsetInCU: 0xFB9F, offset: 0xFB9F, size: 0x8, addend: 0x0, symName: __ZNKSt3__19basic_iosIcNS_11char_traitsIcEEE5rdbufB7v160006Ev, symObjAddr: 0x519C, symBinAddr: 0x100008F80, symSize: 0x24 }
  - { offsetInCU: 0xFBC6, offset: 0xFBC6, size: 0x8, addend: 0x0, symName: __ZNKSt3__18ios_base5rdbufB7v160006Ev, symObjAddr: 0x51C0, symBinAddr: 0x100008FA4, symSize: 0x18 }
  - { offsetInCU: 0xFBEB, offset: 0xFBEB, size: 0x8, addend: 0x0, symName: __ZNSt3__111char_traitsIcE11eq_int_typeEii, symObjAddr: 0x51D8, symBinAddr: 0x100008FBC, symSize: 0x28 }
  - { offsetInCU: 0xFC1C, offset: 0xFC1C, size: 0x8, addend: 0x0, symName: __ZNKSt3__19basic_iosIcNS_11char_traitsIcEEE5widenB7v160006Ec, symObjAddr: 0x5200, symBinAddr: 0x100008FE4, symSize: 0x84 }
  - { offsetInCU: 0xFC89, offset: 0xFC89, size: 0x8, addend: 0x0, symName: __ZNKSt3__15ctypeIcE5widenB7v160006Ec, symObjAddr: 0x52B0, symBinAddr: 0x100009094, symSize: 0x38 }
  - { offsetInCU: 0xFCBD, offset: 0xFCBD, size: 0x8, addend: 0x0, symName: __ZNSt3__111char_traitsIcE7compareEPKcS3_m, symObjAddr: 0x52E8, symBinAddr: 0x1000090CC, symSize: 0x6C }
  - { offsetInCU: 0x39, offset: 0xFEAB, size: 0x8, addend: 0x0, symName: __ZN8CryptoPP12TheBitBucketEv, symObjAddr: 0x0, symBinAddr: 0x10000916C, symSize: 0x74 }
  - { offsetInCU: 0x59, offset: 0xFECB, size: 0x8, addend: 0x0, symName: __MergedGlobals, symObjAddr: 0x80F98, symBinAddr: 0x100118258, symSize: 0x0 }
  - { offsetInCU: 0x1028, offset: 0x10E9A, size: 0x8, addend: 0x0, symName: __ZN8CryptoPP7NullRNGEv, symObjAddr: 0x25DC, symBinAddr: 0x10000B4F0, symSize: 0x90 }
  - { offsetInCU: 0x1054, offset: 0x10EC6, size: 0x8, addend: 0x0, symName: __MergedGlobals, symObjAddr: 0x80F98, symBinAddr: 0x100118258, symSize: 0x0 }
  - { offsetInCU: 0x12C1, offset: 0x11133, size: 0x8, addend: 0x0, symName: __ZN8CryptoPP15DEFAULT_CHANNELE, symObjAddr: 0x80F58, symBinAddr: 0x100118208, symSize: 0x0 }
  - { offsetInCU: 0x12DC, offset: 0x1114E, size: 0x8, addend: 0x0, symName: __ZN8CryptoPP11AAD_CHANNELE, symObjAddr: 0x80F70, symBinAddr: 0x100118220, symSize: 0x0 }
  - { offsetInCU: 0x12F7, offset: 0x11169, size: 0x8, addend: 0x0, symName: __ZN8CryptoPPL21s_pNullNameValuePairsE, symObjAddr: 0x80F90, symBinAddr: 0x100118250, symSize: 0x0 }
  - { offsetInCU: 0x13BF, offset: 0x11231, size: 0x8, addend: 0x0, symName: __ZN8CryptoPP20g_nullNameValuePairsE, symObjAddr: 0x80F88, symBinAddr: 0x100118238, symSize: 0x0 }
  - { offsetInCU: 0x2C98, offset: 0x12B0A, size: 0x8, addend: 0x0, symName: __ZN8CryptoPP11IntToStringIiEENSt3__112basic_stringIcNS1_11char_traitsIcEENS1_9allocatorIcEEEET_j, symObjAddr: 0x1018, symBinAddr: 0x100009FDC, symSize: 0x228 }
  - { offsetInCU: 0x386F, offset: 0x136E1, size: 0x8, addend: 0x0, symName: __ZN8CryptoPP11IntToStringIjEENSt3__112basic_stringIcNS1_11char_traitsIcEENS1_9allocatorIcEEEET_j, symObjAddr: 0x1240, symBinAddr: 0x10000A204, symSize: 0x1D4 }
  - { offsetInCU: 0x91A0, offset: 0x19012, size: 0x8, addend: 0x0, symName: __ZNSt3__1plB7v160006IcNS_11char_traitsIcEENS_9allocatorIcEEEENS_12basic_stringIT_T0_T1_EERKS9_PKS6_, symObjAddr: 0x89C, symBinAddr: 0x100009914, symSize: 0xDC }
  - { offsetInCU: 0x98DC, offset: 0x1974E, size: 0x8, addend: 0x0, symName: __ZNSt3__1plB7v160006IcNS_11char_traitsIcEENS_9allocatorIcEEEENS_12basic_stringIT_T0_T1_EERKS9_SB_, symObjAddr: 0xF24, symBinAddr: 0x100009EE8, symSize: 0xF4 }
  - { offsetInCU: 0x9FA7, offset: 0x19E19, size: 0x8, addend: 0x0, symName: __ZN8CryptoPP11IntToStringIiEENSt3__112basic_stringIcNS1_11char_traitsIcEENS1_9allocatorIcEEEET_j, symObjAddr: 0x1018, symBinAddr: 0x100009FDC, symSize: 0x228 }
  - { offsetInCU: 0xA174, offset: 0x19FE6, size: 0x8, addend: 0x0, symName: __ZNSt3__120__throw_length_errorB7v160006EPKc, symObjAddr: 0x72C4, symBinAddr: 0x10000F8AC, symSize: 0x50 }
  - { offsetInCU: 0xC58C, offset: 0x1C3FE, size: 0x8, addend: 0x0, symName: __ZN8CryptoPP9BitBucketD1Ev, symObjAddr: 0x74, symBinAddr: 0x1000091E0, symSize: 0x4 }
  - { offsetInCU: 0xC60F, offset: 0x1C481, size: 0x8, addend: 0x0, symName: __ZN8CryptoPP9AlgorithmC2Eb, symObjAddr: 0x78, symBinAddr: 0x1000091E4, symSize: 0x144 }
  - { offsetInCU: 0xC9E7, offset: 0x1C859, size: 0x8, addend: 0x0, symName: __ZN8CryptoPP15SelfTestFailureC1ERKNSt3__112basic_stringIcNS1_11char_traitsIcEENS1_9allocatorIcEEEE, symObjAddr: 0x258, symBinAddr: 0x100009328, symSize: 0x64 }
  - { offsetInCU: 0xC9F9, offset: 0x1C86B, size: 0x8, addend: 0x0, symName: __ZN8CryptoPP15SelfTestFailureC1ERKNSt3__112basic_stringIcNS1_11char_traitsIcEENS1_9allocatorIcEEEE, symObjAddr: 0x258, symBinAddr: 0x100009328, symSize: 0x64 }
  - { offsetInCU: 0xCCE4, offset: 0x1CB56, size: 0x8, addend: 0x0, symName: __ZNKSt3__112basic_stringIcNS_11char_traitsIcEENS_9allocatorIcEEE20__throw_length_errorB7v160006Ev, symObjAddr: 0x72B0, symBinAddr: 0x10000F898, symSize: 0x14 }
  - { offsetInCU: 0xCD0D, offset: 0x1CB7F, size: 0x8, addend: 0x0, symName: __ZNSt3__120__throw_length_errorB7v160006EPKc, symObjAddr: 0x72C4, symBinAddr: 0x10000F8AC, symSize: 0x50 }
  - { offsetInCU: 0xCE24, offset: 0x1CC96, size: 0x8, addend: 0x0, symName: __ZN8CryptoPP15SelfTestFailureD1Ev, symObjAddr: 0x2BC, symBinAddr: 0x10000938C, symSize: 0x50 }
  - { offsetInCU: 0xCFBD, offset: 0x1CE2F, size: 0x8, addend: 0x0, symName: __ZN8CryptoPP9AlgorithmC1Eb, symObjAddr: 0x318, symBinAddr: 0x1000093DC, symSize: 0x4 }
  - { offsetInCU: 0xCFFC, offset: 0x1CE6E, size: 0x8, addend: 0x0, symName: __ZN8CryptoPP9AlgorithmC1Eb, symObjAddr: 0x318, symBinAddr: 0x1000093DC, symSize: 0x4 }
  - { offsetInCU: 0xD018, offset: 0x1CE8A, size: 0x8, addend: 0x0, symName: __ZN8CryptoPP21SimpleKeyingInterface6SetKeyEPKhmRKNS_14NameValuePairsE, symObjAddr: 0x31C, symBinAddr: 0x1000093E0, symSize: 0x50 }
  - { offsetInCU: 0xD0B9, offset: 0x1CF2B, size: 0x8, addend: 0x0, symName: __ZN8CryptoPP21SimpleKeyingInterface23ThrowIfInvalidKeyLengthEm, symObjAddr: 0x36C, symBinAddr: 0x100009430, symSize: 0xDC }
  - { offsetInCU: 0xD310, offset: 0x1D182, size: 0x8, addend: 0x0, symName: __ZN8CryptoPP16InvalidKeyLengthC2ERKNSt3__112basic_stringIcNS1_11char_traitsIcEENS1_9allocatorIcEEEEm, symObjAddr: 0x5828, symBinAddr: 0x10000E144, symSize: 0x378 }
  - { offsetInCU: 0xF2B6, offset: 0x1F128, size: 0x8, addend: 0x0, symName: __ZN8CryptoPP21SimpleKeyingInterface16SetKeyWithRoundsEPKhmi, symObjAddr: 0x448, symBinAddr: 0x10000950C, symSize: 0x140 }
  - { offsetInCU: 0xF84E, offset: 0x1F6C0, size: 0x8, addend: 0x0, symName: __ZN8CryptoPP21SimpleKeyingInterface12SetKeyWithIVEPKhmS2_m, symObjAddr: 0x588, symBinAddr: 0x10000964C, symSize: 0x168 }
  - { offsetInCU: 0x10046, offset: 0x1FEB8, size: 0x8, addend: 0x0, symName: __ZN8CryptoPP16InvalidKeyLengthD1Ev, symObjAddr: 0x73C, symBinAddr: 0x1000097B4, symSize: 0x50 }
  - { offsetInCU: 0x1021A, offset: 0x2008C, size: 0x8, addend: 0x0, symName: __ZN8CryptoPP21SimpleKeyingInterface23ThrowIfResynchronizableEv, symObjAddr: 0x78C, symBinAddr: 0x100009804, symSize: 0x110 }
  - { offsetInCU: 0x106CD, offset: 0x2053F, size: 0x8, addend: 0x0, symName: __ZN8CryptoPP21SimpleKeyingInterface16ThrowIfInvalidIVEPKh, symObjAddr: 0xA2C, symBinAddr: 0x1000099F0, symSize: 0x114 }
  - { offsetInCU: 0x109D3, offset: 0x20845, size: 0x8, addend: 0x0, symName: __ZN8CryptoPP21SimpleKeyingInterface22ThrowIfInvalidIVLengthEi, symObjAddr: 0xB40, symBinAddr: 0x100009B04, symSize: 0x3E4 }
  - { offsetInCU: 0x1135B, offset: 0x211CD, size: 0x8, addend: 0x0, symName: __ZN8CryptoPP21SimpleKeyingInterface22GetIVAndThrowIfInvalidERKNS_14NameValuePairsERm, symObjAddr: 0x1414, symBinAddr: 0x10000A3D8, symSize: 0x184 }
  - { offsetInCU: 0x1174F, offset: 0x215C1, size: 0x8, addend: 0x0, symName: __ZN8CryptoPP21SimpleKeyingInterface9GetNextIVERNS_21RandomNumberGeneratorEPh, symObjAddr: 0x1598, symBinAddr: 0x10000A55C, symSize: 0x40 }
  - { offsetInCU: 0x117F0, offset: 0x21662, size: 0x8, addend: 0x0, symName: __ZNK8CryptoPP19BlockTransformation21AdvancedProcessBlocksEPKhS2_Phmj, symObjAddr: 0x15D8, symBinAddr: 0x10000A59C, symSize: 0x1E8 }
  - { offsetInCU: 0x11ABC, offset: 0x2192E, size: 0x8, addend: 0x0, symName: __ZNK8CryptoPP19BlockTransformation20OptimalDataAlignmentEv, symObjAddr: 0x17C0, symBinAddr: 0x10000A784, symSize: 0x8 }
  - { offsetInCU: 0x11AF5, offset: 0x21967, size: 0x8, addend: 0x0, symName: __ZNK8CryptoPP20StreamTransformation20OptimalDataAlignmentEv, symObjAddr: 0x17C8, symBinAddr: 0x10000A78C, symSize: 0x8 }
  - { offsetInCU: 0x11B1A, offset: 0x2198C, size: 0x8, addend: 0x0, symName: __ZNK8CryptoPP18HashTransformation20OptimalDataAlignmentEv, symObjAddr: 0x17D0, symBinAddr: 0x10000A794, symSize: 0x8 }
  - { offsetInCU: 0x11B3F, offset: 0x219B1, size: 0x8, addend: 0x0, symName: __ZN8CryptoPP20StreamTransformation16ProcessLastBlockEPhmPKhm, symObjAddr: 0x17D8, symBinAddr: 0x10000A79C, symSize: 0x14C }
  - { offsetInCU: 0x11F39, offset: 0x21DAB, size: 0x8, addend: 0x0, symName: __ZN8CryptoPP28AuthenticatedSymmetricCipher18SpecifyDataLengthsEmmm, symObjAddr: 0x19D4, symBinAddr: 0x10000A8E8, symSize: 0x540 }
  - { offsetInCU: 0x12B09, offset: 0x2297B, size: 0x8, addend: 0x0, symName: __ZN8CryptoPP28AuthenticatedSymmetricCipher22EncryptAndAuthenticateEPhS1_mPKhiS3_mS3_m, symObjAddr: 0x1F14, symBinAddr: 0x10000AE28, symSize: 0xC8 }
  - { offsetInCU: 0x12CB2, offset: 0x22B24, size: 0x8, addend: 0x0, symName: __ZN8CryptoPP28AuthenticatedSymmetricCipher16DecryptAndVerifyEPhPKhmS3_iS3_mS3_m, symObjAddr: 0x1FDC, symBinAddr: 0x10000AEF0, symSize: 0xC8 }
  - { offsetInCU: 0x12E66, offset: 0x22CD8, size: 0x8, addend: 0x0, symName: __ZNK8CryptoPP28AuthenticatedSymmetricCipher13AlgorithmNameEv, symObjAddr: 0x20A4, symBinAddr: 0x10000AFB8, symSize: 0x28 }
  - { offsetInCU: 0x1308F, offset: 0x22F01, size: 0x8, addend: 0x0, symName: __ZThn8_NK8CryptoPP28AuthenticatedSymmetricCipher13AlgorithmNameEv, symObjAddr: 0x20CC, symBinAddr: 0x10000AFE0, symSize: 0x28 }
  - { offsetInCU: 0x132A8, offset: 0x2311A, size: 0x8, addend: 0x0, symName: __ZThn16_NK8CryptoPP28AuthenticatedSymmetricCipher13AlgorithmNameEv, symObjAddr: 0x20F4, symBinAddr: 0x10000B008, symSize: 0x28 }
  - { offsetInCU: 0x134C1, offset: 0x23333, size: 0x8, addend: 0x0, symName: __ZN8CryptoPP21RandomNumberGenerator11GenerateBitEv, symObjAddr: 0x211C, symBinAddr: 0x10000B030, symSize: 0x20 }
  - { offsetInCU: 0x13500, offset: 0x23372, size: 0x8, addend: 0x0, symName: __ZN8CryptoPP21RandomNumberGenerator12GenerateByteEv, symObjAddr: 0x213C, symBinAddr: 0x10000B050, symSize: 0x30 }
  - { offsetInCU: 0x13567, offset: 0x233D9, size: 0x8, addend: 0x0, symName: __ZN8CryptoPP21RandomNumberGenerator14GenerateWord32Ejj, symObjAddr: 0x216C, symBinAddr: 0x10000B080, symSize: 0xB0 }
  - { offsetInCU: 0x136DC, offset: 0x2354E, size: 0x8, addend: 0x0, symName: __ZN8CryptoPP21RandomNumberGenerator13GenerateBlockEPhm, symObjAddr: 0x221C, symBinAddr: 0x10000B130, symSize: 0x7C }
  - { offsetInCU: 0x137BD, offset: 0x2362F, size: 0x8, addend: 0x0, symName: __ZN8CryptoPP21RandomNumberGenerator12DiscardBytesEm, symObjAddr: 0x2298, symBinAddr: 0x10000B1AC, symSize: 0x9C }
  - { offsetInCU: 0x139F2, offset: 0x23864, size: 0x8, addend: 0x0, symName: __ZN8CryptoPP21RandomNumberGenerator34GenerateIntoBufferedTransformationERNS_22BufferedTransformationERKNSt3__112basic_stringIcNS3_11char_traitsIcEENS3_9allocatorIcEEEEm, symObjAddr: 0x2334, symBinAddr: 0x10000B248, symSize: 0x168 }
  - { offsetInCU: 0x13E07, offset: 0x23C79, size: 0x8, addend: 0x0, symName: __ZNK8CryptoPP21KeyDerivationFunction19MinDerivedKeyLengthEv, symObjAddr: 0x249C, symBinAddr: 0x10000B3B0, symSize: 0x8 }
  - { offsetInCU: 0x13E2D, offset: 0x23C9F, size: 0x8, addend: 0x0, symName: __ZNK8CryptoPP21KeyDerivationFunction19MaxDerivedKeyLengthEv, symObjAddr: 0x24A4, symBinAddr: 0x10000B3B8, symSize: 0x8 }
  - { offsetInCU: 0x13E8F, offset: 0x23D01, size: 0x8, addend: 0x0, symName: __ZNK8CryptoPP21KeyDerivationFunction30ThrowIfInvalidDerivedKeyLengthEm, symObjAddr: 0x24AC, symBinAddr: 0x10000B3C0, symSize: 0xDC }
  - { offsetInCU: 0x140AE, offset: 0x23F20, size: 0x8, addend: 0x0, symName: __ZN8CryptoPP23InvalidDerivedKeyLengthC2ERKNSt3__112basic_stringIcNS1_11char_traitsIcEENS1_9allocatorIcEEEEm, symObjAddr: 0x5CA8, symBinAddr: 0x10000E514, symSize: 0x378 }
  - { offsetInCU: 0x15E71, offset: 0x25CE3, size: 0x8, addend: 0x0, symName: __ZN8CryptoPP23InvalidDerivedKeyLengthD1Ev, symObjAddr: 0x2588, symBinAddr: 0x10000B49C, symSize: 0x50 }
  - { offsetInCU: 0x1602A, offset: 0x25E9C, size: 0x8, addend: 0x0, symName: __ZN8CryptoPP21KeyDerivationFunction13SetParametersERKNS_14NameValuePairsE, symObjAddr: 0x25D8, symBinAddr: 0x10000B4EC, symSize: 0x4 }
  - { offsetInCU: 0x160BE, offset: 0x25F30, size: 0x8, addend: 0x0, symName: __ZN8CryptoPP12ClassNullRNGD1Ev, symObjAddr: 0x266C, symBinAddr: 0x10000B580, symSize: 0x4 }
  - { offsetInCU: 0x16117, offset: 0x25F89, size: 0x8, addend: 0x0, symName: __ZN8CryptoPP18HashTransformation15TruncatedVerifyEPKhm, symObjAddr: 0x2670, symBinAddr: 0x10000B584, symSize: 0xC8 }
  - { offsetInCU: 0x1633B, offset: 0x261AD, size: 0x8, addend: 0x0, symName: __ZNK8CryptoPP18HashTransformation27ThrowIfInvalidTruncatedSizeEm, symObjAddr: 0x2738, symBinAddr: 0x10000B64C, symSize: 0x218 }
  - { offsetInCU: 0x16C1E, offset: 0x26A90, size: 0x8, addend: 0x0, symName: __ZNK8CryptoPP22BufferedTransformation21GetMaxWaitObjectCountEv, symObjAddr: 0x299C, symBinAddr: 0x10000B864, symSize: 0x30 }
  - { offsetInCU: 0x16C92, offset: 0x26B04, size: 0x8, addend: 0x0, symName: __ZThn8_NK8CryptoPP22BufferedTransformation21GetMaxWaitObjectCountEv, symObjAddr: 0x29CC, symBinAddr: 0x10000B894, symSize: 0x30 }
  - { offsetInCU: 0x16CEB, offset: 0x26B5D, size: 0x8, addend: 0x0, symName: __ZN8CryptoPP22BufferedTransformation14GetWaitObjectsERNS_19WaitObjectContainerERKNS_9CallStackE, symObjAddr: 0x29FC, symBinAddr: 0x10000B8C4, symSize: 0x4C }
  - { offsetInCU: 0x16D9C, offset: 0x26C0E, size: 0x8, addend: 0x0, symName: __ZThn8_N8CryptoPP22BufferedTransformation14GetWaitObjectsERNS_19WaitObjectContainerERKNS_9CallStackE, symObjAddr: 0x2A48, symBinAddr: 0x10000B910, symSize: 0x4C }
  - { offsetInCU: 0x16E04, offset: 0x26C76, size: 0x8, addend: 0x0, symName: __ZN8CryptoPP22BufferedTransformation10InitializeERKNS_14NameValuePairsEi, symObjAddr: 0x2A94, symBinAddr: 0x10000B95C, symSize: 0xC }
  - { offsetInCU: 0x16E63, offset: 0x26CD5, size: 0x8, addend: 0x0, symName: __ZN8CryptoPP22BufferedTransformation5FlushEbib, symObjAddr: 0x2AA0, symBinAddr: 0x10000B968, symSize: 0x10 }
  - { offsetInCU: 0x16EE0, offset: 0x26D52, size: 0x8, addend: 0x0, symName: __ZN8CryptoPP22BufferedTransformation16MessageSeriesEndEib, symObjAddr: 0x2AB0, symBinAddr: 0x10000B978, symSize: 0x10 }
  - { offsetInCU: 0x16F84, offset: 0x26DF6, size: 0x8, addend: 0x0, symName: __ZN8CryptoPP22BufferedTransformation21ChannelCreatePutSpaceERKNSt3__112basic_stringIcNS1_11char_traitsIcEENS1_9allocatorIcEEEERm, symObjAddr: 0x2AC0, symBinAddr: 0x10000B988, symSize: 0xDC }
  - { offsetInCU: 0x171F7, offset: 0x27069, size: 0x8, addend: 0x0, symName: __ZN8CryptoPP22BufferedTransformation16NoChannelSupportC2ERKNSt3__112basic_stringIcNS2_11char_traitsIcEENS2_9allocatorIcEEEE, symObjAddr: 0x61AC, symBinAddr: 0x10000EA18, symSize: 0x148 }
  - { offsetInCU: 0x17B8A, offset: 0x279FC, size: 0x8, addend: 0x0, symName: __ZN8CryptoPP22BufferedTransformation16NoChannelSupportD1Ev, symObjAddr: 0x2B9C, symBinAddr: 0x10000BA64, symSize: 0x50 }
  - { offsetInCU: 0x17D45, offset: 0x27BB7, size: 0x8, addend: 0x0, symName: __ZN8CryptoPP22BufferedTransformation11ChannelPut2ERKNSt3__112basic_stringIcNS1_11char_traitsIcEENS1_9allocatorIcEEEEPKhmib, symObjAddr: 0x2BEC, symBinAddr: 0x10000BAB4, symSize: 0xE8 }
  - { offsetInCU: 0x17FEB, offset: 0x27E5D, size: 0x8, addend: 0x0, symName: __ZN8CryptoPP22BufferedTransformation21ChannelPutModifiable2ERKNSt3__112basic_stringIcNS1_11char_traitsIcEENS1_9allocatorIcEEEEPhmib, symObjAddr: 0x2CD4, symBinAddr: 0x10000BB9C, symSize: 0x3C }
  - { offsetInCU: 0x18079, offset: 0x27EEB, size: 0x8, addend: 0x0, symName: __ZN8CryptoPP22BufferedTransformation21ChannelPutModifiable2ERKNSt3__112basic_stringIcNS1_11char_traitsIcEENS1_9allocatorIcEEEEPhmib, symObjAddr: 0x2CD4, symBinAddr: 0x10000BB9C, symSize: 0x3C }
  - { offsetInCU: 0x18097, offset: 0x27F09, size: 0x8, addend: 0x0, symName: __ZN8CryptoPP22BufferedTransformation21ChannelPutModifiable2ERKNSt3__112basic_stringIcNS1_11char_traitsIcEENS1_9allocatorIcEEEEPhmib, symObjAddr: 0x2CD4, symBinAddr: 0x10000BB9C, symSize: 0x3C }
  - { offsetInCU: 0x180B5, offset: 0x27F27, size: 0x8, addend: 0x0, symName: __ZN8CryptoPP22BufferedTransformation21ChannelPutModifiable2ERKNSt3__112basic_stringIcNS1_11char_traitsIcEENS1_9allocatorIcEEEEPhmib, symObjAddr: 0x2CD4, symBinAddr: 0x10000BB9C, symSize: 0x3C }
  - { offsetInCU: 0x180EC, offset: 0x27F5E, size: 0x8, addend: 0x0, symName: __ZN8CryptoPP22BufferedTransformation12ChannelFlushERKNSt3__112basic_stringIcNS1_11char_traitsIcEENS1_9allocatorIcEEEEbib, symObjAddr: 0x2D10, symBinAddr: 0x10000BBD8, symSize: 0xE4 }
  - { offsetInCU: 0x18381, offset: 0x281F3, size: 0x8, addend: 0x0, symName: __ZN8CryptoPP22BufferedTransformation23ChannelMessageSeriesEndERKNSt3__112basic_stringIcNS1_11char_traitsIcEENS1_9allocatorIcEEEEib, symObjAddr: 0x2DF4, symBinAddr: 0x10000BCBC, symSize: 0xE0 }
  - { offsetInCU: 0x18699, offset: 0x2850B, size: 0x8, addend: 0x0, symName: __ZNK8CryptoPP22BufferedTransformation14MaxRetrievableEv, symObjAddr: 0x2ED4, symBinAddr: 0x10000BD9C, symSize: 0xD4 }
  - { offsetInCU: 0x18811, offset: 0x28683, size: 0x8, addend: 0x0, symName: __ZNK8CryptoPP22BufferedTransformation14AnyRetrievableEv, symObjAddr: 0x2FA8, symBinAddr: 0x10000BE70, symSize: 0x78 }
  - { offsetInCU: 0x188BC, offset: 0x2872E, size: 0x8, addend: 0x0, symName: __ZN8CryptoPP22BufferedTransformation3GetERh, symObjAddr: 0x3020, symBinAddr: 0x10000BEE8, symSize: 0x68 }
  - { offsetInCU: 0x189A0, offset: 0x28812, size: 0x8, addend: 0x0, symName: __ZN8CryptoPP22BufferedTransformation3GetEPhm, symObjAddr: 0x3088, symBinAddr: 0x10000BF50, symSize: 0x104 }
  - { offsetInCU: 0x18B26, offset: 0x28998, size: 0x8, addend: 0x0, symName: __ZNK8CryptoPP22BufferedTransformation4PeekERh, symObjAddr: 0x318C, symBinAddr: 0x10000C054, symSize: 0x68 }
  - { offsetInCU: 0x18BCD, offset: 0x28A3F, size: 0x8, addend: 0x0, symName: __ZNK8CryptoPP22BufferedTransformation4PeekEPhm, symObjAddr: 0x31F4, symBinAddr: 0x10000C0BC, symSize: 0x108 }
  - { offsetInCU: 0x18DA4, offset: 0x28C16, size: 0x8, addend: 0x0, symName: __ZN8CryptoPP22BufferedTransformation4SkipEm, symObjAddr: 0x32FC, symBinAddr: 0x10000C1C4, symSize: 0xE4 }
  - { offsetInCU: 0x18EDB, offset: 0x28D4D, size: 0x8, addend: 0x0, symName: __ZNK8CryptoPP22BufferedTransformation21TotalBytesRetrievableEv, symObjAddr: 0x33E0, symBinAddr: 0x10000C2A8, symSize: 0x58 }
  - { offsetInCU: 0x18FAC, offset: 0x28E1E, size: 0x8, addend: 0x0, symName: __ZNK8CryptoPP22BufferedTransformation16NumberOfMessagesEv, symObjAddr: 0x3438, symBinAddr: 0x10000C300, symSize: 0xE4 }
  - { offsetInCU: 0x190DE, offset: 0x28F50, size: 0x8, addend: 0x0, symName: __ZNK8CryptoPP22BufferedTransformation14CopyMessagesToERS0_jRKNSt3__112basic_stringIcNS2_11char_traitsIcEENS2_9allocatorIcEEEE, symObjAddr: 0x351C, symBinAddr: 0x10000C3E4, symSize: 0x54 }
  - { offsetInCU: 0x1915B, offset: 0x28FCD, size: 0x8, addend: 0x0, symName: __ZNK8CryptoPP22BufferedTransformation11AnyMessagesEv, symObjAddr: 0x3570, symBinAddr: 0x10000C438, symSize: 0x64 }
  - { offsetInCU: 0x191DF, offset: 0x29051, size: 0x8, addend: 0x0, symName: __ZN8CryptoPP22BufferedTransformation14GetNextMessageEv, symObjAddr: 0x35D4, symBinAddr: 0x10000C49C, symSize: 0x50 }
  - { offsetInCU: 0x1928C, offset: 0x290FE, size: 0x8, addend: 0x0, symName: __ZN8CryptoPP22BufferedTransformation12SkipMessagesEj, symObjAddr: 0x3624, symBinAddr: 0x10000C4EC, symSize: 0xDC }
  - { offsetInCU: 0x193C5, offset: 0x29237, size: 0x8, addend: 0x0, symName: __ZN8CryptoPP22BufferedTransformation19TransferMessagesTo2ERS0_RjRKNSt3__112basic_stringIcNS3_11char_traitsIcEENS3_9allocatorIcEEEEb, symObjAddr: 0x3700, symBinAddr: 0x10000C5C8, symSize: 0x15C }
  - { offsetInCU: 0x19603, offset: 0x29475, size: 0x8, addend: 0x0, symName: __ZN8CryptoPP22BufferedTransformation7SkipAllEv, symObjAddr: 0x385C, symBinAddr: 0x10000C724, symSize: 0x80 }
  - { offsetInCU: 0x1968A, offset: 0x294FC, size: 0x8, addend: 0x0, symName: __ZN8CryptoPP22BufferedTransformation14TransferAllTo2ERS0_RKNSt3__112basic_stringIcNS2_11char_traitsIcEENS2_9allocatorIcEEEEb, symObjAddr: 0x38DC, symBinAddr: 0x10000C7A4, symSize: 0xD8 }
  - { offsetInCU: 0x197E6, offset: 0x29658, size: 0x8, addend: 0x0, symName: __ZNK8CryptoPP22BufferedTransformation9CopyAllToERS0_RKNSt3__112basic_stringIcNS2_11char_traitsIcEENS2_9allocatorIcEEEE, symObjAddr: 0x39B4, symBinAddr: 0x10000C87C, symSize: 0x88 }
  - { offsetInCU: 0x198D1, offset: 0x29743, size: 0x8, addend: 0x0, symName: __ZN8CryptoPP22BufferedTransformation19SetRetrievalChannelERKNSt3__112basic_stringIcNS1_11char_traitsIcEENS1_9allocatorIcEEEE, symObjAddr: 0x3A3C, symBinAddr: 0x10000C904, symSize: 0x58 }
  - { offsetInCU: 0x19949, offset: 0x297BB, size: 0x8, addend: 0x0, symName: __ZN8CryptoPP22BufferedTransformation16ChannelPutWord16ERKNSt3__112basic_stringIcNS1_11char_traitsIcEENS1_9allocatorIcEEEEtNS_9ByteOrderEb, symObjAddr: 0x3A94, symBinAddr: 0x10000C95C, symSize: 0x2C }
  - { offsetInCU: 0x19A5A, offset: 0x298CC, size: 0x8, addend: 0x0, symName: __ZN8CryptoPP22BufferedTransformation16ChannelPutWord32ERKNSt3__112basic_stringIcNS1_11char_traitsIcEENS1_9allocatorIcEEEEjNS_9ByteOrderEb, symObjAddr: 0x3AC0, symBinAddr: 0x10000C988, symSize: 0x2C }
  - { offsetInCU: 0x19B6B, offset: 0x299DD, size: 0x8, addend: 0x0, symName: __ZN8CryptoPP22BufferedTransformation16ChannelPutWord64ERKNSt3__112basic_stringIcNS1_11char_traitsIcEENS1_9allocatorIcEEEEmNS_9ByteOrderEb, symObjAddr: 0x3AEC, symBinAddr: 0x10000C9B4, symSize: 0x2C }
  - { offsetInCU: 0x19CC9, offset: 0x29B3B, size: 0x8, addend: 0x0, symName: __ZN8CryptoPP22BufferedTransformation9PutWord16EtNS_9ByteOrderEb, symObjAddr: 0x3B18, symBinAddr: 0x10000C9E0, symSize: 0x34 }
  - { offsetInCU: 0x19E7C, offset: 0x29CEE, size: 0x8, addend: 0x0, symName: __ZN8CryptoPP22BufferedTransformation9PutWord32EjNS_9ByteOrderEb, symObjAddr: 0x3B4C, symBinAddr: 0x10000CA14, symSize: 0x34 }
  - { offsetInCU: 0x1A02F, offset: 0x29EA1, size: 0x8, addend: 0x0, symName: __ZN8CryptoPP22BufferedTransformation9PutWord64EmNS_9ByteOrderEb, symObjAddr: 0x3B80, symBinAddr: 0x10000CA48, symSize: 0x34 }
  - { offsetInCU: 0x1A195, offset: 0x2A007, size: 0x8, addend: 0x0, symName: __ZNK8CryptoPP22BufferedTransformation10PeekWord16ERtNS_9ByteOrderE, symObjAddr: 0x3BB4, symBinAddr: 0x10000CA7C, symSize: 0x5C }
  - { offsetInCU: 0x1A201, offset: 0x2A073, size: 0x8, addend: 0x0, symName: __ZNK8CryptoPP22BufferedTransformation10PeekWord32ERjNS_9ByteOrderE, symObjAddr: 0x3C10, symBinAddr: 0x10000CAD8, symSize: 0xA0 }
  - { offsetInCU: 0x1A26D, offset: 0x2A0DF, size: 0x8, addend: 0x0, symName: __ZNK8CryptoPP22BufferedTransformation10PeekWord64ERmNS_9ByteOrderE, symObjAddr: 0x3CB0, symBinAddr: 0x10000CB78, symSize: 0xFC }
  - { offsetInCU: 0x1A332, offset: 0x2A1A4, size: 0x8, addend: 0x0, symName: __ZN8CryptoPP22BufferedTransformation9GetWord16ERtNS_9ByteOrderE, symObjAddr: 0x3DAC, symBinAddr: 0x10000CC74, symSize: 0x7C }
  - { offsetInCU: 0x1A44F, offset: 0x2A2C1, size: 0x8, addend: 0x0, symName: __ZN8CryptoPP22BufferedTransformation9GetWord32ERjNS_9ByteOrderE, symObjAddr: 0x3E28, symBinAddr: 0x10000CCF0, symSize: 0xAC }
  - { offsetInCU: 0x1A558, offset: 0x2A3CA, size: 0x8, addend: 0x0, symName: __ZN8CryptoPP22BufferedTransformation9GetWord64ERmNS_9ByteOrderE, symObjAddr: 0x3ED4, symBinAddr: 0x10000CD9C, symSize: 0x11C }
  - { offsetInCU: 0x1A614, offset: 0x2A486, size: 0x8, addend: 0x0, symName: __ZN8CryptoPP22BufferedTransformation6AttachEPS0_, symObjAddr: 0x3FF0, symBinAddr: 0x10000CEB8, symSize: 0x80 }
  - { offsetInCU: 0x1A6B3, offset: 0x2A525, size: 0x8, addend: 0x0, symName: __ZN8CryptoPP25GeneratableCryptoMaterial25GenerateRandomWithKeySizeERNS_21RandomNumberGeneratorEj, symObjAddr: 0x4070, symBinAddr: 0x10000CF38, symSize: 0x138 }
  - { offsetInCU: 0x1AB11, offset: 0x2A983, size: 0x8, addend: 0x0, symName: __ZNK8CryptoPP12PK_Encryptor22CreateEncryptionFilterERNS_21RandomNumberGeneratorEPNS_22BufferedTransformationERKNS_14NameValuePairsE, symObjAddr: 0x41A8, symBinAddr: 0x10000D070, symSize: 0x70 }
  - { offsetInCU: 0x1AC05, offset: 0x2AA77, size: 0x8, addend: 0x0, symName: __ZN8CryptoPP26PK_DefaultEncryptionFilterC2ERNS_21RandomNumberGeneratorERKNS_12PK_EncryptorEPNS_22BufferedTransformationERKNS_14NameValuePairsE, symObjAddr: 0x634C, symBinAddr: 0x10000EBB8, symSize: 0xE4 }
  - { offsetInCU: 0x1AE20, offset: 0x2AC92, size: 0x8, addend: 0x0, symName: __ZNK8CryptoPP12PK_Decryptor22CreateDecryptionFilterERNS_21RandomNumberGeneratorEPNS_22BufferedTransformationERKNS_14NameValuePairsE, symObjAddr: 0x4218, symBinAddr: 0x10000D0E0, symSize: 0x70 }
  - { offsetInCU: 0x1AF14, offset: 0x2AD86, size: 0x8, addend: 0x0, symName: __ZN8CryptoPP26PK_DefaultDecryptionFilterC2ERNS_21RandomNumberGeneratorERKNS_12PK_DecryptorEPNS_22BufferedTransformationERKNS_14NameValuePairsE, symObjAddr: 0x6B44, symBinAddr: 0x10000F12C, symSize: 0xEC }
  - { offsetInCU: 0x1B16C, offset: 0x2AFDE, size: 0x8, addend: 0x0, symName: __ZNK8CryptoPP9PK_Signer4SignERNS_21RandomNumberGeneratorEPNS_21PK_MessageAccumulatorEPh, symObjAddr: 0x4288, symBinAddr: 0x10000D150, symSize: 0x6C }
  - { offsetInCU: 0x1B28D, offset: 0x2B0FF, size: 0x8, addend: 0x0, symName: __ZNK8CryptoPP9PK_Signer11SignMessageERNS_21RandomNumberGeneratorEPKhmPh, symObjAddr: 0x42F4, symBinAddr: 0x10000D1BC, symSize: 0xB8 }
  - { offsetInCU: 0x1B3F3, offset: 0x2B265, size: 0x8, addend: 0x0, symName: __ZNK8CryptoPP9PK_Signer23SignMessageWithRecoveryERNS_21RandomNumberGeneratorEPKhmS4_mPh, symObjAddr: 0x43AC, symBinAddr: 0x10000D274, symSize: 0xF4 }
  - { offsetInCU: 0x1B5BA, offset: 0x2B42C, size: 0x8, addend: 0x0, symName: __ZNK8CryptoPP11PK_Verifier6VerifyEPNS_21PK_MessageAccumulatorE, symObjAddr: 0x44A0, symBinAddr: 0x10000D368, symSize: 0x68 }
  - { offsetInCU: 0x1B6A3, offset: 0x2B515, size: 0x8, addend: 0x0, symName: __ZNK8CryptoPP11PK_Verifier13VerifyMessageEPKhmS2_m, symObjAddr: 0x4508, symBinAddr: 0x10000D3D0, symSize: 0xD8 }
  - { offsetInCU: 0x1B81D, offset: 0x2B68F, size: 0x8, addend: 0x0, symName: __ZNK8CryptoPP11PK_Verifier7RecoverEPhPNS_21PK_MessageAccumulatorE, symObjAddr: 0x45E0, symBinAddr: 0x10000D4A8, symSize: 0x78 }
  - { offsetInCU: 0x1B91F, offset: 0x2B791, size: 0x8, addend: 0x0, symName: __ZNK8CryptoPP11PK_Verifier14RecoverMessageEPhPKhmS3_m, symObjAddr: 0x4658, symBinAddr: 0x10000D520, symSize: 0xF0 }
  - { offsetInCU: 0x1BAC0, offset: 0x2B932, size: 0x8, addend: 0x0, symName: __ZNK8CryptoPP24SimpleKeyAgreementDomain15GenerateKeyPairERNS_21RandomNumberGeneratorEPhS3_, symObjAddr: 0x4748, symBinAddr: 0x10000D610, symSize: 0x54 }
  - { offsetInCU: 0x1BB7A, offset: 0x2B9EC, size: 0x8, addend: 0x0, symName: __ZNK8CryptoPP31AuthenticatedKeyAgreementDomain21GenerateStaticKeyPairERNS_21RandomNumberGeneratorEPhS3_, symObjAddr: 0x479C, symBinAddr: 0x10000D664, symSize: 0x54 }
  - { offsetInCU: 0x1BC25, offset: 0x2BA97, size: 0x8, addend: 0x0, symName: __ZNK8CryptoPP31AuthenticatedKeyAgreementDomain24GenerateEphemeralKeyPairERNS_21RandomNumberGeneratorEPhS3_, symObjAddr: 0x47F0, symBinAddr: 0x10000D6B8, symSize: 0x54 }
  - { offsetInCU: 0x1BCD0, offset: 0x2BB42, size: 0x8, addend: 0x0, symName: _LibraryVersion, symObjAddr: 0x4844, symBinAddr: 0x10000D70C, symSize: 0x8 }
  - { offsetInCU: 0x1BD0A, offset: 0x2BB7C, size: 0x8, addend: 0x0, symName: __ZN8CryptoPP10simple_ptrINS_18NullNameValuePairsEED1Ev, symObjAddr: 0x484C, symBinAddr: 0x10000D714, symSize: 0x38 }
  - { offsetInCU: 0x1BD5F, offset: 0x2BBD1, size: 0x8, addend: 0x0, symName: __ZN8CryptoPP21SimpleKeyingInterfaceD1Ev, symObjAddr: 0x4884, symBinAddr: 0x1000C767C, symSize: 0x4 }
  - { offsetInCU: 0x1BD87, offset: 0x2BBF9, size: 0x8, addend: 0x0, symName: __ZN8CryptoPP21SimpleKeyingInterfaceD0Ev, symObjAddr: 0x4888, symBinAddr: 0x1000C7680, symSize: 0x4 }
  - { offsetInCU: 0x1BDAF, offset: 0x2BC21, size: 0x8, addend: 0x0, symName: __ZNK8CryptoPP21SimpleKeyingInterface16IsValidKeyLengthEm, symObjAddr: 0x488C, symBinAddr: 0x10000D74C, symSize: 0x30 }
  - { offsetInCU: 0x1BE2A, offset: 0x2BC9C, size: 0x8, addend: 0x0, symName: __ZNK8CryptoPP21SimpleKeyingInterface6IVSizeEv, symObjAddr: 0x48BC, symBinAddr: 0x10000D77C, symSize: 0x1D0 }
  - { offsetInCU: 0x1C7A1, offset: 0x2C613, size: 0x8, addend: 0x0, symName: __ZNK8CryptoPP21SimpleKeyingInterface11MinIVLengthEv, symObjAddr: 0x4A8C, symBinAddr: 0x10000D94C, symSize: 0xC }
  - { offsetInCU: 0x1C7DA, offset: 0x2C64C, size: 0x8, addend: 0x0, symName: __ZNK8CryptoPP21SimpleKeyingInterface11MaxIVLengthEv, symObjAddr: 0x4A98, symBinAddr: 0x10000D958, symSize: 0xC }
  - { offsetInCU: 0x1C813, offset: 0x2C685, size: 0x8, addend: 0x0, symName: __ZN8CryptoPP21SimpleKeyingInterface13ResynchronizeEPKhi, symObjAddr: 0x4AA4, symBinAddr: 0x10000D964, symSize: 0x1D0 }
  - { offsetInCU: 0x1D1AC, offset: 0x2D01E, size: 0x8, addend: 0x0, symName: __ZN8CryptoPP19BlockTransformationD1Ev, symObjAddr: 0x4C74, symBinAddr: 0x1000C7684, symSize: 0x4 }
  - { offsetInCU: 0x1D1D4, offset: 0x2D046, size: 0x8, addend: 0x0, symName: __ZN8CryptoPP19BlockTransformationD0Ev, symObjAddr: 0x4C78, symBinAddr: 0x1000C7688, symSize: 0x4 }
  - { offsetInCU: 0x1D21F, offset: 0x2D091, size: 0x8, addend: 0x0, symName: __ZNK8CryptoPP19BlockTransformation13IsPermutationEv, symObjAddr: 0x4DB4, symBinAddr: 0x10000DB34, symSize: 0x8 }
  - { offsetInCU: 0x1D246, offset: 0x2D0B8, size: 0x8, addend: 0x0, symName: __ZNK8CryptoPP19BlockTransformation29OptimalNumberOfParallelBlocksEv, symObjAddr: 0x4DBC, symBinAddr: 0x10000DB3C, symSize: 0x8 }
  - { offsetInCU: 0x1D26D, offset: 0x2D0DF, size: 0x8, addend: 0x0, symName: __ZN8CryptoPP20StreamTransformationD1Ev, symObjAddr: 0x4DC4, symBinAddr: 0x1000C768C, symSize: 0x4 }
  - { offsetInCU: 0x1D295, offset: 0x2D107, size: 0x8, addend: 0x0, symName: __ZN8CryptoPP20StreamTransformationD0Ev, symObjAddr: 0x4DC8, symBinAddr: 0x1000C7690, symSize: 0x4 }
  - { offsetInCU: 0x1D2BD, offset: 0x2D12F, size: 0x8, addend: 0x0, symName: __ZNK8CryptoPP20StreamTransformation18MandatoryBlockSizeEv, symObjAddr: 0x4DCC, symBinAddr: 0x10000DB44, symSize: 0x8 }
  - { offsetInCU: 0x1D2E4, offset: 0x2D156, size: 0x8, addend: 0x0, symName: __ZNK8CryptoPP20StreamTransformation16OptimalBlockSizeEv, symObjAddr: 0x4DD4, symBinAddr: 0x10000DB4C, symSize: 0xC }
  - { offsetInCU: 0x1D31D, offset: 0x2D18F, size: 0x8, addend: 0x0, symName: __ZNK8CryptoPP20StreamTransformation23GetOptimalBlockSizeUsedEv, symObjAddr: 0x4DE0, symBinAddr: 0x10000DB58, symSize: 0x8 }
  - { offsetInCU: 0x1D344, offset: 0x2D1B6, size: 0x8, addend: 0x0, symName: __ZNK8CryptoPP20StreamTransformation16MinLastBlockSizeEv, symObjAddr: 0x4DE8, symBinAddr: 0x10000DB60, symSize: 0x8 }
  - { offsetInCU: 0x1D36B, offset: 0x2D1DD, size: 0x8, addend: 0x0, symName: __ZNK8CryptoPP20StreamTransformation18IsLastBlockSpecialEv, symObjAddr: 0x4DF0, symBinAddr: 0x10000DB68, symSize: 0x8 }
  - { offsetInCU: 0x1D392, offset: 0x2D204, size: 0x8, addend: 0x0, symName: __ZN8CryptoPP20StreamTransformation4SeekEm, symObjAddr: 0x4DF8, symBinAddr: 0x10000DB70, symSize: 0x100 }
  - { offsetInCU: 0x1D890, offset: 0x2D702, size: 0x8, addend: 0x0, symName: __ZN8CryptoPP18HashTransformationD1Ev, symObjAddr: 0x4EF8, symBinAddr: 0x1000C7694, symSize: 0x4 }
  - { offsetInCU: 0x1D8B8, offset: 0x2D72A, size: 0x8, addend: 0x0, symName: __ZN8CryptoPP18HashTransformationD0Ev, symObjAddr: 0x4EFC, symBinAddr: 0x1000C7698, symSize: 0x4 }
  - { offsetInCU: 0x1D8E0, offset: 0x2D752, size: 0x8, addend: 0x0, symName: __ZN8CryptoPP18HashTransformation17CreateUpdateSpaceERm, symObjAddr: 0x4F00, symBinAddr: 0x10000DC70, symSize: 0xC }
  - { offsetInCU: 0x1D915, offset: 0x2D787, size: 0x8, addend: 0x0, symName: __ZN8CryptoPP18HashTransformation7RestartEv, symObjAddr: 0x4F4C, symBinAddr: 0x10000DC7C, symSize: 0x14 }
  - { offsetInCU: 0x1D95A, offset: 0x2D7CC, size: 0x8, addend: 0x0, symName: __ZNK8CryptoPP18HashTransformation16OptimalBlockSizeEv, symObjAddr: 0x4F68, symBinAddr: 0x10000DC90, symSize: 0x8 }
  - { offsetInCU: 0x1D981, offset: 0x2D7F3, size: 0x8, addend: 0x0, symName: __ZN8CryptoPP28AuthenticatedSymmetricCipherD1Ev, symObjAddr: 0x50E0, symBinAddr: 0x1000C769C, symSize: 0x4 }
  - { offsetInCU: 0x1D9A2, offset: 0x2D814, size: 0x8, addend: 0x0, symName: __ZN8CryptoPP28AuthenticatedSymmetricCipherD0Ev, symObjAddr: 0x50E4, symBinAddr: 0x1000C76A0, symSize: 0x4 }
  - { offsetInCU: 0x1D9C3, offset: 0x2D835, size: 0x8, addend: 0x0, symName: __ZNK8CryptoPP28AuthenticatedSymmetricCipher12GetAlgorithmEv, symObjAddr: 0x50E8, symBinAddr: 0x10000DC98, symSize: 0x8 }
  - { offsetInCU: 0x1D9EA, offset: 0x2D85C, size: 0x8, addend: 0x0, symName: __ZNK8CryptoPP28AuthenticatedSymmetricCipher15MaxFooterLengthEv, symObjAddr: 0x50F0, symBinAddr: 0x10000DCA0, symSize: 0x8 }
  - { offsetInCU: 0x1DA11, offset: 0x2D883, size: 0x8, addend: 0x0, symName: __ZNK8CryptoPP28AuthenticatedSymmetricCipher28NeedsPrespecifiedDataLengthsEv, symObjAddr: 0x50F8, symBinAddr: 0x10000DCA8, symSize: 0x8 }
  - { offsetInCU: 0x1DA38, offset: 0x2D8AA, size: 0x8, addend: 0x0, symName: __ZNK8CryptoPP28AuthenticatedSymmetricCipher17AlgorithmProviderEv, symObjAddr: 0x5100, symBinAddr: 0x10000DCB0, symSize: 0x18 }
  - { offsetInCU: 0x1DC24, offset: 0x2DA96, size: 0x8, addend: 0x0, symName: __ZN8CryptoPP28AuthenticatedSymmetricCipher27UncheckedSpecifyDataLengthsEmmm, symObjAddr: 0x5118, symBinAddr: 0x10000DCC8, symSize: 0x4 }
  - { offsetInCU: 0x1DC91, offset: 0x2DB03, size: 0x8, addend: 0x0, symName: __ZThn8_N8CryptoPP28AuthenticatedSymmetricCipherD1Ev, symObjAddr: 0x511C, symBinAddr: 0x1000C76A4, symSize: 0x4 }
  - { offsetInCU: 0x1DCAC, offset: 0x2DB1E, size: 0x8, addend: 0x0, symName: __ZThn8_N8CryptoPP28AuthenticatedSymmetricCipherD1Ev, symObjAddr: 0x511C, symBinAddr: 0x1000C76A4, symSize: 0x4 }
  - { offsetInCU: 0x1DCE2, offset: 0x2DB54, size: 0x8, addend: 0x0, symName: __ZThn8_N8CryptoPP28AuthenticatedSymmetricCipherD0Ev, symObjAddr: 0x5120, symBinAddr: 0x1000C76A8, symSize: 0x4 }
  - { offsetInCU: 0x1DCFD, offset: 0x2DB6F, size: 0x8, addend: 0x0, symName: __ZThn8_N8CryptoPP28AuthenticatedSymmetricCipherD0Ev, symObjAddr: 0x5120, symBinAddr: 0x1000C76A8, symSize: 0x4 }
  - { offsetInCU: 0x1DD2F, offset: 0x2DBA1, size: 0x8, addend: 0x0, symName: __ZThn8_NK8CryptoPP28AuthenticatedSymmetricCipher17AlgorithmProviderEv, symObjAddr: 0x5124, symBinAddr: 0x10000DCCC, symSize: 0x18 }
  - { offsetInCU: 0x1DF31, offset: 0x2DDA3, size: 0x8, addend: 0x0, symName: __ZThn16_N8CryptoPP28AuthenticatedSymmetricCipherD1Ev, symObjAddr: 0x513C, symBinAddr: 0x1000C76AC, symSize: 0x4 }
  - { offsetInCU: 0x1DF4C, offset: 0x2DDBE, size: 0x8, addend: 0x0, symName: __ZThn16_N8CryptoPP28AuthenticatedSymmetricCipherD1Ev, symObjAddr: 0x513C, symBinAddr: 0x1000C76AC, symSize: 0x4 }
  - { offsetInCU: 0x1DF68, offset: 0x2DDDA, size: 0x8, addend: 0x0, symName: __ZThn16_N8CryptoPP28AuthenticatedSymmetricCipherD0Ev, symObjAddr: 0x5140, symBinAddr: 0x1000C76B0, symSize: 0x4 }
  - { offsetInCU: 0x1DF83, offset: 0x2DDF5, size: 0x8, addend: 0x0, symName: __ZThn16_N8CryptoPP28AuthenticatedSymmetricCipherD0Ev, symObjAddr: 0x5140, symBinAddr: 0x1000C76B0, symSize: 0x4 }
  - { offsetInCU: 0x1DF9F, offset: 0x2DE11, size: 0x8, addend: 0x0, symName: __ZThn16_NK8CryptoPP28AuthenticatedSymmetricCipher17AlgorithmProviderEv, symObjAddr: 0x5144, symBinAddr: 0x10000DCE4, symSize: 0x18 }
  - { offsetInCU: 0x1E1A1, offset: 0x2E013, size: 0x8, addend: 0x0, symName: __ZN8CryptoPP21RandomNumberGeneratorD1Ev, symObjAddr: 0x515C, symBinAddr: 0x10000DCFC, symSize: 0x4 }
  - { offsetInCU: 0x1E1C9, offset: 0x2E03B, size: 0x8, addend: 0x0, symName: __ZN8CryptoPP21RandomNumberGeneratorD0Ev, symObjAddr: 0x5160, symBinAddr: 0x10000DD00, symSize: 0x4 }
  - { offsetInCU: 0x1E1F4, offset: 0x2E066, size: 0x8, addend: 0x0, symName: __ZN8CryptoPP21RandomNumberGeneratorD0Ev, symObjAddr: 0x5160, symBinAddr: 0x10000DD00, symSize: 0x4 }
  - { offsetInCU: 0x1E208, offset: 0x2E07A, size: 0x8, addend: 0x0, symName: __ZN8CryptoPP21RandomNumberGenerator18IncorporateEntropyEPKhm, symObjAddr: 0x5164, symBinAddr: 0x10000DD04, symSize: 0x100 }
  - { offsetInCU: 0x1E717, offset: 0x2E589, size: 0x8, addend: 0x0, symName: __ZNK8CryptoPP21RandomNumberGenerator21CanIncorporateEntropyEv, symObjAddr: 0x5264, symBinAddr: 0x10000DE04, symSize: 0x8 }
  - { offsetInCU: 0x1E73E, offset: 0x2E5B0, size: 0x8, addend: 0x0, symName: __ZN8CryptoPP21KeyDerivationFunctionD1Ev, symObjAddr: 0x526C, symBinAddr: 0x1000C76B4, symSize: 0x4 }
  - { offsetInCU: 0x1E766, offset: 0x2E5D8, size: 0x8, addend: 0x0, symName: __ZN8CryptoPP21KeyDerivationFunctionD0Ev, symObjAddr: 0x5270, symBinAddr: 0x1000C76B8, symSize: 0x4 }
  - { offsetInCU: 0x1E78E, offset: 0x2E600, size: 0x8, addend: 0x0, symName: __ZNK8CryptoPP21KeyDerivationFunction20IsValidDerivedLengthEm, symObjAddr: 0x5274, symBinAddr: 0x10000DE0C, symSize: 0x30 }
  - { offsetInCU: 0x1E7E3, offset: 0x2E655, size: 0x8, addend: 0x0, symName: __ZN8CryptoPP22BufferedTransformationD1Ev, symObjAddr: 0x52A4, symBinAddr: 0x1000C76BC, symSize: 0x4 }
  - { offsetInCU: 0x1E804, offset: 0x2E676, size: 0x8, addend: 0x0, symName: __ZN8CryptoPP22BufferedTransformationD0Ev, symObjAddr: 0x52A8, symBinAddr: 0x1000C76C0, symSize: 0x4 }
  - { offsetInCU: 0x1E825, offset: 0x2E697, size: 0x8, addend: 0x0, symName: __ZN8CryptoPP22BufferedTransformation10AttachableEv, symObjAddr: 0x53FC, symBinAddr: 0x10000DE3C, symSize: 0x8 }
  - { offsetInCU: 0x1E84C, offset: 0x2E6BE, size: 0x8, addend: 0x0, symName: __ZN8CryptoPP22BufferedTransformation22AttachedTransformationEv, symObjAddr: 0x5404, symBinAddr: 0x10000DE44, symSize: 0x8 }
  - { offsetInCU: 0x1E873, offset: 0x2E6E5, size: 0x8, addend: 0x0, symName: __ZNK8CryptoPP22BufferedTransformation22AttachedTransformationEv, symObjAddr: 0x540C, symBinAddr: 0x10000DE4C, symSize: 0xC }
  - { offsetInCU: 0x1E8AC, offset: 0x2E71E, size: 0x8, addend: 0x0, symName: __ZN8CryptoPP22BufferedTransformation6DetachEPS0_, symObjAddr: 0x5418, symBinAddr: 0x10000DE58, symSize: 0x100 }
  - { offsetInCU: 0x1EDC4, offset: 0x2EC36, size: 0x8, addend: 0x0, symName: __ZThn8_N8CryptoPP22BufferedTransformationD1Ev, symObjAddr: 0x5518, symBinAddr: 0x1000C76C4, symSize: 0x4 }
  - { offsetInCU: 0x1EDDF, offset: 0x2EC51, size: 0x8, addend: 0x0, symName: __ZThn8_N8CryptoPP22BufferedTransformationD1Ev, symObjAddr: 0x5518, symBinAddr: 0x1000C76C4, symSize: 0x4 }
  - { offsetInCU: 0x1EE15, offset: 0x2EC87, size: 0x8, addend: 0x0, symName: __ZThn8_N8CryptoPP22BufferedTransformationD0Ev, symObjAddr: 0x551C, symBinAddr: 0x1000C76C8, symSize: 0x4 }
  - { offsetInCU: 0x1EE30, offset: 0x2ECA2, size: 0x8, addend: 0x0, symName: __ZThn8_N8CryptoPP22BufferedTransformationD0Ev, symObjAddr: 0x551C, symBinAddr: 0x1000C76C8, symSize: 0x4 }
  - { offsetInCU: 0x1EE4C, offset: 0x2ECBE, size: 0x8, addend: 0x0, symName: __ZN8CryptoPP12PK_DecryptorD1Ev, symObjAddr: 0x5520, symBinAddr: 0x1000C76CC, symSize: 0x4 }
  - { offsetInCU: 0x1EE6D, offset: 0x2ECDF, size: 0x8, addend: 0x0, symName: __ZN8CryptoPP12PK_DecryptorD0Ev, symObjAddr: 0x5524, symBinAddr: 0x1000C76D0, symSize: 0x4 }
  - { offsetInCU: 0x1EE8E, offset: 0x2ED00, size: 0x8, addend: 0x0, symName: __ZNK8CryptoPP15PK_CryptoSystem21FixedCiphertextLengthEv, symObjAddr: 0x5528, symBinAddr: 0x10000DF58, symSize: 0x8 }
  - { offsetInCU: 0x1EEB5, offset: 0x2ED27, size: 0x8, addend: 0x0, symName: __ZNK8CryptoPP15PK_CryptoSystem23FixedMaxPlaintextLengthEv, symObjAddr: 0x5530, symBinAddr: 0x10000DF60, symSize: 0x8 }
  - { offsetInCU: 0x1EEFB, offset: 0x2ED6D, size: 0x8, addend: 0x0, symName: __ZThn8_N8CryptoPP12PK_DecryptorD1Ev, symObjAddr: 0x5538, symBinAddr: 0x1000C76D4, symSize: 0x4 }
  - { offsetInCU: 0x1EF16, offset: 0x2ED88, size: 0x8, addend: 0x0, symName: __ZThn8_N8CryptoPP12PK_DecryptorD1Ev, symObjAddr: 0x5538, symBinAddr: 0x1000C76D4, symSize: 0x4 }
  - { offsetInCU: 0x1EF4C, offset: 0x2EDBE, size: 0x8, addend: 0x0, symName: __ZThn8_N8CryptoPP12PK_DecryptorD0Ev, symObjAddr: 0x553C, symBinAddr: 0x1000C76D8, symSize: 0x4 }
  - { offsetInCU: 0x1EF67, offset: 0x2EDD9, size: 0x8, addend: 0x0, symName: __ZThn8_N8CryptoPP12PK_DecryptorD0Ev, symObjAddr: 0x553C, symBinAddr: 0x1000C76D8, symSize: 0x4 }
  - { offsetInCU: 0x1EF83, offset: 0x2EDF5, size: 0x8, addend: 0x0, symName: __ZN8CryptoPP19PrivateKeyAlgorithm14AccessMaterialEv, symObjAddr: 0x5540, symBinAddr: 0x10000DF68, symSize: 0x28 }
  - { offsetInCU: 0x1EFBF, offset: 0x2EE31, size: 0x8, addend: 0x0, symName: __ZNK8CryptoPP19PrivateKeyAlgorithm11GetMaterialEv, symObjAddr: 0x5568, symBinAddr: 0x10000DF90, symSize: 0x28 }
  - { offsetInCU: 0x1EFFB, offset: 0x2EE6D, size: 0x8, addend: 0x0, symName: __ZNK8CryptoPP19PrivateKeyAlgorithm13GetPrivateKeyEv, symObjAddr: 0x5590, symBinAddr: 0x10000DFB8, symSize: 0xC }
  - { offsetInCU: 0x1F034, offset: 0x2EEA6, size: 0x8, addend: 0x0, symName: __ZN8CryptoPP9PK_SignerD1Ev, symObjAddr: 0x559C, symBinAddr: 0x1000C76DC, symSize: 0x4 }
  - { offsetInCU: 0x1F055, offset: 0x2EEC7, size: 0x8, addend: 0x0, symName: __ZN8CryptoPP9PK_SignerD0Ev, symObjAddr: 0x55A0, symBinAddr: 0x1000C76E0, symSize: 0x4 }
  - { offsetInCU: 0x1F076, offset: 0x2EEE8, size: 0x8, addend: 0x0, symName: __ZNK8CryptoPP18PK_SignatureScheme18MaxSignatureLengthEm, symObjAddr: 0x55A4, symBinAddr: 0x10000DFC4, symSize: 0xC }
  - { offsetInCU: 0x1F0C0, offset: 0x2EF32, size: 0x8, addend: 0x0, symName: __ZNK8CryptoPP18PK_SignatureScheme16SignatureUpfrontEv, symObjAddr: 0x55B0, symBinAddr: 0x10000DFD0, symSize: 0x8 }
  - { offsetInCU: 0x1F106, offset: 0x2EF78, size: 0x8, addend: 0x0, symName: __ZThn8_N8CryptoPP9PK_SignerD1Ev, symObjAddr: 0x55B8, symBinAddr: 0x1000C76E4, symSize: 0x4 }
  - { offsetInCU: 0x1F121, offset: 0x2EF93, size: 0x8, addend: 0x0, symName: __ZThn8_N8CryptoPP9PK_SignerD1Ev, symObjAddr: 0x55B8, symBinAddr: 0x1000C76E4, symSize: 0x4 }
  - { offsetInCU: 0x1F157, offset: 0x2EFC9, size: 0x8, addend: 0x0, symName: __ZThn8_N8CryptoPP9PK_SignerD0Ev, symObjAddr: 0x55BC, symBinAddr: 0x1000C76E8, symSize: 0x4 }
  - { offsetInCU: 0x1F172, offset: 0x2EFE4, size: 0x8, addend: 0x0, symName: __ZThn8_N8CryptoPP9PK_SignerD0Ev, symObjAddr: 0x55BC, symBinAddr: 0x1000C76E8, symSize: 0x4 }
  - { offsetInCU: 0x1F18E, offset: 0x2F000, size: 0x8, addend: 0x0, symName: __ZN8CryptoPP11PK_VerifierD1Ev, symObjAddr: 0x55C0, symBinAddr: 0x1000C76EC, symSize: 0x4 }
  - { offsetInCU: 0x1F1AF, offset: 0x2F021, size: 0x8, addend: 0x0, symName: __ZN8CryptoPP11PK_VerifierD0Ev, symObjAddr: 0x55C4, symBinAddr: 0x1000C76F0, symSize: 0x4 }
  - { offsetInCU: 0x1F1EF, offset: 0x2F061, size: 0x8, addend: 0x0, symName: __ZThn8_N8CryptoPP11PK_VerifierD1Ev, symObjAddr: 0x55C8, symBinAddr: 0x1000C76F4, symSize: 0x4 }
  - { offsetInCU: 0x1F20A, offset: 0x2F07C, size: 0x8, addend: 0x0, symName: __ZThn8_N8CryptoPP11PK_VerifierD1Ev, symObjAddr: 0x55C8, symBinAddr: 0x1000C76F4, symSize: 0x4 }
  - { offsetInCU: 0x1F240, offset: 0x2F0B2, size: 0x8, addend: 0x0, symName: __ZThn8_N8CryptoPP11PK_VerifierD0Ev, symObjAddr: 0x55CC, symBinAddr: 0x1000C76F8, symSize: 0x4 }
  - { offsetInCU: 0x1F25B, offset: 0x2F0CD, size: 0x8, addend: 0x0, symName: __ZThn8_N8CryptoPP11PK_VerifierD0Ev, symObjAddr: 0x55CC, symBinAddr: 0x1000C76F8, symSize: 0x4 }
  - { offsetInCU: 0x1F277, offset: 0x2F0E9, size: 0x8, addend: 0x0, symName: __ZN8CryptoPP18PublicKeyAlgorithm14AccessMaterialEv, symObjAddr: 0x55D0, symBinAddr: 0x10000DFD8, symSize: 0x28 }
  - { offsetInCU: 0x1F2B3, offset: 0x2F125, size: 0x8, addend: 0x0, symName: __ZNK8CryptoPP18PublicKeyAlgorithm11GetMaterialEv, symObjAddr: 0x55F8, symBinAddr: 0x10000E000, symSize: 0x28 }
  - { offsetInCU: 0x1F2EF, offset: 0x2F161, size: 0x8, addend: 0x0, symName: __ZNK8CryptoPP18PublicKeyAlgorithm12GetPublicKeyEv, symObjAddr: 0x5620, symBinAddr: 0x10000E028, symSize: 0xC }
  - { offsetInCU: 0x1F328, offset: 0x2F19A, size: 0x8, addend: 0x0, symName: __ZN8CryptoPP24SimpleKeyAgreementDomainD1Ev, symObjAddr: 0x562C, symBinAddr: 0x1000C76FC, symSize: 0x4 }
  - { offsetInCU: 0x1F350, offset: 0x2F1C2, size: 0x8, addend: 0x0, symName: __ZN8CryptoPP24SimpleKeyAgreementDomainD0Ev, symObjAddr: 0x5630, symBinAddr: 0x1000C7700, symSize: 0x4 }
  - { offsetInCU: 0x1F378, offset: 0x2F1EA, size: 0x8, addend: 0x0, symName: __ZN8CryptoPP21KeyAgreementAlgorithm14AccessMaterialEv, symObjAddr: 0x5634, symBinAddr: 0x10000E034, symSize: 0x28 }
  - { offsetInCU: 0x1F3B4, offset: 0x2F226, size: 0x8, addend: 0x0, symName: __ZNK8CryptoPP21KeyAgreementAlgorithm11GetMaterialEv, symObjAddr: 0x565C, symBinAddr: 0x10000E05C, symSize: 0x28 }
  - { offsetInCU: 0x1F3F0, offset: 0x2F262, size: 0x8, addend: 0x0, symName: __ZNK8CryptoPP21KeyAgreementAlgorithm19GetCryptoParametersEv, symObjAddr: 0x5684, symBinAddr: 0x10000E084, symSize: 0xC }
  - { offsetInCU: 0x1F429, offset: 0x2F29B, size: 0x8, addend: 0x0, symName: __ZN8CryptoPP31AuthenticatedKeyAgreementDomainD1Ev, symObjAddr: 0x5690, symBinAddr: 0x1000C7704, symSize: 0x4 }
  - { offsetInCU: 0x1F451, offset: 0x2F2C3, size: 0x8, addend: 0x0, symName: __ZN8CryptoPP31AuthenticatedKeyAgreementDomainD0Ev, symObjAddr: 0x5694, symBinAddr: 0x1000C7708, symSize: 0x4 }
  - { offsetInCU: 0x1F47E, offset: 0x2F2F0, size: 0x8, addend: 0x0, symName: __ZN8CryptoPP12PK_EncryptorD1Ev, symObjAddr: 0x5698, symBinAddr: 0x1000C770C, symSize: 0x4 }
  - { offsetInCU: 0x1F49F, offset: 0x2F311, size: 0x8, addend: 0x0, symName: __ZN8CryptoPP12PK_EncryptorD0Ev, symObjAddr: 0x569C, symBinAddr: 0x1000C7710, symSize: 0x4 }
  - { offsetInCU: 0x1F4E2, offset: 0x2F354, size: 0x8, addend: 0x0, symName: __ZThn8_N8CryptoPP12PK_EncryptorD1Ev, symObjAddr: 0x56A0, symBinAddr: 0x1000C7714, symSize: 0x4 }
  - { offsetInCU: 0x1F4FD, offset: 0x2F36F, size: 0x8, addend: 0x0, symName: __ZThn8_N8CryptoPP12PK_EncryptorD1Ev, symObjAddr: 0x56A0, symBinAddr: 0x1000C7714, symSize: 0x4 }
  - { offsetInCU: 0x1F536, offset: 0x2F3A8, size: 0x8, addend: 0x0, symName: __ZThn8_N8CryptoPP12PK_EncryptorD0Ev, symObjAddr: 0x56A4, symBinAddr: 0x1000C7718, symSize: 0x4 }
  - { offsetInCU: 0x1F551, offset: 0x2F3C3, size: 0x8, addend: 0x0, symName: __ZThn8_N8CryptoPP12PK_EncryptorD0Ev, symObjAddr: 0x56A4, symBinAddr: 0x1000C7718, symSize: 0x4 }
  - { offsetInCU: 0x1F56D, offset: 0x2F3DF, size: 0x8, addend: 0x0, symName: __ZN8CryptoPP9BitBucketD0Ev, symObjAddr: 0x56B0, symBinAddr: 0x10000E090, symSize: 0x4 }
  - { offsetInCU: 0x1F591, offset: 0x2F403, size: 0x8, addend: 0x0, symName: __ZN8CryptoPP9BitBucketD0Ev, symObjAddr: 0x56B0, symBinAddr: 0x10000E090, symSize: 0x4 }
  - { offsetInCU: 0x1F5A5, offset: 0x2F417, size: 0x8, addend: 0x0, symName: __ZNK8CryptoPP9BitBucket13AlgorithmNameEv, symObjAddr: 0x56B4, symBinAddr: 0x10000E094, symSize: 0x24 }
  - { offsetInCU: 0x1F810, offset: 0x2F682, size: 0x8, addend: 0x0, symName: __ZN8CryptoPP9BitBucket4Put2EPKhmib, symObjAddr: 0x56D8, symBinAddr: 0x10000E0B8, symSize: 0x8 }
  - { offsetInCU: 0x1F874, offset: 0x2F6E6, size: 0x8, addend: 0x0, symName: __ZN8CryptoPP9BitBucket18IsolatedInitializeERKNS_14NameValuePairsE, symObjAddr: 0x56E0, symBinAddr: 0x10000E0C0, symSize: 0x4 }
  - { offsetInCU: 0x1F8A6, offset: 0x2F718, size: 0x8, addend: 0x0, symName: __ZN8CryptoPP10BufferlessINS_4SinkEE13IsolatedFlushEbb, symObjAddr: 0x56E4, symBinAddr: 0x10000E0C4, symSize: 0x8 }
  - { offsetInCU: 0x1F8F1, offset: 0x2F763, size: 0x8, addend: 0x0, symName: __ZN8CryptoPP4Sink11TransferTo2ERNS_22BufferedTransformationERmRKNSt3__112basic_stringIcNS4_11char_traitsIcEENS4_9allocatorIcEEEEb, symObjAddr: 0x56EC, symBinAddr: 0x10000E0CC, symSize: 0xC }
  - { offsetInCU: 0x1F955, offset: 0x2F7C7, size: 0x8, addend: 0x0, symName: __ZNK8CryptoPP4Sink12CopyRangeTo2ERNS_22BufferedTransformationERmmRKNSt3__112basic_stringIcNS4_11char_traitsIcEENS4_9allocatorIcEEEEb, symObjAddr: 0x56F8, symBinAddr: 0x10000E0D8, symSize: 0x8 }
  - { offsetInCU: 0x1F9C7, offset: 0x2F839, size: 0x8, addend: 0x0, symName: __ZThn8_N8CryptoPP9BitBucketD1Ev, symObjAddr: 0x5700, symBinAddr: 0x10000E0E0, symSize: 0x4 }
  - { offsetInCU: 0x1F9FB, offset: 0x2F86D, size: 0x8, addend: 0x0, symName: __ZThn8_N8CryptoPP9BitBucketD0Ev, symObjAddr: 0x5704, symBinAddr: 0x10000E0E4, symSize: 0x8 }
  - { offsetInCU: 0x1FA5A, offset: 0x2F8CC, size: 0x8, addend: 0x0, symName: __ZN8CryptoPP15SelfTestFailureD0Ev, symObjAddr: 0x570C, symBinAddr: 0x10000E0EC, symSize: 0x58 }
  - { offsetInCU: 0x1FC3D, offset: 0x2FAAF, size: 0x8, addend: 0x0, symName: __ZN8CryptoPP16InvalidKeyLengthD0Ev, symObjAddr: 0x5BA0, symBinAddr: 0x10000E4BC, symSize: 0x58 }
  - { offsetInCU: 0x1FE38, offset: 0x2FCAA, size: 0x8, addend: 0x0, symName: __ZN8CryptoPP23InvalidDerivedKeyLengthD0Ev, symObjAddr: 0x6020, symBinAddr: 0x10000E88C, symSize: 0x58 }
  - { offsetInCU: 0x20017, offset: 0x2FE89, size: 0x8, addend: 0x0, symName: __ZN8CryptoPP12ClassNullRNGD0Ev, symObjAddr: 0x6078, symBinAddr: 0x10000E8E4, symSize: 0x4 }
  - { offsetInCU: 0x20045, offset: 0x2FEB7, size: 0x8, addend: 0x0, symName: __ZN8CryptoPP12ClassNullRNGD0Ev, symObjAddr: 0x6078, symBinAddr: 0x10000E8E4, symSize: 0x4 }
  - { offsetInCU: 0x20059, offset: 0x2FECB, size: 0x8, addend: 0x0, symName: __ZNK8CryptoPP12ClassNullRNG13AlgorithmNameEv, symObjAddr: 0x607C, symBinAddr: 0x10000E8E8, symSize: 0x28 }
  - { offsetInCU: 0x20269, offset: 0x300DB, size: 0x8, addend: 0x0, symName: __ZN8CryptoPP12ClassNullRNG13GenerateBlockEPhm, symObjAddr: 0x60A4, symBinAddr: 0x10000E910, symSize: 0x108 }
  - { offsetInCU: 0x20796, offset: 0x30608, size: 0x8, addend: 0x0, symName: __ZN8CryptoPP22BufferedTransformation16NoChannelSupportD0Ev, symObjAddr: 0x62F4, symBinAddr: 0x10000EB60, symSize: 0x58 }
  - { offsetInCU: 0x20A28, offset: 0x3089A, size: 0x8, addend: 0x0, symName: __ZN8CryptoPP26PK_DefaultEncryptionFilterD1Ev, symObjAddr: 0x6430, symBinAddr: 0x10000EC9C, symSize: 0xD8 }
  - { offsetInCU: 0x20CA1, offset: 0x30B13, size: 0x8, addend: 0x0, symName: __ZN8CryptoPP26PK_DefaultEncryptionFilterD0Ev, symObjAddr: 0x6508, symBinAddr: 0x10000ED74, symSize: 0xE8 }
  - { offsetInCU: 0x21032, offset: 0x30EA4, size: 0x8, addend: 0x0, symName: __ZN8CryptoPP26PK_DefaultEncryptionFilter4Put2EPKhmib, symObjAddr: 0x65F0, symBinAddr: 0x10000EE5C, symSize: 0x1F4 }
  - { offsetInCU: 0x2154A, offset: 0x313BC, size: 0x8, addend: 0x0, symName: __ZThn8_N8CryptoPP26PK_DefaultEncryptionFilterD1Ev, symObjAddr: 0x695C, symBinAddr: 0x10000F050, symSize: 0xD4 }
  - { offsetInCU: 0x21798, offset: 0x3160A, size: 0x8, addend: 0x0, symName: __ZThn8_N8CryptoPP26PK_DefaultEncryptionFilterD0Ev, symObjAddr: 0x6A30, symBinAddr: 0x10000F124, symSize: 0x8 }
  - { offsetInCU: 0x21814, offset: 0x31686, size: 0x8, addend: 0x0, symName: __ZN8CryptoPP26PK_DefaultDecryptionFilterD1Ev, symObjAddr: 0x6C30, symBinAddr: 0x10000F218, symSize: 0xD8 }
  - { offsetInCU: 0x21A8D, offset: 0x318FF, size: 0x8, addend: 0x0, symName: __ZN8CryptoPP26PK_DefaultDecryptionFilterD0Ev, symObjAddr: 0x6D08, symBinAddr: 0x10000F2F0, symSize: 0xE8 }
  - { offsetInCU: 0x21D39, offset: 0x31BAB, size: 0x8, addend: 0x0, symName: __ZN8CryptoPP26PK_DefaultDecryptionFilter4Put2EPKhmib, symObjAddr: 0x6DF0, symBinAddr: 0x10000F3D8, symSize: 0x2C8 }
  - { offsetInCU: 0x224EA, offset: 0x3235C, size: 0x8, addend: 0x0, symName: __ZN8CryptoPP17InvalidCiphertextC1ERKNSt3__112basic_stringIcNS1_11char_traitsIcEENS1_9allocatorIcEEEE, symObjAddr: 0x7194, symBinAddr: 0x10000F77C, symSize: 0x64 }
  - { offsetInCU: 0x22595, offset: 0x32407, size: 0x8, addend: 0x0, symName: __ZThn8_N8CryptoPP26PK_DefaultDecryptionFilterD1Ev, symObjAddr: 0x70B8, symBinAddr: 0x10000F6A0, symSize: 0xD4 }
  - { offsetInCU: 0x227E3, offset: 0x32655, size: 0x8, addend: 0x0, symName: __ZThn8_N8CryptoPP26PK_DefaultDecryptionFilterD0Ev, symObjAddr: 0x718C, symBinAddr: 0x10000F774, symSize: 0x8 }
  - { offsetInCU: 0x22897, offset: 0x32709, size: 0x8, addend: 0x0, symName: __ZN8CryptoPP17InvalidCiphertextD1Ev, symObjAddr: 0x71F8, symBinAddr: 0x10000F7E0, symSize: 0x50 }
  - { offsetInCU: 0x22A6C, offset: 0x328DE, size: 0x8, addend: 0x0, symName: __ZN8CryptoPP17InvalidCiphertextD0Ev, symObjAddr: 0x7248, symBinAddr: 0x10000F830, symSize: 0x58 }
  - { offsetInCU: 0x22C4B, offset: 0x32ABD, size: 0x8, addend: 0x0, symName: __ZN8CryptoPP18NullNameValuePairsD1Ev, symObjAddr: 0x72A0, symBinAddr: 0x10000F888, symSize: 0x4 }
  - { offsetInCU: 0x22C76, offset: 0x32AE8, size: 0x8, addend: 0x0, symName: __ZN8CryptoPP18NullNameValuePairsD0Ev, symObjAddr: 0x72A4, symBinAddr: 0x10000F88C, symSize: 0x4 }
  - { offsetInCU: 0x22CA4, offset: 0x32B16, size: 0x8, addend: 0x0, symName: __ZN8CryptoPP18NullNameValuePairsD0Ev, symObjAddr: 0x72A4, symBinAddr: 0x10000F88C, symSize: 0x4 }
  - { offsetInCU: 0x22CB8, offset: 0x32B2A, size: 0x8, addend: 0x0, symName: __ZNK8CryptoPP18NullNameValuePairs12GetVoidValueEPKcRKSt9type_infoPv, symObjAddr: 0x72A8, symBinAddr: 0x10000F890, symSize: 0x8 }
  - { offsetInCU: 0x22D09, offset: 0x32B7B, size: 0x8, addend: 0x0, symName: __ZNSt12length_errorC1B7v160006EPKc, symObjAddr: 0x7314, symBinAddr: 0x10000F8FC, symSize: 0x24 }
  - { offsetInCU: 0x22EDF, offset: 0x32D51, size: 0x8, addend: 0x0, symName: __ZN8CryptoPP8SecBlockIhNS_20AllocatorWithCleanupIhLb0EEEEC2ERKS3_, symObjAddr: 0x750C, symBinAddr: 0x10000F9E8, symSize: 0x15C }
  - { offsetInCU: 0x2343C, offset: 0x332AE, size: 0x8, addend: 0x0, symName: __ZN8CryptoPP23AlgorithmParametersBaseD2Ev, symObjAddr: 0x743C, symBinAddr: 0x10000F920, symSize: 0xC8 }
  - { offsetInCU: 0x23570, offset: 0x333E2, size: 0x8, addend: 0x0, symName: __ZN8CryptoPP23AlgorithmParametersBase16ParameterNotUsedC2EPKc, symObjAddr: 0x76B8, symBinAddr: 0x10000FB94, symSize: 0x280 }
  - { offsetInCU: 0x24B83, offset: 0x349F5, size: 0x8, addend: 0x0, symName: __ZN8CryptoPP23AlgorithmParametersBaseD1Ev, symObjAddr: 0x7504, symBinAddr: 0x1000C771C, symSize: 0x4 }
  - { offsetInCU: 0x24BAB, offset: 0x34A1D, size: 0x8, addend: 0x0, symName: __ZN8CryptoPP23AlgorithmParametersBaseD0Ev, symObjAddr: 0x7508, symBinAddr: 0x1000C7720, symSize: 0x4 }
  - { offsetInCU: 0x24C16, offset: 0x34A88, size: 0x8, addend: 0x0, symName: __ZN8CryptoPP23AlgorithmParametersBase16ParameterNotUsedD1Ev, symObjAddr: 0x7668, symBinAddr: 0x10000FB44, symSize: 0x50 }
  - { offsetInCU: 0x24DCE, offset: 0x34C40, size: 0x8, addend: 0x0, symName: __ZN8CryptoPP23AlgorithmParametersBase16ParameterNotUsedD0Ev, symObjAddr: 0x7938, symBinAddr: 0x10000FE14, symSize: 0x58 }
  - { offsetInCU: 0x46, offset: 0x34EFA, size: 0x8, addend: 0x0, symName: __ZN8CryptoPP18g_ArmDetectionDoneE, symObjAddr: 0xC34, symBinAddr: 0x100118004, symSize: 0x0 }
  - { offsetInCU: 0x61, offset: 0x34F15, size: 0x8, addend: 0x0, symName: __ZN8CryptoPP10g_hasARMv7E, symObjAddr: 0xC35, symBinAddr: 0x100118005, symSize: 0x0 }
  - { offsetInCU: 0x7C, offset: 0x34F30, size: 0x8, addend: 0x0, symName: __ZN8CryptoPP9g_hasNEONE, symObjAddr: 0xC36, symBinAddr: 0x100118006, symSize: 0x0 }
  - { offsetInCU: 0x97, offset: 0x34F4B, size: 0x8, addend: 0x0, symName: __ZN8CryptoPP10g_hasPMULLE, symObjAddr: 0xC37, symBinAddr: 0x100118007, symSize: 0x0 }
  - { offsetInCU: 0xB2, offset: 0x34F66, size: 0x8, addend: 0x0, symName: __ZN8CryptoPP10g_hasCRC32E, symObjAddr: 0xC38, symBinAddr: 0x100118008, symSize: 0x0 }
  - { offsetInCU: 0xCD, offset: 0x34F81, size: 0x8, addend: 0x0, symName: __ZN8CryptoPP8g_hasAESE, symObjAddr: 0xC39, symBinAddr: 0x100118009, symSize: 0x0 }
  - { offsetInCU: 0xE8, offset: 0x34F9C, size: 0x8, addend: 0x0, symName: __ZN8CryptoPP9g_hasSHA1E, symObjAddr: 0xC3A, symBinAddr: 0x10011800A, symSize: 0x0 }
  - { offsetInCU: 0x103, offset: 0x34FB7, size: 0x8, addend: 0x0, symName: __ZN8CryptoPP9g_hasSHA2E, symObjAddr: 0xC3B, symBinAddr: 0x10011800B, symSize: 0x0 }
  - { offsetInCU: 0x11E, offset: 0x34FD2, size: 0x8, addend: 0x0, symName: __ZN8CryptoPP11g_hasSHA512E, symObjAddr: 0xC3C, symBinAddr: 0x10011800C, symSize: 0x0 }
  - { offsetInCU: 0x139, offset: 0x34FED, size: 0x8, addend: 0x0, symName: __ZN8CryptoPP9g_hasSHA3E, symObjAddr: 0xC3D, symBinAddr: 0x10011800D, symSize: 0x0 }
  - { offsetInCU: 0x154, offset: 0x35008, size: 0x8, addend: 0x0, symName: __ZN8CryptoPP8g_hasSM3E, symObjAddr: 0xC3E, symBinAddr: 0x10011800E, symSize: 0x0 }
  - { offsetInCU: 0x16F, offset: 0x35023, size: 0x8, addend: 0x0, symName: __ZN8CryptoPP8g_hasSM4E, symObjAddr: 0xC3F, symBinAddr: 0x10011800F, symSize: 0x0 }
  - { offsetInCU: 0x18A, offset: 0x3503E, size: 0x8, addend: 0x0, symName: __ZN8CryptoPP15g_cacheLineSizeE, symObjAddr: 0xC40, symBinAddr: 0x100118010, symSize: 0x0 }
  - { offsetInCU: 0x2F8, offset: 0x351AC, size: 0x8, addend: 0x0, symName: __ZN8CryptoPP17DetectArmFeaturesEv, symObjAddr: 0x8, symBinAddr: 0x10000FF24, symSize: 0x23C }
  - { offsetInCU: 0x67B, offset: 0x3552F, size: 0x8, addend: 0x0, symName: __ZN12_GLOBAL__N_16s_initE, symObjAddr: 0x18808, symBinAddr: 0x100118288, symSize: 0x0 }
  - { offsetInCU: 0x8C5, offset: 0x35779, size: 0x8, addend: 0x0, symName: __ZNK8CryptoPP9SingletonIN12_GLOBAL__N_116AppleMachineInfoENS_9NewObjectIS2_EELi0EE3RefEv, symObjAddr: 0x244, symBinAddr: 0x100010160, symSize: 0x8E0 }
  - { offsetInCU: 0x8EC, offset: 0x357A0, size: 0x8, addend: 0x0, symName: __MergedGlobals, symObjAddr: 0x18810, symBinAddr: 0x100118290, symSize: 0x0 }
  - { offsetInCU: 0x73C5, offset: 0x3C279, size: 0x8, addend: 0x0, symName: __Z9getauxvalm, symObjAddr: 0x0, symBinAddr: 0x10000FF1C, symSize: 0x8 }
  - { offsetInCU: 0x7B9A, offset: 0x3CA4E, size: 0x8, addend: 0x0, symName: __ZN8CryptoPP10simple_ptrIN12_GLOBAL__N_116AppleMachineInfoEED1Ev, symObjAddr: 0xB24, symBinAddr: 0x100010A40, symSize: 0x30 }
  - { offsetInCU: 0x7A, offset: 0x3CB89, size: 0x8, addend: 0x0, symName: __ZN8CryptoPPlsERNSt3__113basic_ostreamIcNS0_11char_traitsIcEEEERKNS_7IntegerE, symObjAddr: 0x106B0, symBinAddr: 0x100020F40, symSize: 0x4F8 }
  - { offsetInCU: 0xDB4, offset: 0x3D8C3, size: 0x8, addend: 0x0, symName: __ZN8CryptoPP11IntToStringINS_7IntegerEEENSt3__112basic_stringIcNS2_11char_traitsIcEENS2_9allocatorIcEEEET_j, symObjAddr: 0x18000, symBinAddr: 0x100028890, symSize: 0x5AC }
  - { offsetInCU: 0x1C7D, offset: 0x3E78C, size: 0x8, addend: 0x0, symName: __ZN8CryptoPP11IntToStringImEENSt3__112basic_stringIcNS1_11char_traitsIcEENS1_9allocatorIcEEEET_j, symObjAddr: 0x185AC, symBinAddr: 0x100028E3C, symSize: 0x1D0 }
  - { offsetInCU: 0x281B, offset: 0x3F32A, size: 0x8, addend: 0x0, symName: __MergedGlobals, symObjAddr: 0x20CD0, symBinAddr: 0x100118048, symSize: 0x0 }
  - { offsetInCU: 0x284D, offset: 0x3F35C, size: 0x8, addend: 0x0, symName: __MergedGlobals, symObjAddr: 0x20CD0, symBinAddr: 0x100118048, symSize: 0x0 }
  - { offsetInCU: 0x2876, offset: 0x3F385, size: 0x8, addend: 0x0, symName: __MergedGlobals, symObjAddr: 0x20CD0, symBinAddr: 0x100118048, symSize: 0x0 }
  - { offsetInCU: 0x2894, offset: 0x3F3A3, size: 0x8, addend: 0x0, symName: __MergedGlobals, symObjAddr: 0x20CD0, symBinAddr: 0x100118048, symSize: 0x0 }
  - { offsetInCU: 0x28BE, offset: 0x3F3CD, size: 0x8, addend: 0x0, symName: __ZN8CryptoPPL16RoundupSizeTableE, symObjAddr: 0x1F534, symBinAddr: 0x1000E088C, symSize: 0x0 }
  - { offsetInCU: 0x62DF, offset: 0x42DEE, size: 0x8, addend: 0x0, symName: __ZN8CryptoPP12Baseline_AddEmPmPKmS2_, symObjAddr: 0x1A0, symBinAddr: 0x100010C24, symSize: 0x74 }
  - { offsetInCU: 0x6329, offset: 0x42E38, size: 0x8, addend: 0x0, symName: __ZN8CryptoPP12Baseline_AddEmPmPKmS2_, symObjAddr: 0x1A0, symBinAddr: 0x100010C24, symSize: 0x74 }
  - { offsetInCU: 0x635B, offset: 0x42E6A, size: 0x8, addend: 0x0, symName: __ZN8CryptoPP12Baseline_SubEmPmPKmS2_, symObjAddr: 0x214, symBinAddr: 0x100010C98, symSize: 0x7C }
  - { offsetInCU: 0x63A5, offset: 0x42EB4, size: 0x8, addend: 0x0, symName: __ZN8CryptoPP12Baseline_SubEmPmPKmS2_, symObjAddr: 0x214, symBinAddr: 0x100010C98, symSize: 0x7C }
  - { offsetInCU: 0x63F1, offset: 0x42F00, size: 0x8, addend: 0x0, symName: __ZN8CryptoPP18Baseline_Multiply2EPmPKmS2_, symObjAddr: 0x290, symBinAddr: 0x100010D14, symSize: 0x68 }
  - { offsetInCU: 0x6460, offset: 0x42F6F, size: 0x8, addend: 0x0, symName: __ZN8CryptoPP18Baseline_Multiply4EPmPKmS2_, symObjAddr: 0x2F8, symBinAddr: 0x100010D7C, symSize: 0x1D0 }
  - { offsetInCU: 0x6517, offset: 0x43026, size: 0x8, addend: 0x0, symName: __ZN8CryptoPP18Baseline_Multiply8EPmPKmS2_, symObjAddr: 0x4C8, symBinAddr: 0x100010F4C, symSize: 0x764 }
  - { offsetInCU: 0x65CE, offset: 0x430DD, size: 0x8, addend: 0x0, symName: __ZN8CryptoPP16Baseline_Square2EPmPKm, symObjAddr: 0xC2C, symBinAddr: 0x1000116B0, symSize: 0x48 }
  - { offsetInCU: 0x668B, offset: 0x4319A, size: 0x8, addend: 0x0, symName: __ZN8CryptoPP16Baseline_Square4EPmPKm, symObjAddr: 0xC74, symBinAddr: 0x1000116F8, symSize: 0x138 }
  - { offsetInCU: 0x6748, offset: 0x43257, size: 0x8, addend: 0x0, symName: __ZN8CryptoPP16Baseline_Square8EPmPKm, symObjAddr: 0xDAC, symBinAddr: 0x100011830, symSize: 0x470 }
  - { offsetInCU: 0x6805, offset: 0x43314, size: 0x8, addend: 0x0, symName: __ZN8CryptoPP24Baseline_MultiplyBottom2EPmPKmS2_, symObjAddr: 0x121C, symBinAddr: 0x100011CA0, symSize: 0x2C }
  - { offsetInCU: 0x68BC, offset: 0x433CB, size: 0x8, addend: 0x0, symName: __ZN8CryptoPP24Baseline_MultiplyBottom4EPmPKmS2_, symObjAddr: 0x1248, symBinAddr: 0x100011CCC, symSize: 0xB4 }
  - { offsetInCU: 0x6973, offset: 0x43482, size: 0x8, addend: 0x0, symName: __ZN8CryptoPP24Baseline_MultiplyBottom8EPmPKmS2_, symObjAddr: 0x12FC, symBinAddr: 0x100011D80, symSize: 0x334 }
  - { offsetInCU: 0x6AC7, offset: 0x435D6, size: 0x8, addend: 0x0, symName: __ZN8CryptoPP21Baseline_MultiplyTop2EPmPKmS2_m, symObjAddr: 0x1630, symBinAddr: 0x1000120B4, symSize: 0x4C }
  - { offsetInCU: 0x6B2E, offset: 0x4363D, size: 0x8, addend: 0x0, symName: __ZN8CryptoPP21Baseline_MultiplyTop2EPmPKmS2_m, symObjAddr: 0x1630, symBinAddr: 0x1000120B4, symSize: 0x4C }
  - { offsetInCU: 0x6B94, offset: 0x436A3, size: 0x8, addend: 0x0, symName: __ZN8CryptoPP21Baseline_MultiplyTop4EPmPKmS2_m, symObjAddr: 0x167C, symBinAddr: 0x100012100, symSize: 0x154 }
  - { offsetInCU: 0x6C59, offset: 0x43768, size: 0x8, addend: 0x0, symName: __ZN8CryptoPP21Baseline_MultiplyTop8EPmPKmS2_m, symObjAddr: 0x17D0, symBinAddr: 0x100012254, symSize: 0x488 }
  - { offsetInCU: 0x6D21, offset: 0x43830, size: 0x8, addend: 0x0, symName: __ZN8CryptoPP19Baseline_Multiply16EPmPKmS2_, symObjAddr: 0x1C58, symBinAddr: 0x1000126DC, symSize: 0x1CE4 }
  - { offsetInCU: 0x6DD8, offset: 0x438E7, size: 0x8, addend: 0x0, symName: __ZN8CryptoPP17Baseline_Square16EPmPKm, symObjAddr: 0x393C, symBinAddr: 0x1000143C0, symSize: 0x1038 }
  - { offsetInCU: 0x6E95, offset: 0x439A4, size: 0x8, addend: 0x0, symName: __ZN8CryptoPP25Baseline_MultiplyBottom16EPmPKmS2_, symObjAddr: 0x4974, symBinAddr: 0x1000153F8, symSize: 0xD8C }
  - { offsetInCU: 0x6F4C, offset: 0x43A5B, size: 0x8, addend: 0x0, symName: __ZN8CryptoPP22Baseline_MultiplyTop16EPmPKmS2_m, symObjAddr: 0x5700, symBinAddr: 0x100016184, symSize: 0x10B4 }
  - { offsetInCU: 0x724E, offset: 0x43D5D, size: 0x8, addend: 0x0, symName: __ZN8CryptoPP17RecursiveMultiplyEPmS0_PKmS2_m, symObjAddr: 0x67B4, symBinAddr: 0x100017238, symSize: 0x52C }
  - { offsetInCU: 0x7883, offset: 0x44392, size: 0x8, addend: 0x0, symName: __ZN8CryptoPP15RecursiveSquareEPmS0_PKmm, symObjAddr: 0x6CE0, symBinAddr: 0x100017764, symSize: 0x1DC }
  - { offsetInCU: 0x7AE7, offset: 0x445F6, size: 0x8, addend: 0x0, symName: __ZN8CryptoPP23RecursiveMultiplyBottomEPmS0_PKmS2_m, symObjAddr: 0x6EBC, symBinAddr: 0x100017940, symSize: 0x188 }
  - { offsetInCU: 0x7D8E, offset: 0x4489D, size: 0x8, addend: 0x0, symName: __ZN8CryptoPP11MultiplyTopEPmS0_PKmS2_S2_m, symObjAddr: 0x7044, symBinAddr: 0x100017AC8, symSize: 0x6C8 }
  - { offsetInCU: 0x8737, offset: 0x45246, size: 0x8, addend: 0x0, symName: __ZN8CryptoPP18AsymmetricMultiplyEPmS0_PKmmS2_m, symObjAddr: 0x770C, symBinAddr: 0x100018190, symSize: 0x3A0 }
  - { offsetInCU: 0x8D71, offset: 0x45880, size: 0x8, addend: 0x0, symName: __ZN8CryptoPP25RecursiveInverseModPower2EPmS0_PKmm, symObjAddr: 0x7AAC, symBinAddr: 0x100018530, symSize: 0x248 }
  - { offsetInCU: 0x91A7, offset: 0x45CB6, size: 0x8, addend: 0x0, symName: __ZN8CryptoPP16MontgomeryReduceEPmS0_S0_PKmS2_m, symObjAddr: 0x7CF4, symBinAddr: 0x100018778, symSize: 0x160 }
  - { offsetInCU: 0x9442, offset: 0x45F51, size: 0x8, addend: 0x0, symName: __ZN8CryptoPP20HalfMontgomeryReduceEPmS0_PKmS2_S2_S2_m, symObjAddr: 0x7E54, symBinAddr: 0x1000188D8, symSize: 0x50C }
  - { offsetInCU: 0x9F2E, offset: 0x46A3D, size: 0x8, addend: 0x0, symName: __ZN8CryptoPP6DivideEPmS0_S0_PKmmS2_m, symObjAddr: 0x8360, symBinAddr: 0x100018DE4, symSize: 0x6B0 }
  - { offsetInCU: 0xA9CC, offset: 0x474DB, size: 0x8, addend: 0x0, symName: __ZN8CryptoPP13AlmostInverseEPmS0_PKmmS2_m, symObjAddr: 0x8A10, symBinAddr: 0x100019494, symSize: 0x4FC }
  - { offsetInCU: 0xB132, offset: 0x47C41, size: 0x8, addend: 0x0, symName: __ZN8CryptoPP17DivideByPower2ModEPmPKmmS2_m, symObjAddr: 0x8F0C, symBinAddr: 0x100019990, symSize: 0x11C }
  - { offsetInCU: 0xB27E, offset: 0x47D8D, size: 0x8, addend: 0x0, symName: __ZN8CryptoPP19MultiplyByPower2ModEPmPKmmS2_m, symObjAddr: 0x9028, symBinAddr: 0x100019AAC, symSize: 0x11C }
  - { offsetInCU: 0xBF6D, offset: 0x48A7C, size: 0x8, addend: 0x0, symName: __ZN8CryptoPP11PositiveAddERNS_7IntegerERKS0_S3_, symObjAddr: 0x11D80, symBinAddr: 0x100022610, symSize: 0x33C }
  - { offsetInCU: 0xC633, offset: 0x49142, size: 0x8, addend: 0x0, symName: __ZN8CryptoPP16PositiveSubtractERNS_7IntegerERKS0_S3_, symObjAddr: 0x120BC, symBinAddr: 0x10002294C, symSize: 0x378 }
  - { offsetInCU: 0xD1D5, offset: 0x49CE4, size: 0x8, addend: 0x0, symName: __ZN8CryptoPPrsERNSt3__113basic_istreamIcNS0_11char_traitsIcEEEERNS_7IntegerE, symObjAddr: 0x10294, symBinAddr: 0x100020B24, symSize: 0x248 }
  - { offsetInCU: 0xD9F0, offset: 0x4A4FF, size: 0x8, addend: 0x0, symName: __ZN8CryptoPP16PositiveMultiplyERNS_7IntegerERKS0_S3_, symObjAddr: 0x13148, symBinAddr: 0x1000239D8, symSize: 0x354 }
  - { offsetInCU: 0xE050, offset: 0x4AB5F, size: 0x8, addend: 0x0, symName: __ZN8CryptoPP8MultiplyERNS_7IntegerERKS0_S3_, symObjAddr: 0x1349C, symBinAddr: 0x100023D2C, symSize: 0x98 }
  - { offsetInCU: 0xE22F, offset: 0x4AD3E, size: 0x8, addend: 0x0, symName: __ZN8CryptoPP14PositiveDivideERNS_7IntegerES1_RKS0_S3_, symObjAddr: 0x136E8, symBinAddr: 0x100023F78, symSize: 0x448 }
  - { offsetInCU: 0xEAB1, offset: 0x4B5C0, size: 0x8, addend: 0x0, symName: __ZN8CryptoPP15a_times_b_mod_cERKNS_7IntegerES2_S2_, symObjAddr: 0x151B0, symBinAddr: 0x100025A40, symSize: 0x104 }
  - { offsetInCU: 0xF8CD, offset: 0x4C3DC, size: 0x8, addend: 0x0, symName: __ZN8CryptoPP13a_exp_b_mod_cERKNS_7IntegerES2_S2_, symObjAddr: 0x152B4, symBinAddr: 0x100025B44, symSize: 0xE8 }
  - { offsetInCU: 0xFF40, offset: 0x4CA4F, size: 0x8, addend: 0x0, symName: __ZN8CryptoPP4ASN112id_fieldTypeEv, symObjAddr: 0x1BDEC, symBinAddr: 0x10002B6E0, symSize: 0xCC }
  - { offsetInCU: 0x10478, offset: 0x4CF87, size: 0x8, addend: 0x0, symName: __ZN8CryptoPP4ASN16iso_usEv, symObjAddr: 0x1BECC, symBinAddr: 0x10002B7C0, symSize: 0xDC }
  - { offsetInCU: 0x10BF2, offset: 0x4D701, size: 0x8, addend: 0x0, symName: __ZN8CryptoPPplERKNS_3OIDEm, symObjAddr: 0x1BA64, symBinAddr: 0x10002B358, symSize: 0x388 }
  - { offsetInCU: 0x11CA8, offset: 0x4E7B7, size: 0x8, addend: 0x0, symName: __ZN8CryptoPP18AssignIntToIntegerERKSt9type_infoPvPKv, symObjAddr: 0x1877C, symBinAddr: 0x10002900C, symSize: 0x1D8 }
  - { offsetInCU: 0x1224A, offset: 0x4ED59, size: 0x8, addend: 0x0, symName: __ZN8CryptoPP17InitializeIntegerC2Ev, symObjAddr: 0x0, symBinAddr: 0x100010A84, symSize: 0xD0 }
  - { offsetInCU: 0x1226E, offset: 0x4ED7D, size: 0x8, addend: 0x0, symName: __ZZN8CryptoPP17InitializeIntegerC1EvE6s_flag, symObjAddr: 0x12B9DC, symBinAddr: 0x1001182A8, symSize: 0x0 }
  - { offsetInCU: 0x18555, offset: 0x55064, size: 0x8, addend: 0x0, symName: __ZNSt3__12wsB7v160006IcNS_11char_traitsIcEEEERNS_13basic_istreamIT_T0_EES7_, symObjAddr: 0x104DC, symBinAddr: 0x100020D6C, symSize: 0x188 }
  - { offsetInCU: 0x19504, offset: 0x56013, size: 0x8, addend: 0x0, symName: __ZSt28__throw_bad_array_new_lengthB7v160006v, symObjAddr: 0x1A610, symBinAddr: 0x10002A3B8, symSize: 0x28 }
  - { offsetInCU: 0x1972D, offset: 0x5623C, size: 0x8, addend: 0x0, symName: __ZNK8CryptoPP9SingletonINS_7IntegerENS_10NewIntegerILl0EEELi0EE3RefEv, symObjAddr: 0x18954, symBinAddr: 0x1000291E4, symSize: 0x1E0 }
  - { offsetInCU: 0x19754, offset: 0x56263, size: 0x8, addend: 0x0, symName: __ZZNK8CryptoPP9SingletonINS_7IntegerENS_10NewIntegerILl0EEELi0EE3RefEvE9s_pObject, symObjAddr: 0x20CA0, symBinAddr: 0x100118018, symSize: 0x0 }
  - { offsetInCU: 0x19960, offset: 0x5646F, size: 0x8, addend: 0x0, symName: __ZNK8CryptoPP9SingletonINS_7IntegerENS_10NewIntegerILl1EEELi0EE3RefEv, symObjAddr: 0x18B34, symBinAddr: 0x1000293C4, symSize: 0x20C }
  - { offsetInCU: 0x19987, offset: 0x56496, size: 0x8, addend: 0x0, symName: __ZZNK8CryptoPP9SingletonINS_7IntegerENS_10NewIntegerILl1EEELi0EE3RefEvE9s_pObject, symObjAddr: 0x20CB0, symBinAddr: 0x100118028, symSize: 0x0 }
  - { offsetInCU: 0x19CEB, offset: 0x567FA, size: 0x8, addend: 0x0, symName: __ZNK8CryptoPP9SingletonINS_7IntegerENS_10NewIntegerILl2EEELi0EE3RefEv, symObjAddr: 0x18D60, symBinAddr: 0x1000295F0, symSize: 0x20C }
  - { offsetInCU: 0x19D12, offset: 0x56821, size: 0x8, addend: 0x0, symName: __ZZNK8CryptoPP9SingletonINS_7IntegerENS_10NewIntegerILl2EEELi0EE3RefEvE9s_pObject, symObjAddr: 0x20CC0, symBinAddr: 0x100118038, symSize: 0x0 }
  - { offsetInCU: 0x1C3B0, offset: 0x58EBF, size: 0x8, addend: 0x0, symName: __ZN8CryptoPP17InitializeIntegerC1Ev, symObjAddr: 0xD0, symBinAddr: 0x100010B54, symSize: 0xD0 }
  - { offsetInCU: 0x1C3DC, offset: 0x58EEB, size: 0x8, addend: 0x0, symName: __ZN8CryptoPP17InitializeIntegerC1Ev, symObjAddr: 0xD0, symBinAddr: 0x100010B54, symSize: 0xD0 }
  - { offsetInCU: 0x1C589, offset: 0x59098, size: 0x8, addend: 0x0, symName: __ZN8CryptoPP7IntegerC2Ev, symObjAddr: 0x9144, symBinAddr: 0x100019BC8, symSize: 0x118 }
  - { offsetInCU: 0x1C6C7, offset: 0x591D6, size: 0x8, addend: 0x0, symName: __ZN8CryptoPP8SecBlockImNS_20AllocatorWithCleanupImLb1EEEED1Ev, symObjAddr: 0x925C, symBinAddr: 0x100019CE0, symSize: 0x4C }
  - { offsetInCU: 0x1C7EB, offset: 0x592FA, size: 0x8, addend: 0x0, symName: __ZN8CryptoPP7IntegerC1Ev, symObjAddr: 0x92B4, symBinAddr: 0x100019D2C, symSize: 0x118 }
  - { offsetInCU: 0x1C944, offset: 0x59453, size: 0x8, addend: 0x0, symName: __ZN8CryptoPP7IntegerC2ERKS0_, symObjAddr: 0x93CC, symBinAddr: 0x100019E44, symSize: 0x208 }
  - { offsetInCU: 0x1CB74, offset: 0x59683, size: 0x8, addend: 0x0, symName: __ZN8CryptoPP13AllocatorBaseImE9CheckSizeEm, symObjAddr: 0x1C404, symBinAddr: 0x10002BCF8, symSize: 0xB4 }
  - { offsetInCU: 0x1CD12, offset: 0x59821, size: 0x8, addend: 0x0, symName: __ZNK8CryptoPP7Integer9WordCountEv, symObjAddr: 0x95D4, symBinAddr: 0x10001A04C, symSize: 0x20 }
  - { offsetInCU: 0x1CD37, offset: 0x59846, size: 0x8, addend: 0x0, symName: __ZNK8CryptoPP7Integer9WordCountEv, symObjAddr: 0x95D4, symBinAddr: 0x10001A04C, symSize: 0x20 }
  - { offsetInCU: 0x1CD75, offset: 0x59884, size: 0x8, addend: 0x0, symName: __ZN8CryptoPP7IntegerC1ERKS0_, symObjAddr: 0x95F4, symBinAddr: 0x10001A06C, symSize: 0x4 }
  - { offsetInCU: 0x1CDA0, offset: 0x598AF, size: 0x8, addend: 0x0, symName: __ZN8CryptoPP7IntegerC1ERKS0_, symObjAddr: 0x95F4, symBinAddr: 0x10001A06C, symSize: 0x4 }
  - { offsetInCU: 0x1CDBD, offset: 0x598CC, size: 0x8, addend: 0x0, symName: __ZN8CryptoPP7IntegerC2ENS0_4SignEm, symObjAddr: 0x95F8, symBinAddr: 0x10001A070, symSize: 0x128 }
  - { offsetInCU: 0x1CEF3, offset: 0x59A02, size: 0x8, addend: 0x0, symName: __ZN8CryptoPP7IntegerC1ENS0_4SignEm, symObjAddr: 0x9720, symBinAddr: 0x10001A198, symSize: 0x128 }
  - { offsetInCU: 0x1D03A, offset: 0x59B49, size: 0x8, addend: 0x0, symName: __ZN8CryptoPP7IntegerC2El, symObjAddr: 0x9848, symBinAddr: 0x10001A2C0, symSize: 0x128 }
  - { offsetInCU: 0x1D159, offset: 0x59C68, size: 0x8, addend: 0x0, symName: __ZN8CryptoPP7IntegerC1El, symObjAddr: 0x9970, symBinAddr: 0x10001A3E8, symSize: 0x128 }
  - { offsetInCU: 0x1D277, offset: 0x59D86, size: 0x8, addend: 0x0, symName: __ZN8CryptoPP7IntegerC2ENS0_4SignEmm, symObjAddr: 0x9A98, symBinAddr: 0x10001A510, symSize: 0x12C }
  - { offsetInCU: 0x1D3C4, offset: 0x59ED3, size: 0x8, addend: 0x0, symName: __ZN8CryptoPP7IntegerC1ENS0_4SignEmm, symObjAddr: 0x9BC4, symBinAddr: 0x10001A63C, symSize: 0x12C }
  - { offsetInCU: 0x1D54A, offset: 0x5A059, size: 0x8, addend: 0x0, symName: __ZNK8CryptoPP7Integer19IsConvertableToLongEv, symObjAddr: 0x9CF0, symBinAddr: 0x10001A768, symSize: 0x9C }
  - { offsetInCU: 0x1D587, offset: 0x5A096, size: 0x8, addend: 0x0, symName: __ZNK8CryptoPP7Integer19IsConvertableToLongEv, symObjAddr: 0x9CF0, symBinAddr: 0x10001A768, symSize: 0x9C }
  - { offsetInCU: 0x1D5AF, offset: 0x5A0BE, size: 0x8, addend: 0x0, symName: __ZNK8CryptoPP7Integer19IsConvertableToLongEv, symObjAddr: 0x9CF0, symBinAddr: 0x10001A768, symSize: 0x9C }
  - { offsetInCU: 0x1D5CD, offset: 0x5A0DC, size: 0x8, addend: 0x0, symName: __ZNK8CryptoPP7Integer19IsConvertableToLongEv, symObjAddr: 0x9CF0, symBinAddr: 0x10001A768, symSize: 0x9C }
  - { offsetInCU: 0x1D653, offset: 0x5A162, size: 0x8, addend: 0x0, symName: __ZNK8CryptoPP7Integer9ByteCountEv, symObjAddr: 0x9D8C, symBinAddr: 0x10001A804, symSize: 0x70 }
  - { offsetInCU: 0x1D682, offset: 0x5A191, size: 0x8, addend: 0x0, symName: __ZNK8CryptoPP7Integer9ByteCountEv, symObjAddr: 0x9D8C, symBinAddr: 0x10001A804, symSize: 0x70 }
  - { offsetInCU: 0x1D6A0, offset: 0x5A1AF, size: 0x8, addend: 0x0, symName: __ZNK8CryptoPP7Integer9ByteCountEv, symObjAddr: 0x9D8C, symBinAddr: 0x10001A804, symSize: 0x70 }
  - { offsetInCU: 0x1D72D, offset: 0x5A23C, size: 0x8, addend: 0x0, symName: __ZNK8CryptoPP7Integer13ConvertToLongEv, symObjAddr: 0x9DFC, symBinAddr: 0x10001A874, symSize: 0x18 }
  - { offsetInCU: 0x1D76A, offset: 0x5A279, size: 0x8, addend: 0x0, symName: __ZNK8CryptoPP7Integer13ConvertToLongEv, symObjAddr: 0x9DFC, symBinAddr: 0x10001A874, symSize: 0x18 }
  - { offsetInCU: 0x1D95E, offset: 0x5A46D, size: 0x8, addend: 0x0, symName: __ZN8CryptoPP7IntegerC2ERNS_22BufferedTransformationEmNS0_10SignednessENS_9ByteOrderE, symObjAddr: 0x9E14, symBinAddr: 0x10001A88C, symSize: 0x264 }
  - { offsetInCU: 0x1DE18, offset: 0x5A927, size: 0x8, addend: 0x0, symName: __ZN8CryptoPP7Integer6DecodeERNS_22BufferedTransformationEmNS0_10SignednessE, symObjAddr: 0xA078, symBinAddr: 0x10001AAF0, symSize: 0x374 }
  - { offsetInCU: 0x1E386, offset: 0x5AE95, size: 0x8, addend: 0x0, symName: __ZN8CryptoPP11StringStoreC2EPKhm, symObjAddr: 0x197A8, symBinAddr: 0x100029F74, symSize: 0x18C }
  - { offsetInCU: 0x1ED9A, offset: 0x5B8A9, size: 0x8, addend: 0x0, symName: __ZN8CryptoPP7Integer6DecodeEPKhmNS0_10SignednessE, symObjAddr: 0xA3EC, symBinAddr: 0x10001AE64, symSize: 0x7C }
  - { offsetInCU: 0x1EE64, offset: 0x5B973, size: 0x8, addend: 0x0, symName: __ZN8CryptoPP7IntegerC1ERNS_22BufferedTransformationEmNS0_10SignednessENS_9ByteOrderE, symObjAddr: 0xA4B4, symBinAddr: 0x10001AEE0, symSize: 0x4 }
  - { offsetInCU: 0x1EEC9, offset: 0x5B9D8, size: 0x8, addend: 0x0, symName: __ZN8CryptoPP7IntegerC1ERNS_22BufferedTransformationEmNS0_10SignednessENS_9ByteOrderE, symObjAddr: 0xA4B4, symBinAddr: 0x10001AEE0, symSize: 0x4 }
  - { offsetInCU: 0x1EEFE, offset: 0x5BA0D, size: 0x8, addend: 0x0, symName: __ZN8CryptoPP7IntegerC2EPKhmNS0_10SignednessENS_9ByteOrderE, symObjAddr: 0xA4B8, symBinAddr: 0x10001AEE4, symSize: 0x308 }
  - { offsetInCU: 0x1F365, offset: 0x5BE74, size: 0x8, addend: 0x0, symName: __ZN8CryptoPP7IntegerC1EPKhmNS0_10SignednessENS_9ByteOrderE, symObjAddr: 0xA7C0, symBinAddr: 0x10001B1EC, symSize: 0x4 }
  - { offsetInCU: 0x1F3CA, offset: 0x5BED9, size: 0x8, addend: 0x0, symName: __ZN8CryptoPP7IntegerC1EPKhmNS0_10SignednessENS_9ByteOrderE, symObjAddr: 0xA7C0, symBinAddr: 0x10001B1EC, symSize: 0x4 }
  - { offsetInCU: 0x1F3FF, offset: 0x5BF0E, size: 0x8, addend: 0x0, symName: __ZN8CryptoPP7IntegerC2ERNS_22BufferedTransformationE, symObjAddr: 0xA7C4, symBinAddr: 0x10001B1F0, symSize: 0x124 }
  - { offsetInCU: 0x1F4DC, offset: 0x5BFEB, size: 0x8, addend: 0x0, symName: __ZN8CryptoPP7Integer9BERDecodeERNS_22BufferedTransformationE, symObjAddr: 0xA8E8, symBinAddr: 0x10001B314, symSize: 0x17C }
  - { offsetInCU: 0x1FD7E, offset: 0x5C88D, size: 0x8, addend: 0x0, symName: __ZN8CryptoPP7IntegerC1ERNS_22BufferedTransformationE, symObjAddr: 0xAA64, symBinAddr: 0x10001B490, symSize: 0x148 }
  - { offsetInCU: 0x1FF64, offset: 0x5CA73, size: 0x8, addend: 0x0, symName: __ZN8CryptoPP7IntegerC2ERNS_21RandomNumberGeneratorEm, symObjAddr: 0xABAC, symBinAddr: 0x10001B5D8, symSize: 0x124 }
  - { offsetInCU: 0x2004B, offset: 0x5CB5A, size: 0x8, addend: 0x0, symName: __ZN8CryptoPP7Integer9RandomizeERNS_21RandomNumberGeneratorEm, symObjAddr: 0xACD0, symBinAddr: 0x10001B6FC, symSize: 0x124 }
  - { offsetInCU: 0x203CC, offset: 0x5CEDB, size: 0x8, addend: 0x0, symName: __ZN8CryptoPP7IntegerC1ERNS_21RandomNumberGeneratorEm, symObjAddr: 0xADF4, symBinAddr: 0x10001B820, symSize: 0x148 }
  - { offsetInCU: 0x205CD, offset: 0x5D0DC, size: 0x8, addend: 0x0, symName: __ZN8CryptoPP7IntegerC2ERNS_21RandomNumberGeneratorERKS0_S4_NS0_16RandomNumberTypeES4_S4_, symObjAddr: 0xAF3C, symBinAddr: 0x10001B968, symSize: 0x16C }
  - { offsetInCU: 0x2070B, offset: 0x5D21A, size: 0x8, addend: 0x0, symName: __ZN8CryptoPP7Integer9RandomizeERNS_21RandomNumberGeneratorERKS0_S4_NS0_16RandomNumberTypeES4_S4_, symObjAddr: 0xB0A8, symBinAddr: 0x10001BAD4, symSize: 0x1B8 }
  - { offsetInCU: 0x20C1C, offset: 0x5D72B, size: 0x8, addend: 0x0, symName: __ZN8CryptoPP7Integer20RandomNumberNotFoundC1Ev, symObjAddr: 0xB260, symBinAddr: 0x10001BC8C, symSize: 0xCC }
  - { offsetInCU: 0x214C8, offset: 0x5DFD7, size: 0x8, addend: 0x0, symName: __ZN8CryptoPP19AlgorithmParametersclINS_7IntegerEEERS0_PKcRKT_b, symObjAddr: 0x1C4B8, symBinAddr: 0x10002BDAC, symSize: 0xF0 }
  - { offsetInCU: 0x21762, offset: 0x5E271, size: 0x8, addend: 0x0, symName: __ZN8CryptoPP7Integer21GenerateRandomNoThrowERNS_21RandomNumberGeneratorERKNS_14NameValuePairsE, symObjAddr: 0xECA0, symBinAddr: 0x10001F57C, symSize: 0x13AC }
  - { offsetInCU: 0x2554B, offset: 0x6205A, size: 0x8, addend: 0x0, symName: __ZN8CryptoPP7Integer20RandomNumberNotFoundD1Ev, symObjAddr: 0xB32C, symBinAddr: 0x10001BD58, symSize: 0x50 }
  - { offsetInCU: 0x256E4, offset: 0x621F3, size: 0x8, addend: 0x0, symName: __ZN8CryptoPP7IntegerC1ERNS_21RandomNumberGeneratorERKS0_S4_NS0_16RandomNumberTypeES4_S4_, symObjAddr: 0xB37C, symBinAddr: 0x10001BDA8, symSize: 0x4 }
  - { offsetInCU: 0x25765, offset: 0x62274, size: 0x8, addend: 0x0, symName: __ZN8CryptoPP7IntegerC1ERNS_21RandomNumberGeneratorERKS0_S4_NS0_16RandomNumberTypeES4_S4_, symObjAddr: 0xB37C, symBinAddr: 0x10001BDA8, symSize: 0x4 }
  - { offsetInCU: 0x257E0, offset: 0x622EF, size: 0x8, addend: 0x0, symName: __ZN8CryptoPP7Integer6Power2Em, symObjAddr: 0xB380, symBinAddr: 0x10001BDAC, symSize: 0x58 }
  - { offsetInCU: 0x258A7, offset: 0x623B6, size: 0x8, addend: 0x0, symName: __ZN8CryptoPP7IntegerC2Emm, symObjAddr: 0xBB14, symBinAddr: 0x10001C540, symSize: 0x234 }
  - { offsetInCU: 0x25ACB, offset: 0x625DA, size: 0x8, addend: 0x0, symName: __ZN8CryptoPP7Integer6SetBitEmb, symObjAddr: 0xB3DC, symBinAddr: 0x10001BE08, symSize: 0x1A8 }
  - { offsetInCU: 0x25E28, offset: 0x62937, size: 0x8, addend: 0x0, symName: __ZN8CryptoPP7IntegerD1Ev, symObjAddr: 0xB584, symBinAddr: 0x10001BFB0, symSize: 0x58 }
  - { offsetInCU: 0x25F71, offset: 0x62A80, size: 0x8, addend: 0x0, symName: __ZN8CryptoPP7IntegerC1Emm, symObjAddr: 0xB3D8, symBinAddr: 0x10001BE04, symSize: 0x4 }
  - { offsetInCU: 0x25FA4, offset: 0x62AB3, size: 0x8, addend: 0x0, symName: __ZN8CryptoPP7IntegerC1Emm, symObjAddr: 0xB3D8, symBinAddr: 0x10001BE04, symSize: 0x4 }
  - { offsetInCU: 0x2601E, offset: 0x62B2D, size: 0x8, addend: 0x0, symName: __ZNK8CryptoPP7IntegerntEv, symObjAddr: 0xB5DC, symBinAddr: 0x10001C008, symSize: 0x50 }
  - { offsetInCU: 0x26043, offset: 0x62B52, size: 0x8, addend: 0x0, symName: __ZNK8CryptoPP7IntegerntEv, symObjAddr: 0xB5DC, symBinAddr: 0x10001C008, symSize: 0x50 }
  - { offsetInCU: 0x260E0, offset: 0x62BEF, size: 0x8, addend: 0x0, symName: __ZN8CryptoPP7IntegeraSERKS0_, symObjAddr: 0xB62C, symBinAddr: 0x10001C058, symSize: 0x170 }
  - { offsetInCU: 0x263E6, offset: 0x62EF5, size: 0x8, addend: 0x0, symName: __ZNK8CryptoPP7Integer6GetBitEm, symObjAddr: 0xB79C, symBinAddr: 0x10001C1C8, symSize: 0x2C }
  - { offsetInCU: 0x26453, offset: 0x62F62, size: 0x8, addend: 0x0, symName: __ZNK8CryptoPP7Integer7GetByteEm, symObjAddr: 0xB7C8, symBinAddr: 0x10001C1F4, symSize: 0x38 }
  - { offsetInCU: 0x264C0, offset: 0x62FCF, size: 0x8, addend: 0x0, symName: __ZN8CryptoPP7Integer7SetByteEmh, symObjAddr: 0xB800, symBinAddr: 0x10001C22C, symSize: 0x1B0 }
  - { offsetInCU: 0x267FB, offset: 0x6330A, size: 0x8, addend: 0x0, symName: __ZNK8CryptoPP7Integer7GetBitsEmm, symObjAddr: 0xB9B0, symBinAddr: 0x10001C3DC, symSize: 0x60 }
  - { offsetInCU: 0x26850, offset: 0x6335F, size: 0x8, addend: 0x0, symName: __ZNK8CryptoPP7Integer7GetBitsEmm, symObjAddr: 0xB9B0, symBinAddr: 0x10001C3DC, symSize: 0x60 }
  - { offsetInCU: 0x26912, offset: 0x63421, size: 0x8, addend: 0x0, symName: __ZNK8CryptoPP7IntegerngEv, symObjAddr: 0xBA10, symBinAddr: 0x10001C43C, symSize: 0x64 }
  - { offsetInCU: 0x26A58, offset: 0x63567, size: 0x8, addend: 0x0, symName: __ZN8CryptoPP7Integer6NegateEv, symObjAddr: 0xBA74, symBinAddr: 0x10001C4A0, symSize: 0x4C }
  - { offsetInCU: 0x26A93, offset: 0x635A2, size: 0x8, addend: 0x0, symName: __ZN8CryptoPP7Integer6NegateEv, symObjAddr: 0xBA74, symBinAddr: 0x10001C4A0, symSize: 0x4C }
  - { offsetInCU: 0x26B33, offset: 0x63642, size: 0x8, addend: 0x0, symName: __ZNK8CryptoPP7Integer13AbsoluteValueEv, symObjAddr: 0xBAC0, symBinAddr: 0x10001C4EC, symSize: 0x20 }
  - { offsetInCU: 0x26BCE, offset: 0x636DD, size: 0x8, addend: 0x0, symName: __ZN8CryptoPP7Integer4swapERS0_, symObjAddr: 0xBAE0, symBinAddr: 0x10001C50C, symSize: 0x34 }
  - { offsetInCU: 0x26BF9, offset: 0x63708, size: 0x8, addend: 0x0, symName: __ZN8CryptoPP7Integer4swapERS0_, symObjAddr: 0xBAE0, symBinAddr: 0x10001C50C, symSize: 0x34 }
  - { offsetInCU: 0x26C23, offset: 0x63732, size: 0x8, addend: 0x0, symName: __ZN8CryptoPP7Integer4swapERS0_, symObjAddr: 0xBAE0, symBinAddr: 0x10001C50C, symSize: 0x34 }
  - { offsetInCU: 0x26D5B, offset: 0x6386A, size: 0x8, addend: 0x0, symName: __ZN8CryptoPP7IntegerC2EPKcNS_9ByteOrderE, symObjAddr: 0xBD48, symBinAddr: 0x10001C774, symSize: 0xEDC }
  - { offsetInCU: 0x28D4E, offset: 0x6585D, size: 0x8, addend: 0x0, symName: __ZNK8CryptoPP7Integer5TimesERKS0_, symObjAddr: 0x13534, symBinAddr: 0x100023DC4, symSize: 0x1B4 }
  - { offsetInCU: 0x29056, offset: 0x65B65, size: 0x8, addend: 0x0, symName: __ZN8CryptoPP7IntegerpLERKS0_, symObjAddr: 0xEB54, symBinAddr: 0x10001F430, symSize: 0x14C }
  - { offsetInCU: 0x29345, offset: 0x65E54, size: 0x8, addend: 0x0, symName: __ZN8CryptoPP7IntegerlSEm, symObjAddr: 0x12758, symBinAddr: 0x100022FE8, symSize: 0x244 }
  - { offsetInCU: 0x29787, offset: 0x66296, size: 0x8, addend: 0x0, symName: __ZN8CryptoPP7IntegerC1EPKcNS_9ByteOrderE, symObjAddr: 0xCC24, symBinAddr: 0x10001D650, symSize: 0x4 }
  - { offsetInCU: 0x297BA, offset: 0x662C9, size: 0x8, addend: 0x0, symName: __ZN8CryptoPP7IntegerC1EPKcNS_9ByteOrderE, symObjAddr: 0xCC24, symBinAddr: 0x10001D650, symSize: 0x4 }
  - { offsetInCU: 0x297DF, offset: 0x662EE, size: 0x8, addend: 0x0, symName: __ZN8CryptoPP7IntegerC2EPKwNS_9ByteOrderE, symObjAddr: 0xCC28, symBinAddr: 0x10001D654, symSize: 0xED0 }
  - { offsetInCU: 0x2B7D2, offset: 0x682E1, size: 0x8, addend: 0x0, symName: __ZN8CryptoPP7IntegerC1EPKwNS_9ByteOrderE, symObjAddr: 0xDAF8, symBinAddr: 0x10001E524, symSize: 0x4 }
  - { offsetInCU: 0x2B81B, offset: 0x6832A, size: 0x8, addend: 0x0, symName: __ZN8CryptoPP7IntegerC1EPKwNS_9ByteOrderE, symObjAddr: 0xDAF8, symBinAddr: 0x10001E524, symSize: 0x4 }
  - { offsetInCU: 0x2B840, offset: 0x6834F, size: 0x8, addend: 0x0, symName: __ZNK8CryptoPP7Integer8BitCountEv, symObjAddr: 0xDAFC, symBinAddr: 0x10001E528, symSize: 0x74 }
  - { offsetInCU: 0x2B86F, offset: 0x6837E, size: 0x8, addend: 0x0, symName: __ZNK8CryptoPP7Integer8BitCountEv, symObjAddr: 0xDAFC, symBinAddr: 0x10001E528, symSize: 0x74 }
  - { offsetInCU: 0x2B88D, offset: 0x6839C, size: 0x8, addend: 0x0, symName: __ZNK8CryptoPP7Integer8BitCountEv, symObjAddr: 0xDAFC, symBinAddr: 0x10001E528, symSize: 0x74 }
  - { offsetInCU: 0x2BA39, offset: 0x68548, size: 0x8, addend: 0x0, symName: __ZNK8CryptoPP7Integer14MinEncodedSizeENS0_10SignednessE, symObjAddr: 0xDCC0, symBinAddr: 0x10001E59C, symSize: 0x244 }
  - { offsetInCU: 0x2C096, offset: 0x68BA5, size: 0x8, addend: 0x0, symName: __ZNK8CryptoPP7Integer7CompareERKS0_, symObjAddr: 0x14B58, symBinAddr: 0x1000253E8, symSize: 0x124 }
  - { offsetInCU: 0x2C0C3, offset: 0x68BD2, size: 0x8, addend: 0x0, symName: __ZNK8CryptoPP7Integer7CompareERKS0_, symObjAddr: 0x14B58, symBinAddr: 0x1000253E8, symSize: 0x124 }
  - { offsetInCU: 0x2C0E1, offset: 0x68BF0, size: 0x8, addend: 0x0, symName: __ZNK8CryptoPP7Integer7CompareERKS0_, symObjAddr: 0x14B58, symBinAddr: 0x1000253E8, symSize: 0x124 }
  - { offsetInCU: 0x2C409, offset: 0x68F18, size: 0x8, addend: 0x0, symName: __ZNK8CryptoPP7Integer6EncodeEPhmNS0_10SignednessE, symObjAddr: 0xDF04, symBinAddr: 0x10001E7E0, symSize: 0xA0 }
  - { offsetInCU: 0x2C564, offset: 0x69073, size: 0x8, addend: 0x0, symName: __ZNK8CryptoPP7Integer6EncodeERNS_22BufferedTransformationEmNS0_10SignednessE, symObjAddr: 0xDFA4, symBinAddr: 0x10001E880, symSize: 0x270 }
  - { offsetInCU: 0x2CD9D, offset: 0x698AC, size: 0x8, addend: 0x0, symName: __ZNK8CryptoPP7Integer4PlusERKS0_, symObjAddr: 0x12434, symBinAddr: 0x100022CC4, symSize: 0xE4 }
  - { offsetInCU: 0x2CF59, offset: 0x69A68, size: 0x8, addend: 0x0, symName: __ZNK8CryptoPP7Integer9DEREncodeERNS_22BufferedTransformationE, symObjAddr: 0xE214, symBinAddr: 0x10001EAF0, symSize: 0xA4 }
  - { offsetInCU: 0x2CFE2, offset: 0x69AF1, size: 0x8, addend: 0x0, symName: __ZN8CryptoPP7Integer9BERDecodeEPKhm, symObjAddr: 0xE2B8, symBinAddr: 0x10001EB94, symSize: 0x6C }
  - { offsetInCU: 0x2D0AD, offset: 0x69BBC, size: 0x8, addend: 0x0, symName: __ZNK8CryptoPP7Integer22DEREncodeAsOctetStringERNS_22BufferedTransformationEm, symObjAddr: 0xE324, symBinAddr: 0x10001EC00, symSize: 0x100 }
  - { offsetInCU: 0x2D255, offset: 0x69D64, size: 0x8, addend: 0x0, symName: __ZN8CryptoPP7Integer22BERDecodeAsOctetStringERNS_22BufferedTransformationEm, symObjAddr: 0xE424, symBinAddr: 0x10001ED00, symSize: 0x170 }
  - { offsetInCU: 0x2D84D, offset: 0x6A35C, size: 0x8, addend: 0x0, symName: __ZNK8CryptoPP7Integer13OpenPGPEncodeEPhm, symObjAddr: 0xE594, symBinAddr: 0x10001EE70, symSize: 0x94 }
  - { offsetInCU: 0x2D989, offset: 0x6A498, size: 0x8, addend: 0x0, symName: __ZNK8CryptoPP7Integer13OpenPGPEncodeERNS_22BufferedTransformationE, symObjAddr: 0xE628, symBinAddr: 0x10001EF04, symSize: 0x134 }
  - { offsetInCU: 0x2DC4F, offset: 0x6A75E, size: 0x8, addend: 0x0, symName: __ZN8CryptoPP7Integer13OpenPGPDecodeEPKhm, symObjAddr: 0xE75C, symBinAddr: 0x10001F038, symSize: 0x64 }
  - { offsetInCU: 0x2DD1C, offset: 0x6A82B, size: 0x8, addend: 0x0, symName: __ZN8CryptoPP7Integer13OpenPGPDecodeERNS_22BufferedTransformationE, symObjAddr: 0xE7C0, symBinAddr: 0x10001F09C, symSize: 0xB0 }
  - { offsetInCU: 0x2DDD3, offset: 0x6A8E2, size: 0x8, addend: 0x0, symName: __ZN8CryptoPP7Integer16OpenPGPDecodeErrC1Ev, symObjAddr: 0xE870, symBinAddr: 0x10001F14C, symSize: 0xB8 }
  - { offsetInCU: 0x2E33B, offset: 0x6AE4A, size: 0x8, addend: 0x0, symName: __ZN8CryptoPP7Integer16OpenPGPDecodeErrD1Ev, symObjAddr: 0xE928, symBinAddr: 0x10001F204, symSize: 0x50 }
  - { offsetInCU: 0x2E4D6, offset: 0x6AFE5, size: 0x8, addend: 0x0, symName: __ZN8CryptoPP7Integer9RandomizeERNS_21RandomNumberGeneratorERKS0_S4_, symObjAddr: 0xE978, symBinAddr: 0x10001F254, symSize: 0x1DC }
  - { offsetInCU: 0x2E9EF, offset: 0x6B4FE, size: 0x8, addend: 0x0, symName: __ZNK8CryptoPP7Integer5MinusERKS0_, symObjAddr: 0x12518, symBinAddr: 0x100022DA8, symSize: 0xF0 }
  - { offsetInCU: 0x2F106, offset: 0x6BC15, size: 0x8, addend: 0x0, symName: __ZNK8CryptoPP14NameValuePairs19GetValueWithDefaultINS_7IntegerEEET_PKcS3_, symObjAddr: 0x1004C, symBinAddr: 0x100020928, symSize: 0x1B4 }
  - { offsetInCU: 0x2F436, offset: 0x6BF45, size: 0x8, addend: 0x0, symName: __ZNK8CryptoPP7Integer6ModuloERKS0_, symObjAddr: 0x14530, symBinAddr: 0x100024DC0, symSize: 0x274 }
  - { offsetInCU: 0x2F82B, offset: 0x6C33A, size: 0x8, addend: 0x0, symName: __ZNK8CryptoPP7Integer9DividedByERKS0_, symObjAddr: 0x142BC, symBinAddr: 0x100024B4C, symSize: 0x274 }
  - { offsetInCU: 0x2FCEE, offset: 0x6C7FD, size: 0x8, addend: 0x0, symName: __ZN8CryptoPP7Integer4ZeroEv, symObjAddr: 0x10200, symBinAddr: 0x100020ADC, symSize: 0x20 }
  - { offsetInCU: 0x2FD19, offset: 0x6C828, size: 0x8, addend: 0x0, symName: __ZN8CryptoPP7Integer3OneEv, symObjAddr: 0x10220, symBinAddr: 0x100020AFC, symSize: 0x20 }
  - { offsetInCU: 0x2FD45, offset: 0x6C854, size: 0x8, addend: 0x0, symName: __ZNK8CryptoPP9ByteQueue14MaxRetrievableEv, symObjAddr: 0x10240, symBinAddr: 0x100020B1C, symSize: 0x4 }
  - { offsetInCU: 0x2FD66, offset: 0x6C875, size: 0x8, addend: 0x0, symName: __ZN8CryptoPP18DERSequenceEncoderD1Ev, symObjAddr: 0x10244, symBinAddr: 0x100020B20, symSize: 0x4 }
  - { offsetInCU: 0x2FD89, offset: 0x6C898, size: 0x8, addend: 0x0, symName: __ZN8CryptoPP18DERSequenceEncoderD1Ev, symObjAddr: 0x10244, symBinAddr: 0x100020B20, symSize: 0x4 }
  - { offsetInCU: 0x30002, offset: 0x6CB11, size: 0x8, addend: 0x0, symName: __ZN8CryptoPP8SecBlockIcNS_20AllocatorWithCleanupIcLb0EEEED1Ev, symObjAddr: 0x10664, symBinAddr: 0x100020EF4, symSize: 0x4C }
  - { offsetInCU: 0x3029D, offset: 0x6CDAC, size: 0x8, addend: 0x0, symName: __ZN8CryptoPP7Integer6DivideERmRS0_RKS0_m, symObjAddr: 0x10BA8, symBinAddr: 0x100021438, symSize: 0x2F4 }
  - { offsetInCU: 0x30812, offset: 0x6D321, size: 0x8, addend: 0x0, symName: __ZNK8CryptoPP7IntegerrsEm, symObjAddr: 0x147A4, symBinAddr: 0x100025034, symSize: 0x9C }
  - { offsetInCU: 0x30A36, offset: 0x6D545, size: 0x8, addend: 0x0, symName: __ZN8CryptoPP7IntegermmEv, symObjAddr: 0x11028, symBinAddr: 0x1000218B8, symSize: 0x210 }
  - { offsetInCU: 0x31023, offset: 0x6DB32, size: 0x8, addend: 0x0, symName: __ZN8CryptoPP7Integer12DivideByZeroC1Ev, symObjAddr: 0x13B30, symBinAddr: 0x1000243C0, symSize: 0xC4 }
  - { offsetInCU: 0x3165E, offset: 0x6E16D, size: 0x8, addend: 0x0, symName: __ZN8CryptoPP7IntegerppEv, symObjAddr: 0x10E9C, symBinAddr: 0x10002172C, symSize: 0x18C }
  - { offsetInCU: 0x31A72, offset: 0x6E581, size: 0x8, addend: 0x0, symName: __ZNK8CryptoPP7Integer3AndERKS0_, symObjAddr: 0x11238, symBinAddr: 0x100021AC8, symSize: 0x3E4 }
  - { offsetInCU: 0x322AE, offset: 0x6EDBD, size: 0x8, addend: 0x0, symName: __ZNK8CryptoPP7Integer2OrERKS0_, symObjAddr: 0x1161C, symBinAddr: 0x100021EAC, symSize: 0x3B0 }
  - { offsetInCU: 0x32A09, offset: 0x6F518, size: 0x8, addend: 0x0, symName: __ZN8CryptoPP8SecBlockImNS_20AllocatorWithCleanupImLb1EEEEC2EPKmm, symObjAddr: 0x1D398, symBinAddr: 0x10002C990, symSize: 0x1A4 }
  - { offsetInCU: 0x32F8E, offset: 0x6FA9D, size: 0x8, addend: 0x0, symName: __ZNK8CryptoPP7Integer3XorERKS0_, symObjAddr: 0x119CC, symBinAddr: 0x10002225C, symSize: 0x3B4 }
  - { offsetInCU: 0x336E6, offset: 0x701F5, size: 0x8, addend: 0x0, symName: __ZN8CryptoPP7IntegermIERKS0_, symObjAddr: 0x12608, symBinAddr: 0x100022E98, symSize: 0x150 }
  - { offsetInCU: 0x339D5, offset: 0x704E4, size: 0x8, addend: 0x0, symName: __ZN8CryptoPP7IntegerrSEm, symObjAddr: 0x1299C, symBinAddr: 0x10002322C, symSize: 0x18C }
  - { offsetInCU: 0x33C77, offset: 0x70786, size: 0x8, addend: 0x0, symName: __ZN8CryptoPP7IntegeraNERKS0_, symObjAddr: 0x12B28, symBinAddr: 0x1000233B8, symSize: 0x1B0 }
  - { offsetInCU: 0x33F19, offset: 0x70A28, size: 0x8, addend: 0x0, symName: __ZN8CryptoPP7IntegeroRERKS0_, symObjAddr: 0x12CD8, symBinAddr: 0x100023568, symSize: 0x228 }
  - { offsetInCU: 0x34265, offset: 0x70D74, size: 0x8, addend: 0x0, symName: __ZN8CryptoPP7IntegereOERKS0_, symObjAddr: 0x12F00, symBinAddr: 0x100023790, symSize: 0x248 }
  - { offsetInCU: 0x3462E, offset: 0x7113D, size: 0x8, addend: 0x0, symName: __ZN8CryptoPP7Integer12DivideByZeroD1Ev, symObjAddr: 0x13BF4, symBinAddr: 0x100024484, symSize: 0x50 }
  - { offsetInCU: 0x347F3, offset: 0x71302, size: 0x8, addend: 0x0, symName: __ZN8CryptoPP7Integer6DivideERS0_S1_RKS0_S3_, symObjAddr: 0x13C44, symBinAddr: 0x1000244D4, symSize: 0x1E4 }
  - { offsetInCU: 0x34ECE, offset: 0x719DD, size: 0x8, addend: 0x0, symName: __ZN8CryptoPP7Integer16DivideByPowerOf2ERS0_S1_RKS0_j, symObjAddr: 0x13E28, symBinAddr: 0x1000246B8, symSize: 0x494 }
  - { offsetInCU: 0x35A60, offset: 0x7256F, size: 0x8, addend: 0x0, symName: __ZNK8CryptoPP7Integer9DividedByEm, symObjAddr: 0x14840, symBinAddr: 0x1000250D0, symSize: 0x158 }
  - { offsetInCU: 0x35C07, offset: 0x72716, size: 0x8, addend: 0x0, symName: __ZNK8CryptoPP7Integer6ModuloEm, symObjAddr: 0x14998, symBinAddr: 0x100025228, symSize: 0x134 }
  - { offsetInCU: 0x35D94, offset: 0x728A3, size: 0x8, addend: 0x0, symName: __ZNK8CryptoPP7Integer15PositiveCompareERKS0_, symObjAddr: 0x14ACC, symBinAddr: 0x10002535C, symSize: 0x8C }
  - { offsetInCU: 0x35DD5, offset: 0x728E4, size: 0x8, addend: 0x0, symName: __ZNK8CryptoPP7Integer15PositiveCompareERKS0_, symObjAddr: 0x14ACC, symBinAddr: 0x10002535C, symSize: 0x8C }
  - { offsetInCU: 0x35DF3, offset: 0x72902, size: 0x8, addend: 0x0, symName: __ZNK8CryptoPP7Integer15PositiveCompareERKS0_, symObjAddr: 0x14ACC, symBinAddr: 0x10002535C, symSize: 0x8C }
  - { offsetInCU: 0x35EC8, offset: 0x729D7, size: 0x8, addend: 0x0, symName: __ZNK8CryptoPP7Integer10SquareRootEv, symObjAddr: 0x14C7C, symBinAddr: 0x10002550C, symSize: 0x3A8 }
  - { offsetInCU: 0x36A16, offset: 0x73525, size: 0x8, addend: 0x0, symName: __ZNK8CryptoPP7Integer8IsSquareEv, symObjAddr: 0x15024, symBinAddr: 0x1000258B4, symSize: 0xD4 }
  - { offsetInCU: 0x36D72, offset: 0x73881, size: 0x8, addend: 0x0, symName: __ZNK8CryptoPP7Integer6IsUnitEv, symObjAddr: 0x150F8, symBinAddr: 0x100025988, symSize: 0x44 }
  - { offsetInCU: 0x36D97, offset: 0x738A6, size: 0x8, addend: 0x0, symName: __ZNK8CryptoPP7Integer6IsUnitEv, symObjAddr: 0x150F8, symBinAddr: 0x100025988, symSize: 0x44 }
  - { offsetInCU: 0x36DB5, offset: 0x738C4, size: 0x8, addend: 0x0, symName: __ZNK8CryptoPP7Integer6IsUnitEv, symObjAddr: 0x150F8, symBinAddr: 0x100025988, symSize: 0x44 }
  - { offsetInCU: 0x36E0F, offset: 0x7391E, size: 0x8, addend: 0x0, symName: __ZNK8CryptoPP7Integer21MultiplicativeInverseEv, symObjAddr: 0x1513C, symBinAddr: 0x1000259CC, symSize: 0x74 }
  - { offsetInCU: 0x36FFB, offset: 0x73B0A, size: 0x8, addend: 0x0, symName: __ZN8CryptoPP17ModularArithmeticC2ERKNS_7IntegerE, symObjAddr: 0x179CC, symBinAddr: 0x10002825C, symSize: 0x188 }
  - { offsetInCU: 0x37284, offset: 0x73D93, size: 0x8, addend: 0x0, symName: __ZN8CryptoPP17ModularArithmeticD2Ev, symObjAddr: 0x17B54, symBinAddr: 0x1000283E4, symSize: 0xEC }
  - { offsetInCU: 0x376D4, offset: 0x741E3, size: 0x8, addend: 0x0, symName: __ZN8CryptoPP17ModularArithmeticD1Ev, symObjAddr: 0x1539C, symBinAddr: 0x100025C2C, symSize: 0x4 }
  - { offsetInCU: 0x376F7, offset: 0x74206, size: 0x8, addend: 0x0, symName: __ZN8CryptoPP17ModularArithmeticD1Ev, symObjAddr: 0x1539C, symBinAddr: 0x100025C2C, symSize: 0x4 }
  - { offsetInCU: 0x377C7, offset: 0x742D6, size: 0x8, addend: 0x0, symName: __ZN8CryptoPP7Integer3GcdERKS0_S2_, symObjAddr: 0x153A0, symBinAddr: 0x100025C30, symSize: 0x144 }
  - { offsetInCU: 0x37BF5, offset: 0x74704, size: 0x8, addend: 0x0, symName: __ZN8CryptoPP17EuclideanDomainOfINS_7IntegerEEC2Ev, symObjAddr: 0x1D53C, symBinAddr: 0x10002CB34, symSize: 0x23C }
  - { offsetInCU: 0x37EC4, offset: 0x749D3, size: 0x8, addend: 0x0, symName: __ZN8CryptoPP17EuclideanDomainOfINS_7IntegerEED1Ev, symObjAddr: 0x154E4, symBinAddr: 0x100025D74, symSize: 0xFC }
  - { offsetInCU: 0x38330, offset: 0x74E3F, size: 0x8, addend: 0x0, symName: __ZNK8CryptoPP7Integer10InverseModERKS0_, symObjAddr: 0x155E0, symBinAddr: 0x100025E70, symSize: 0x148 }
  - { offsetInCU: 0x38700, offset: 0x7520F, size: 0x8, addend: 0x0, symName: __ZNK8CryptoPP7Integer14InverseModNextERKS0_, symObjAddr: 0x15728, symBinAddr: 0x100025FB8, symSize: 0x54C }
  - { offsetInCU: 0x395EB, offset: 0x760FA, size: 0x8, addend: 0x0, symName: __ZNK8CryptoPP7Integer10InverseModEm, symObjAddr: 0x15C74, symBinAddr: 0x100026504, symSize: 0x88 }
  - { offsetInCU: 0x399DC, offset: 0x764EB, size: 0x8, addend: 0x0, symName: __ZN8CryptoPP17ModularArithmeticC2ERNS_22BufferedTransformationE, symObjAddr: 0x15CFC, symBinAddr: 0x10002658C, symSize: 0x64C }
  - { offsetInCU: 0x3AEE8, offset: 0x779F7, size: 0x8, addend: 0x0, symName: __ZN8CryptoPP3OIDD1Ev, symObjAddr: 0x16348, symBinAddr: 0x100026BD8, symSize: 0x40 }
  - { offsetInCU: 0x3B08C, offset: 0x77B9B, size: 0x8, addend: 0x0, symName: __ZN8CryptoPP18BERSequenceDecoderD1Ev, symObjAddr: 0x16388, symBinAddr: 0x100026C18, symSize: 0x4 }
  - { offsetInCU: 0x3B0AF, offset: 0x77BBE, size: 0x8, addend: 0x0, symName: __ZN8CryptoPP18BERSequenceDecoderD1Ev, symObjAddr: 0x16388, symBinAddr: 0x100026C18, symSize: 0x4 }
  - { offsetInCU: 0x3B0CC, offset: 0x77BDB, size: 0x8, addend: 0x0, symName: __ZN8CryptoPP17ModularArithmeticC1ERNS_22BufferedTransformationE, symObjAddr: 0x1638C, symBinAddr: 0x100026C1C, symSize: 0x4 }
  - { offsetInCU: 0x3B107, offset: 0x77C16, size: 0x8, addend: 0x0, symName: __ZN8CryptoPP17ModularArithmeticC1ERNS_22BufferedTransformationE, symObjAddr: 0x1638C, symBinAddr: 0x100026C1C, symSize: 0x4 }
  - { offsetInCU: 0x3B124, offset: 0x77C33, size: 0x8, addend: 0x0, symName: __ZNK8CryptoPP17ModularArithmetic9DEREncodeERNS_22BufferedTransformationE, symObjAddr: 0x16390, symBinAddr: 0x100026C20, symSize: 0x14C }
  - { offsetInCU: 0x3B90F, offset: 0x7841E, size: 0x8, addend: 0x0, symName: __ZNK8CryptoPP17ModularArithmetic16DEREncodeElementERNS_22BufferedTransformationERKNS_7IntegerE, symObjAddr: 0x164DC, symBinAddr: 0x100026D6C, symSize: 0x30 }
  - { offsetInCU: 0x3B98F, offset: 0x7849E, size: 0x8, addend: 0x0, symName: __ZNK8CryptoPP17ModularArithmetic20MaxElementByteLengthEv, symObjAddr: 0x1650C, symBinAddr: 0x100026D9C, symSize: 0x254 }
  - { offsetInCU: 0x3BE4F, offset: 0x7895E, size: 0x8, addend: 0x0, symName: __ZNK8CryptoPP17ModularArithmetic16BERDecodeElementERNS_22BufferedTransformationERNS_7IntegerE, symObjAddr: 0x16760, symBinAddr: 0x100026FF0, symSize: 0x30 }
  - { offsetInCU: 0x3BEE5, offset: 0x789F4, size: 0x8, addend: 0x0, symName: __ZNK8CryptoPP17ModularArithmetic4HalfERKNS_7IntegerE, symObjAddr: 0x16790, symBinAddr: 0x100027020, symSize: 0x254 }
  - { offsetInCU: 0x3C49E, offset: 0x78FAD, size: 0x8, addend: 0x0, symName: __ZNK8CryptoPP17ModularArithmetic3AddERKNS_7IntegerES3_, symObjAddr: 0x169E4, symBinAddr: 0x100027274, symSize: 0x1F0 }
  - { offsetInCU: 0x3C938, offset: 0x79447, size: 0x8, addend: 0x0, symName: __ZNK8CryptoPP17ModularArithmetic10AccumulateERNS_7IntegerERKS1_, symObjAddr: 0x16BD4, symBinAddr: 0x100027464, symSize: 0x174 }
  - { offsetInCU: 0x3CC55, offset: 0x79764, size: 0x8, addend: 0x0, symName: __ZNK8CryptoPP17ModularArithmetic8SubtractERKNS_7IntegerES3_, symObjAddr: 0x16D48, symBinAddr: 0x1000275D8, symSize: 0x1AC }
  - { offsetInCU: 0x3D041, offset: 0x79B50, size: 0x8, addend: 0x0, symName: __ZNK8CryptoPP17ModularArithmetic6ReduceERNS_7IntegerERKS1_, symObjAddr: 0x16EF4, symBinAddr: 0x100027784, symSize: 0x138 }
  - { offsetInCU: 0x3D2BA, offset: 0x79DC9, size: 0x8, addend: 0x0, symName: __ZNK8CryptoPP17ModularArithmetic7InverseERKNS_7IntegerE, symObjAddr: 0x1702C, symBinAddr: 0x1000278BC, symSize: 0x14C }
  - { offsetInCU: 0x3D709, offset: 0x7A218, size: 0x8, addend: 0x0, symName: __ZNK8CryptoPP17ModularArithmetic19CascadeExponentiateERKNS_7IntegerES3_S3_S3_, symObjAddr: 0x17178, symBinAddr: 0x100027A08, symSize: 0x2F0 }
  - { offsetInCU: 0x3E33A, offset: 0x7AE49, size: 0x8, addend: 0x0, symName: __ZN8CryptoPP24MontgomeryRepresentationC2ERKNS_7IntegerE, symObjAddr: 0x17858, symBinAddr: 0x1000280E8, symSize: 0x174 }
  - { offsetInCU: 0x3E701, offset: 0x7B210, size: 0x8, addend: 0x0, symName: __ZNK8CryptoPP7IntegerlsEm, symObjAddr: 0x1BFAC, symBinAddr: 0x10002B8A0, symSize: 0x9C }
  - { offsetInCU: 0x3E925, offset: 0x7B434, size: 0x8, addend: 0x0, symName: __ZN8CryptoPP24MontgomeryRepresentationD2Ev, symObjAddr: 0x1C048, symBinAddr: 0x10002B93C, symSize: 0xB8 }
  - { offsetInCU: 0x3EBF7, offset: 0x7B706, size: 0x8, addend: 0x0, symName: __ZN8CryptoPP24MontgomeryRepresentationC1ERKNS_7IntegerE, symObjAddr: 0x17468, symBinAddr: 0x100027CF8, symSize: 0x4 }
  - { offsetInCU: 0x3EC22, offset: 0x7B731, size: 0x8, addend: 0x0, symName: __ZN8CryptoPP24MontgomeryRepresentationC1ERKNS_7IntegerE, symObjAddr: 0x17468, symBinAddr: 0x100027CF8, symSize: 0x4 }
  - { offsetInCU: 0x3EC3F, offset: 0x7B74E, size: 0x8, addend: 0x0, symName: __ZNK8CryptoPP24MontgomeryRepresentation10ConvertOutERKNS_7IntegerE, symObjAddr: 0x1746C, symBinAddr: 0x100027CFC, symSize: 0xB0 }
  - { offsetInCU: 0x3EE64, offset: 0x7B973, size: 0x8, addend: 0x0, symName: __ZNK8CryptoPP24MontgomeryRepresentation19CascadeExponentiateERKNS_7IntegerES3_S3_S3_, symObjAddr: 0x1751C, symBinAddr: 0x100027DAC, symSize: 0x4 }
  - { offsetInCU: 0x3EEA5, offset: 0x7B9B4, size: 0x8, addend: 0x0, symName: __ZNK8CryptoPP24MontgomeryRepresentation9ConvertInERKNS_7IntegerE, symObjAddr: 0x17520, symBinAddr: 0x100027DB0, symSize: 0xA0 }
  - { offsetInCU: 0x3F0A2, offset: 0x7BBB1, size: 0x8, addend: 0x0, symName: __ZN8CryptoPP24MontgomeryRepresentationD1Ev, symObjAddr: 0x175C0, symBinAddr: 0x100027E50, symSize: 0x4 }
  - { offsetInCU: 0x3F0C5, offset: 0x7BBD4, size: 0x8, addend: 0x0, symName: __ZN8CryptoPP24MontgomeryRepresentationD1Ev, symObjAddr: 0x175C0, symBinAddr: 0x100027E50, symSize: 0x4 }
  - { offsetInCU: 0x3F124, offset: 0x7BC33, size: 0x8, addend: 0x0, symName: __ZNK8CryptoPP17ModularArithmetic24SimultaneousExponentiateEPNS_7IntegerERKS1_PS3_j, symObjAddr: 0x175C4, symBinAddr: 0x100027E54, symSize: 0x290 }
  - { offsetInCU: 0x3F9E4, offset: 0x7C4F3, size: 0x8, addend: 0x0, symName: __ZNK8CryptoPP24MontgomeryRepresentation24SimultaneousExponentiateEPNS_7IntegerERKS1_PS3_j, symObjAddr: 0x17854, symBinAddr: 0x1000280E4, symSize: 0x4 }
  - { offsetInCU: 0x3FA25, offset: 0x7C534, size: 0x8, addend: 0x0, symName: __ZNK8CryptoPP24MontgomeryRepresentation8MultiplyERKNS_7IntegerES3_, symObjAddr: 0x17C40, symBinAddr: 0x1000284D0, symSize: 0xAC }
  - { offsetInCU: 0x3FC52, offset: 0x7C761, size: 0x8, addend: 0x0, symName: __ZNK8CryptoPP24MontgomeryRepresentation6SquareERKNS_7IntegerE, symObjAddr: 0x17CEC, symBinAddr: 0x10002857C, symSize: 0x90 }
  - { offsetInCU: 0x3FE65, offset: 0x7C974, size: 0x8, addend: 0x0, symName: __ZNK8CryptoPP24MontgomeryRepresentation21MultiplicativeInverseERKNS_7IntegerE, symObjAddr: 0x17D7C, symBinAddr: 0x10002860C, symSize: 0x284 }
  - { offsetInCU: 0x405ED, offset: 0x7D0FC, size: 0x8, addend: 0x0, symName: __ZN8CryptoPP7Integer3TwoEv, symObjAddr: 0x18D40, symBinAddr: 0x1000295D0, symSize: 0x20 }
  - { offsetInCU: 0x40636, offset: 0x7D145, size: 0x8, addend: 0x0, symName: __ZN8CryptoPP7IntegerD0Ev, symObjAddr: 0x18F6C, symBinAddr: 0x1000297FC, symSize: 0x6C }
  - { offsetInCU: 0x407C9, offset: 0x7D2D8, size: 0x8, addend: 0x0, symName: __ZNK8CryptoPP10ASN1Object9BEREncodeERNS_22BufferedTransformationE, symObjAddr: 0x18FD8, symBinAddr: 0x100029868, symSize: 0xC }
  - { offsetInCU: 0x40818, offset: 0x7D327, size: 0x8, addend: 0x0, symName: __ZN8CryptoPP17ModularArithmeticD0Ev, symObjAddr: 0x18FE4, symBinAddr: 0x100029874, symSize: 0x38 }
  - { offsetInCU: 0x408A4, offset: 0x7D3B3, size: 0x8, addend: 0x0, symName: __ZNK8CryptoPP17ModularArithmetic5EqualERKNS_7IntegerES3_, symObjAddr: 0x1901C, symBinAddr: 0x1000298AC, symSize: 0x24 }
  - { offsetInCU: 0x40934, offset: 0x7D443, size: 0x8, addend: 0x0, symName: __ZNK8CryptoPP17ModularArithmetic8IdentityEv, symObjAddr: 0x19040, symBinAddr: 0x1000298D0, symSize: 0x20 }
  - { offsetInCU: 0x40986, offset: 0x7D495, size: 0x8, addend: 0x0, symName: __ZNK8CryptoPP17ModularArithmetic6DoubleERKNS_7IntegerE, symObjAddr: 0x19060, symBinAddr: 0x1000298F0, symSize: 0x10 }
  - { offsetInCU: 0x409DC, offset: 0x7D4EB, size: 0x8, addend: 0x0, symName: __ZNK8CryptoPP17ModularArithmetic6IsUnitERKNS_7IntegerE, symObjAddr: 0x19070, symBinAddr: 0x100029900, symSize: 0xD0 }
  - { offsetInCU: 0x40BCC, offset: 0x7D6DB, size: 0x8, addend: 0x0, symName: __ZNK8CryptoPP17ModularArithmetic22MultiplicativeIdentityEv, symObjAddr: 0x19140, symBinAddr: 0x1000299D0, symSize: 0x20 }
  - { offsetInCU: 0x40C1E, offset: 0x7D72D, size: 0x8, addend: 0x0, symName: __ZNK8CryptoPP17ModularArithmetic8MultiplyERKNS_7IntegerES3_, symObjAddr: 0x19160, symBinAddr: 0x1000299F0, symSize: 0xE8 }
  - { offsetInCU: 0x40FAE, offset: 0x7DABD, size: 0x8, addend: 0x0, symName: __ZNK8CryptoPP17ModularArithmetic21MultiplicativeInverseERKNS_7IntegerE, symObjAddr: 0x19248, symBinAddr: 0x100029AD8, symSize: 0x9C }
  - { offsetInCU: 0x41165, offset: 0x7DC74, size: 0x8, addend: 0x0, symName: __ZNK8CryptoPP17ModularArithmetic6SquareERKNS_7IntegerE, symObjAddr: 0x192E4, symBinAddr: 0x100029B74, symSize: 0xE4 }
  - { offsetInCU: 0x414DB, offset: 0x7DFEA, size: 0x8, addend: 0x0, symName: __ZNK8CryptoPP17ModularArithmetic6DivideERKNS_7IntegerES3_, symObjAddr: 0x193C8, symBinAddr: 0x100029C58, symSize: 0x44 }
  - { offsetInCU: 0x41580, offset: 0x7E08F, size: 0x8, addend: 0x0, symName: __ZNK8CryptoPP17ModularArithmetic5CloneEv, symObjAddr: 0x1940C, symBinAddr: 0x100029C9C, symSize: 0x48 }
  - { offsetInCU: 0x41610, offset: 0x7E11F, size: 0x8, addend: 0x0, symName: __ZN8CryptoPP17ModularArithmeticC2ERKS0_, symObjAddr: 0x1C100, symBinAddr: 0x10002B9F4, symSize: 0x188 }
  - { offsetInCU: 0x41899, offset: 0x7E3A8, size: 0x8, addend: 0x0, symName: __ZNK8CryptoPP17ModularArithmetic26IsMontgomeryRepresentationEv, symObjAddr: 0x19454, symBinAddr: 0x100029CE4, symSize: 0x8 }
  - { offsetInCU: 0x418C0, offset: 0x7E3CF, size: 0x8, addend: 0x0, symName: __ZNK8CryptoPP17ModularArithmetic9ConvertInERKNS_7IntegerE, symObjAddr: 0x1945C, symBinAddr: 0x100029CEC, symSize: 0x10 }
  - { offsetInCU: 0x4193C, offset: 0x7E44B, size: 0x8, addend: 0x0, symName: __ZNK8CryptoPP17ModularArithmetic10ConvertOutERKNS_7IntegerE, symObjAddr: 0x1946C, symBinAddr: 0x100029CFC, symSize: 0x8 }
  - { offsetInCU: 0x419B5, offset: 0x7E4C4, size: 0x8, addend: 0x0, symName: __ZN8CryptoPP24MontgomeryRepresentationD0Ev, symObjAddr: 0x19474, symBinAddr: 0x100029D04, symSize: 0x38 }
  - { offsetInCU: 0x41A42, offset: 0x7E551, size: 0x8, addend: 0x0, symName: __ZNK8CryptoPP24MontgomeryRepresentation22MultiplicativeIdentityEv, symObjAddr: 0x194AC, symBinAddr: 0x100029D3C, symSize: 0x118 }
  - { offsetInCU: 0x41EBF, offset: 0x7E9CE, size: 0x8, addend: 0x0, symName: __ZNK8CryptoPP24MontgomeryRepresentation5CloneEv, symObjAddr: 0x195C4, symBinAddr: 0x100029E54, symSize: 0xC0 }
  - { offsetInCU: 0x4215F, offset: 0x7EC6E, size: 0x8, addend: 0x0, symName: __ZN8CryptoPP8SecBlockImNS_20AllocatorWithCleanupImLb1EEEEC2ERKS3_, symObjAddr: 0x1C28C, symBinAddr: 0x10002BB80, symSize: 0x178 }
  - { offsetInCU: 0x426C8, offset: 0x7F1D7, size: 0x8, addend: 0x0, symName: __ZNK8CryptoPP24MontgomeryRepresentation26IsMontgomeryRepresentationEv, symObjAddr: 0x19684, symBinAddr: 0x100029F14, symSize: 0x8 }
  - { offsetInCU: 0x4270B, offset: 0x7F21A, size: 0x8, addend: 0x0, symName: __ZN8CryptoPP7Integer20RandomNumberNotFoundD0Ev, symObjAddr: 0x1968C, symBinAddr: 0x100029F1C, symSize: 0x58 }
  - { offsetInCU: 0x42BD2, offset: 0x7F6E1, size: 0x8, addend: 0x0, symName: __ZN8CryptoPP14InputRejectingINS_22BufferedTransformationEE4Put2EPKhmib, symObjAddr: 0x19A80, symBinAddr: 0x10002A100, symSize: 0x48 }
  - { offsetInCU: 0x42C4C, offset: 0x7F75B, size: 0x8, addend: 0x0, symName: __ZN8CryptoPP14InputRejectingINS_22BufferedTransformationEE13InputRejectedC1Ev, symObjAddr: 0x19DB0, symBinAddr: 0x10002A238, symSize: 0xD8 }
  - { offsetInCU: 0x432C1, offset: 0x7FDD0, size: 0x8, addend: 0x0, symName: __ZN8CryptoPP14InputRejectingINS_22BufferedTransformationEE13IsolatedFlushEbb, symObjAddr: 0x19AD4, symBinAddr: 0x10002A148, symSize: 0x8 }
  - { offsetInCU: 0x4330C, offset: 0x7FE1B, size: 0x8, addend: 0x0, symName: __ZN8CryptoPP14InputRejectingINS_22BufferedTransformationEE24IsolatedMessageSeriesEndEb, symObjAddr: 0x19ADC, symBinAddr: 0x10002A150, symSize: 0x48 }
  - { offsetInCU: 0x43351, offset: 0x7FE60, size: 0x8, addend: 0x0, symName: __ZN8CryptoPP13AutoSignalingINS_14InputRejectingINS_22BufferedTransformationEEEE24SetAutoSignalPropagationEi, symObjAddr: 0x19B24, symBinAddr: 0x10002A198, symSize: 0x8 }
  - { offsetInCU: 0x43383, offset: 0x7FE92, size: 0x8, addend: 0x0, symName: __ZNK8CryptoPP13AutoSignalingINS_14InputRejectingINS_22BufferedTransformationEEEE24GetAutoSignalPropagationEv, symObjAddr: 0x19B2C, symBinAddr: 0x10002A1A0, symSize: 0x8 }
  - { offsetInCU: 0x433AA, offset: 0x7FEB9, size: 0x8, addend: 0x0, symName: __ZN8CryptoPP14InputRejectingINS_22BufferedTransformationEE11ChannelPut2ERKNSt3__112basic_stringIcNS3_11char_traitsIcEENS3_9allocatorIcEEEEPKhmib, symObjAddr: 0x19B50, symBinAddr: 0x10002A1A8, symSize: 0x48 }
  - { offsetInCU: 0x4342F, offset: 0x7FF3E, size: 0x8, addend: 0x0, symName: __ZN8CryptoPP14InputRejectingINS_22BufferedTransformationEE23ChannelMessageSeriesEndERKNSt3__112basic_stringIcNS3_11char_traitsIcEENS3_9allocatorIcEEEEib, symObjAddr: 0x19B98, symBinAddr: 0x10002A1F0, symSize: 0x48 }
  - { offsetInCU: 0x434EB, offset: 0x7FFFA, size: 0x8, addend: 0x0, symName: __ZN8CryptoPP14InputRejectingINS_22BufferedTransformationEE13InputRejectedD1Ev, symObjAddr: 0x19E88, symBinAddr: 0x10002A310, symSize: 0x50 }
  - { offsetInCU: 0x436C0, offset: 0x801CF, size: 0x8, addend: 0x0, symName: __ZN8CryptoPP14InputRejectingINS_22BufferedTransformationEE13InputRejectedD0Ev, symObjAddr: 0x19ED8, symBinAddr: 0x10002A360, symSize: 0x58 }
  - { offsetInCU: 0x44C1C, offset: 0x8172B, size: 0x8, addend: 0x0, symName: __ZN8CryptoPP12BERDecodeErrD1Ev, symObjAddr: 0x1A698, symBinAddr: 0x10002A3E0, symSize: 0x50 }
  - { offsetInCU: 0x44DF4, offset: 0x81903, size: 0x8, addend: 0x0, symName: __ZN8CryptoPP12BERDecodeErrD0Ev, symObjAddr: 0x1A6E8, symBinAddr: 0x10002A430, symSize: 0x58 }
  - { offsetInCU: 0x44FF4, offset: 0x81B03, size: 0x8, addend: 0x0, symName: __ZN8CryptoPP7Integer16OpenPGPDecodeErrD0Ev, symObjAddr: 0x1A740, symBinAddr: 0x10002A488, symSize: 0x58 }
  - { offsetInCU: 0x451BF, offset: 0x81CCE, size: 0x8, addend: 0x0, symName: __ZN8CryptoPP18DERSequenceEncoderD0Ev, symObjAddr: 0x1A798, symBinAddr: 0x10002A4E0, symSize: 0x38 }
  - { offsetInCU: 0x4524C, offset: 0x81D5B, size: 0x8, addend: 0x0, symName: __ZN8CryptoPP10BufferlessINS_22BufferedTransformationEE13IsolatedFlushEbb, symObjAddr: 0x1A7D0, symBinAddr: 0x10002A518, symSize: 0x8 }
  - { offsetInCU: 0x45297, offset: 0x81DA6, size: 0x8, addend: 0x0, symName: __ZNK8CryptoPP9ByteQueue14AnyRetrievableEv, symObjAddr: 0x1A7D8, symBinAddr: 0x10002A520, symSize: 0x18 }
  - { offsetInCU: 0x452BE, offset: 0x81DCD, size: 0x8, addend: 0x0, symName: __ZThn8_N8CryptoPP18DERSequenceEncoderD1Ev, symObjAddr: 0x1A7F0, symBinAddr: 0x10002A538, symSize: 0x8 }
  - { offsetInCU: 0x4532F, offset: 0x81E3E, size: 0x8, addend: 0x0, symName: __ZThn8_N8CryptoPP18DERSequenceEncoderD0Ev, symObjAddr: 0x1A7F8, symBinAddr: 0x10002A540, symSize: 0x3C }
  - { offsetInCU: 0x453ED, offset: 0x81EFC, size: 0x8, addend: 0x0, symName: __ZN8CryptoPP8KDF2_RNGD1Ev, symObjAddr: 0x1A834, symBinAddr: 0x10002A57C, symSize: 0x5C }
  - { offsetInCU: 0x45555, offset: 0x82064, size: 0x8, addend: 0x0, symName: __ZN8CryptoPP8KDF2_RNGD0Ev, symObjAddr: 0x1A890, symBinAddr: 0x10002A5D8, symSize: 0x70 }
  - { offsetInCU: 0x45711, offset: 0x82220, size: 0x8, addend: 0x0, symName: __ZN8CryptoPP8KDF2_RNG13GenerateBlockEPhm, symObjAddr: 0x1AA08, symBinAddr: 0x10002A648, symSize: 0x48 }
  - { offsetInCU: 0x45805, offset: 0x82314, size: 0x8, addend: 0x0, symName: __ZN8CryptoPP10P1363_KDF2INS_4SHA1EE9DeriveKeyEPhmPKhmS5_m, symObjAddr: 0x1AA50, symBinAddr: 0x10002A690, symSize: 0x1C8 }
  - { offsetInCU: 0x463D3, offset: 0x82EE2, size: 0x8, addend: 0x0, symName: __ZN8CryptoPP4SHA1D1Ev, symObjAddr: 0x1AC18, symBinAddr: 0x10002A858, symSize: 0x7C }
  - { offsetInCU: 0x463F6, offset: 0x82F05, size: 0x8, addend: 0x0, symName: __ZN8CryptoPP4SHA1D1Ev, symObjAddr: 0x1AC18, symBinAddr: 0x10002A858, symSize: 0x7C }
  - { offsetInCU: 0x46413, offset: 0x82F22, size: 0x8, addend: 0x0, symName: __ZN8CryptoPP4SHA1D1Ev, symObjAddr: 0x1AC18, symBinAddr: 0x10002A858, symSize: 0x7C }
  - { offsetInCU: 0x466F5, offset: 0x83204, size: 0x8, addend: 0x0, symName: __ZN8CryptoPP31IteratedHashWithStaticTransformIjNS_10EnumToTypeINS_9ByteOrderELi1EEELj64ELj20ENS_4SHA1ELj0ELb0EE4InitEv, symObjAddr: 0x1AC94, symBinAddr: 0x10002A8D4, symSize: 0x8 }
  - { offsetInCU: 0x4671A, offset: 0x83229, size: 0x8, addend: 0x0, symName: __ZN8CryptoPP31IteratedHashWithStaticTransformIjNS_10EnumToTypeINS_9ByteOrderELi1EEELj64ELj20ENS_4SHA1ELj0ELb0EE4InitEv, symObjAddr: 0x1AC94, symBinAddr: 0x10002A8D4, symSize: 0x8 }
  - { offsetInCU: 0x46739, offset: 0x83248, size: 0x8, addend: 0x0, symName: __ZN8CryptoPP31IteratedHashWithStaticTransformIjNS_10EnumToTypeINS_9ByteOrderELi1EEELj64ELj20ENS_4SHA1ELj0ELb0EED1Ev, symObjAddr: 0x1AC9C, symBinAddr: 0x10002A8DC, symSize: 0x7C }
  - { offsetInCU: 0x4675C, offset: 0x8326B, size: 0x8, addend: 0x0, symName: __ZN8CryptoPP31IteratedHashWithStaticTransformIjNS_10EnumToTypeINS_9ByteOrderELi1EEELj64ELj20ENS_4SHA1ELj0ELb0EED1Ev, symObjAddr: 0x1AC9C, symBinAddr: 0x10002A8DC, symSize: 0x7C }
  - { offsetInCU: 0x46A41, offset: 0x83550, size: 0x8, addend: 0x0, symName: __ZN8CryptoPP31IteratedHashWithStaticTransformIjNS_10EnumToTypeINS_9ByteOrderELi1EEELj64ELj20ENS_4SHA1ELj0ELb0EED0Ev, symObjAddr: 0x1AD18, symBinAddr: 0x10002A958, symSize: 0x64 }
  - { offsetInCU: 0x46A6B, offset: 0x8357A, size: 0x8, addend: 0x0, symName: __ZN8CryptoPP31IteratedHashWithStaticTransformIjNS_10EnumToTypeINS_9ByteOrderELi1EEELj64ELj20ENS_4SHA1ELj0ELb0EED0Ev, symObjAddr: 0x1AD18, symBinAddr: 0x10002A958, symSize: 0x64 }
  - { offsetInCU: 0x46A88, offset: 0x83597, size: 0x8, addend: 0x0, symName: __ZN8CryptoPP31IteratedHashWithStaticTransformIjNS_10EnumToTypeINS_9ByteOrderELi1EEELj64ELj20ENS_4SHA1ELj0ELb0EED0Ev, symObjAddr: 0x1AD18, symBinAddr: 0x10002A958, symSize: 0x64 }
  - { offsetInCU: 0x46F03, offset: 0x83A12, size: 0x8, addend: 0x0, symName: __ZNK8CryptoPP12ClonableImplINS_4SHA1ENS_13AlgorithmImplINS_12IteratedHashIjNS_10EnumToTypeINS_9ByteOrderELi1EEELj64ENS_18HashTransformationEEES1_EEE5CloneEv, symObjAddr: 0x1AD7C, symBinAddr: 0x10002A9BC, symSize: 0xD8 }
  - { offsetInCU: 0x47639, offset: 0x84148, size: 0x8, addend: 0x0, symName: __ZNK8CryptoPP13AlgorithmImplINS_12IteratedHashIjNS_10EnumToTypeINS_9ByteOrderELi1EEELj64ENS_18HashTransformationEEENS_4SHA1EE13AlgorithmNameEv, symObjAddr: 0x1AE54, symBinAddr: 0x10002AA94, symSize: 0x20 }
  - { offsetInCU: 0x47827, offset: 0x84336, size: 0x8, addend: 0x0, symName: __ZNK8CryptoPP31IteratedHashWithStaticTransformIjNS_10EnumToTypeINS_9ByteOrderELi1EEELj64ELj20ENS_4SHA1ELj0ELb0EE10DigestSizeEv, symObjAddr: 0x1AECC, symBinAddr: 0x10002AAB4, symSize: 0x8 }
  - { offsetInCU: 0x4784E, offset: 0x8435D, size: 0x8, addend: 0x0, symName: __ZNK8CryptoPP12IteratedHashIjNS_10EnumToTypeINS_9ByteOrderELi1EEELj64ENS_18HashTransformationEE9BlockSizeEv, symObjAddr: 0x1AED4, symBinAddr: 0x10002AABC, symSize: 0x8 }
  - { offsetInCU: 0x47875, offset: 0x84384, size: 0x8, addend: 0x0, symName: __ZNK8CryptoPP12IteratedHashIjNS_10EnumToTypeINS_9ByteOrderELi1EEELj64ENS_18HashTransformationEE12GetByteOrderEv, symObjAddr: 0x1B060, symBinAddr: 0x10002AAC4, symSize: 0x8 }
  - { offsetInCU: 0x4789C, offset: 0x843AB, size: 0x8, addend: 0x0, symName: __ZN8CryptoPP31IteratedHashWithStaticTransformIjNS_10EnumToTypeINS_9ByteOrderELi1EEELj64ELj20ENS_4SHA1ELj0ELb0EE24HashEndianCorrectedBlockEPKj, symObjAddr: 0x1B068, symBinAddr: 0x10002AACC, symSize: 0x8 }
  - { offsetInCU: 0x478D2, offset: 0x843E1, size: 0x8, addend: 0x0, symName: __ZN8CryptoPP31IteratedHashWithStaticTransformIjNS_10EnumToTypeINS_9ByteOrderELi1EEELj64ELj20ENS_4SHA1ELj0ELb0EE24HashEndianCorrectedBlockEPKj, symObjAddr: 0x1B068, symBinAddr: 0x10002AACC, symSize: 0x8 }
  - { offsetInCU: 0x478F1, offset: 0x84400, size: 0x8, addend: 0x0, symName: __ZN8CryptoPP12IteratedHashIjNS_10EnumToTypeINS_9ByteOrderELi1EEELj64ENS_18HashTransformationEE7DataBufEv, symObjAddr: 0x1B070, symBinAddr: 0x10002AAD4, symSize: 0x8 }
  - { offsetInCU: 0x4791A, offset: 0x84429, size: 0x8, addend: 0x0, symName: __ZN8CryptoPP12IteratedHashIjNS_10EnumToTypeINS_9ByteOrderELi1EEELj64ENS_18HashTransformationEE7DataBufEv, symObjAddr: 0x1B070, symBinAddr: 0x10002AAD4, symSize: 0x8 }
  - { offsetInCU: 0x47938, offset: 0x84447, size: 0x8, addend: 0x0, symName: __ZN8CryptoPP31IteratedHashWithStaticTransformIjNS_10EnumToTypeINS_9ByteOrderELi1EEELj64ELj20ENS_4SHA1ELj0ELb0EE8StateBufEv, symObjAddr: 0x1B078, symBinAddr: 0x10002AADC, symSize: 0x8 }
  - { offsetInCU: 0x47961, offset: 0x84470, size: 0x8, addend: 0x0, symName: __ZN8CryptoPP31IteratedHashWithStaticTransformIjNS_10EnumToTypeINS_9ByteOrderELi1EEELj64ELj20ENS_4SHA1ELj0ELb0EE8StateBufEv, symObjAddr: 0x1B078, symBinAddr: 0x10002AADC, symSize: 0x8 }
  - { offsetInCU: 0x47980, offset: 0x8448F, size: 0x8, addend: 0x0, symName: __ZN8CryptoPP12IteratedHashIjNS_10EnumToTypeINS_9ByteOrderELi1EEELj64ENS_18HashTransformationEED1Ev, symObjAddr: 0x1B080, symBinAddr: 0x1000C7724, symSize: 0x4 }
  - { offsetInCU: 0x479A8, offset: 0x844B7, size: 0x8, addend: 0x0, symName: __ZN8CryptoPP12IteratedHashIjNS_10EnumToTypeINS_9ByteOrderELi1EEELj64ENS_18HashTransformationEED0Ev, symObjAddr: 0x1B084, symBinAddr: 0x1000C7728, symSize: 0x4 }
  - { offsetInCU: 0x47A20, offset: 0x8452F, size: 0x8, addend: 0x0, symName: __ZN8CryptoPP7Integer12DivideByZeroD0Ev, symObjAddr: 0x1B1F0, symBinAddr: 0x10002AAE4, symSize: 0x58 }
  - { offsetInCU: 0x47BE7, offset: 0x846F6, size: 0x8, addend: 0x0, symName: __ZN8CryptoPP23AbstractEuclideanDomainINS_7IntegerEED2Ev, symObjAddr: 0x1B248, symBinAddr: 0x10002AB3C, symSize: 0x68 }
  - { offsetInCU: 0x47D58, offset: 0x84867, size: 0x8, addend: 0x0, symName: __ZN8CryptoPP17EuclideanDomainOfINS_7IntegerEED0Ev, symObjAddr: 0x1B2B0, symBinAddr: 0x10002ABA4, symSize: 0x38 }
  - { offsetInCU: 0x47DC9, offset: 0x848D8, size: 0x8, addend: 0x0, symName: __ZNK8CryptoPP17EuclideanDomainOfINS_7IntegerEE5EqualERKS1_S4_, symObjAddr: 0x1B2E8, symBinAddr: 0x10002ABDC, symSize: 0x24 }
  - { offsetInCU: 0x47E5C, offset: 0x8496B, size: 0x8, addend: 0x0, symName: __ZNK8CryptoPP17EuclideanDomainOfINS_7IntegerEE8IdentityEv, symObjAddr: 0x1B30C, symBinAddr: 0x10002AC00, symSize: 0x20 }
  - { offsetInCU: 0x47EAF, offset: 0x849BE, size: 0x8, addend: 0x0, symName: __ZNK8CryptoPP17EuclideanDomainOfINS_7IntegerEE3AddERKS1_S4_, symObjAddr: 0x1B32C, symBinAddr: 0x10002AC20, symSize: 0x98 }
  - { offsetInCU: 0x480AA, offset: 0x84BB9, size: 0x8, addend: 0x0, symName: __ZNK8CryptoPP17EuclideanDomainOfINS_7IntegerEE7InverseERKS1_, symObjAddr: 0x1B3C4, symBinAddr: 0x10002ACB8, symSize: 0xD8 }
  - { offsetInCU: 0x48396, offset: 0x84EA5, size: 0x8, addend: 0x0, symName: __ZNK8CryptoPP17EuclideanDomainOfINS_7IntegerEE6DoubleERKS1_, symObjAddr: 0x1B49C, symBinAddr: 0x10002AD90, symSize: 0x94 }
  - { offsetInCU: 0x48576, offset: 0x85085, size: 0x8, addend: 0x0, symName: __ZNK8CryptoPP17EuclideanDomainOfINS_7IntegerEE8SubtractERKS1_S4_, symObjAddr: 0x1B530, symBinAddr: 0x10002AE24, symSize: 0x98 }
  - { offsetInCU: 0x48771, offset: 0x85280, size: 0x8, addend: 0x0, symName: __ZNK8CryptoPP17EuclideanDomainOfINS_7IntegerEE10AccumulateERS1_RKS1_, symObjAddr: 0x1B5C8, symBinAddr: 0x10002AEBC, symSize: 0xC }
  - { offsetInCU: 0x487D9, offset: 0x852E8, size: 0x8, addend: 0x0, symName: __ZNK8CryptoPP17EuclideanDomainOfINS_7IntegerEE6ReduceERS1_RKS1_, symObjAddr: 0x1B5D4, symBinAddr: 0x10002AEC8, symSize: 0xC }
  - { offsetInCU: 0x48841, offset: 0x85350, size: 0x8, addend: 0x0, symName: __ZNK8CryptoPP17EuclideanDomainOfINS_7IntegerEE6IsUnitERKS1_, symObjAddr: 0x1B5E0, symBinAddr: 0x10002AED4, symSize: 0x44 }
  - { offsetInCU: 0x48878, offset: 0x85387, size: 0x8, addend: 0x0, symName: __ZNK8CryptoPP17EuclideanDomainOfINS_7IntegerEE6IsUnitERKS1_, symObjAddr: 0x1B5E0, symBinAddr: 0x10002AED4, symSize: 0x44 }
  - { offsetInCU: 0x48896, offset: 0x853A5, size: 0x8, addend: 0x0, symName: __ZNK8CryptoPP17EuclideanDomainOfINS_7IntegerEE6IsUnitERKS1_, symObjAddr: 0x1B5E0, symBinAddr: 0x10002AED4, symSize: 0x44 }
  - { offsetInCU: 0x488B4, offset: 0x853C3, size: 0x8, addend: 0x0, symName: __ZNK8CryptoPP17EuclideanDomainOfINS_7IntegerEE6IsUnitERKS1_, symObjAddr: 0x1B5E0, symBinAddr: 0x10002AED4, symSize: 0x44 }
  - { offsetInCU: 0x488F6, offset: 0x85405, size: 0x8, addend: 0x0, symName: __ZNK8CryptoPP17EuclideanDomainOfINS_7IntegerEE22MultiplicativeIdentityEv, symObjAddr: 0x1B624, symBinAddr: 0x10002AF18, symSize: 0x20 }
  - { offsetInCU: 0x48949, offset: 0x85458, size: 0x8, addend: 0x0, symName: __ZNK8CryptoPP17EuclideanDomainOfINS_7IntegerEE8MultiplyERKS1_S4_, symObjAddr: 0x1B644, symBinAddr: 0x10002AF38, symSize: 0x98 }
  - { offsetInCU: 0x48B5D, offset: 0x8566C, size: 0x8, addend: 0x0, symName: __ZNK8CryptoPP17EuclideanDomainOfINS_7IntegerEE21MultiplicativeInverseERKS1_, symObjAddr: 0x1B6DC, symBinAddr: 0x10002AFD0, symSize: 0xD4 }
  - { offsetInCU: 0x48E0E, offset: 0x8591D, size: 0x8, addend: 0x0, symName: __ZNK8CryptoPP17EuclideanDomainOfINS_7IntegerEE6SquareERKS1_, symObjAddr: 0x1B7B0, symBinAddr: 0x10002B0A4, symSize: 0x94 }
  - { offsetInCU: 0x48FEE, offset: 0x85AFD, size: 0x8, addend: 0x0, symName: __ZNK8CryptoPP17EuclideanDomainOfINS_7IntegerEE6DivideERKS1_S4_, symObjAddr: 0x1B844, symBinAddr: 0x10002B138, symSize: 0x98 }
  - { offsetInCU: 0x491E9, offset: 0x85CF8, size: 0x8, addend: 0x0, symName: __ZNK8CryptoPP17EuclideanDomainOfINS_7IntegerEE17DivisionAlgorithmERS1_S3_RKS1_S5_, symObjAddr: 0x1B8DC, symBinAddr: 0x10002B1D0, symSize: 0x14 }
  - { offsetInCU: 0x49283, offset: 0x85D92, size: 0x8, addend: 0x0, symName: __ZNK8CryptoPP17EuclideanDomainOfINS_7IntegerEE3ModERKS1_S4_, symObjAddr: 0x1B8F0, symBinAddr: 0x10002B1E4, symSize: 0x98 }
  - { offsetInCU: 0x4947E, offset: 0x85F8D, size: 0x8, addend: 0x0, symName: __ZN8CryptoPP18BERSequenceDecoderD0Ev, symObjAddr: 0x1B988, symBinAddr: 0x10002B27C, symSize: 0x38 }
  - { offsetInCU: 0x4950B, offset: 0x8601A, size: 0x8, addend: 0x0, symName: __ZN8CryptoPP5Store18IsolatedInitializeERKNS_14NameValuePairsE, symObjAddr: 0x1B9C0, symBinAddr: 0x10002B2B4, symSize: 0x10 }
  - { offsetInCU: 0x4955A, offset: 0x86069, size: 0x8, addend: 0x0, symName: __ZNK8CryptoPP5Store16NumberOfMessagesEv, symObjAddr: 0x1B9D0, symBinAddr: 0x10002B2C4, symSize: 0xC }
  - { offsetInCU: 0x49581, offset: 0x86090, size: 0x8, addend: 0x0, symName: __ZN8CryptoPP17BERGeneralDecoder15StoreInitializeERKNS_14NameValuePairsE, symObjAddr: 0x1B9DC, symBinAddr: 0x10002B2D0, symSize: 0x4 }
  - { offsetInCU: 0x495B3, offset: 0x860C2, size: 0x8, addend: 0x0, symName: __ZThn8_N8CryptoPP18BERSequenceDecoderD1Ev, symObjAddr: 0x1B9E0, symBinAddr: 0x10002B2D4, symSize: 0x8 }
  - { offsetInCU: 0x49624, offset: 0x86133, size: 0x8, addend: 0x0, symName: __ZThn8_N8CryptoPP18BERSequenceDecoderD0Ev, symObjAddr: 0x1B9E8, symBinAddr: 0x10002B2DC, symSize: 0x3C }
  - { offsetInCU: 0x496C5, offset: 0x861D4, size: 0x8, addend: 0x0, symName: __ZN8CryptoPP3OIDD0Ev, symObjAddr: 0x1BA24, symBinAddr: 0x10002B318, symSize: 0x40 }
  - { offsetInCU: 0x49E23, offset: 0x86932, size: 0x8, addend: 0x0, symName: __ZNKSt3__16vectorIjNS_9allocatorIjEEE20__throw_length_errorB7v160006Ev, symObjAddr: 0x1BEB8, symBinAddr: 0x10002B7AC, symSize: 0x14 }
  - { offsetInCU: 0x49E4C, offset: 0x8695B, size: 0x8, addend: 0x0, symName: __ZN8CryptoPP4ASN16iso_usEv, symObjAddr: 0x1BECC, symBinAddr: 0x10002B7C0, symSize: 0xDC }
  - { offsetInCU: 0x49F7E, offset: 0x86A8D, size: 0x8, addend: 0x0, symName: __ZN8CryptoPP12AbstractRingINS_7IntegerEE20MultiplicativeGroupTD1Ev, symObjAddr: 0x1BFA8, symBinAddr: 0x10002B89C, symSize: 0x4 }
  - { offsetInCU: 0x49FCE, offset: 0x86ADD, size: 0x8, addend: 0x0, symName: __ZN8CryptoPP12AbstractRingINS_7IntegerEE20MultiplicativeGroupTD0Ev, symObjAddr: 0x1C288, symBinAddr: 0x10002BB7C, symSize: 0x4 }
  - { offsetInCU: 0x49FFA, offset: 0x86B09, size: 0x8, addend: 0x0, symName: __ZN8CryptoPP12AbstractRingINS_7IntegerEE20MultiplicativeGroupTD0Ev, symObjAddr: 0x1C288, symBinAddr: 0x10002BB7C, symSize: 0x4 }
  - { offsetInCU: 0x4A0C2, offset: 0x86BD1, size: 0x8, addend: 0x0, symName: __ZN8CryptoPP27AlgorithmParametersTemplateINS_7IntegerEED1Ev, symObjAddr: 0x1C5A8, symBinAddr: 0x10002BE9C, symSize: 0x80 }
  - { offsetInCU: 0x4A29E, offset: 0x86DAD, size: 0x8, addend: 0x0, symName: __ZN8CryptoPP27AlgorithmParametersTemplateINS_7IntegerEED0Ev, symObjAddr: 0x1C628, symBinAddr: 0x10002BF1C, symSize: 0x98 }
  - { offsetInCU: 0x4A4A5, offset: 0x86FB4, size: 0x8, addend: 0x0, symName: __ZNK8CryptoPP27AlgorithmParametersTemplateINS_7IntegerEE11AssignValueEPKcRKSt9type_infoPv, symObjAddr: 0x1C6C0, symBinAddr: 0x10002BFB4, symSize: 0xA4 }
  - { offsetInCU: 0x4A5AF, offset: 0x870BE, size: 0x8, addend: 0x0, symName: __ZN8CryptoPP14NameValuePairs19ThrowIfTypeMismatchEPKcRKSt9type_infoS5_, symObjAddr: 0x1C828, symBinAddr: 0x10002C11C, symSize: 0xE4 }
  - { offsetInCU: 0x4A8D8, offset: 0x873E7, size: 0x8, addend: 0x0, symName: __ZNK8CryptoPP27AlgorithmParametersTemplateINS_7IntegerEE8MoveIntoEPv, symObjAddr: 0x1C764, symBinAddr: 0x10002C058, symSize: 0xC4 }
  - { offsetInCU: 0x4AB1C, offset: 0x8762B, size: 0x8, addend: 0x0, symName: __ZN8CryptoPP14NameValuePairs17ValueTypeMismatchC2ERKNSt3__112basic_stringIcNS2_11char_traitsIcEENS2_9allocatorIcEEEERKSt9type_infoSD_, symObjAddr: 0x1C95C, symBinAddr: 0x10002C250, symSize: 0x548 }
  - { offsetInCU: 0x4D951, offset: 0x8A460, size: 0x8, addend: 0x0, symName: __ZN8CryptoPP14NameValuePairs17ValueTypeMismatchD1Ev, symObjAddr: 0x1C90C, symBinAddr: 0x10002C200, symSize: 0x50 }
  - { offsetInCU: 0x4DB3F, offset: 0x8A64E, size: 0x8, addend: 0x0, symName: __ZN8CryptoPP14NameValuePairs17ValueTypeMismatchD0Ev, symObjAddr: 0x1CEA4, symBinAddr: 0x10002C798, symSize: 0x58 }
  - { offsetInCU: 0x4DD3F, offset: 0x8A84E, size: 0x8, addend: 0x0, symName: __ZN8CryptoPP27AlgorithmParametersTemplateINS_7Integer16RandomNumberTypeEED1Ev, symObjAddr: 0x1CEFC, symBinAddr: 0x10002C7F0, symSize: 0x4 }
  - { offsetInCU: 0x4DD62, offset: 0x8A871, size: 0x8, addend: 0x0, symName: __ZN8CryptoPP27AlgorithmParametersTemplateINS_7Integer16RandomNumberTypeEED1Ev, symObjAddr: 0x1CEFC, symBinAddr: 0x10002C7F0, symSize: 0x4 }
  - { offsetInCU: 0x4DD81, offset: 0x8A890, size: 0x8, addend: 0x0, symName: __ZN8CryptoPP27AlgorithmParametersTemplateINS_7Integer16RandomNumberTypeEED1Ev, symObjAddr: 0x1CEFC, symBinAddr: 0x10002C7F0, symSize: 0x4 }
  - { offsetInCU: 0x4DDB3, offset: 0x8A8C2, size: 0x8, addend: 0x0, symName: __ZN8CryptoPP27AlgorithmParametersTemplateINS_7Integer16RandomNumberTypeEED0Ev, symObjAddr: 0x1CF00, symBinAddr: 0x10002C7F4, symSize: 0x38 }
  - { offsetInCU: 0x4DE62, offset: 0x8A971, size: 0x8, addend: 0x0, symName: __ZNK8CryptoPP27AlgorithmParametersTemplateINS_7Integer16RandomNumberTypeEE11AssignValueEPKcRKSt9type_infoPv, symObjAddr: 0x1CF38, symBinAddr: 0x10002C82C, symSize: 0xB8 }
  - { offsetInCU: 0x4DF98, offset: 0x8AAA7, size: 0x8, addend: 0x0, symName: __ZNK8CryptoPP27AlgorithmParametersTemplateINS_7Integer16RandomNumberTypeEE8MoveIntoEPv, symObjAddr: 0x1CFF0, symBinAddr: 0x10002C8E4, symSize: 0xAC }
  - { offsetInCU: 0x4E363, offset: 0x8AE72, size: 0x8, addend: 0x0, symName: __ZN8CryptoPP10simple_ptrINS_7IntegerEED1Ev, symObjAddr: 0x1D778, symBinAddr: 0x10002CD70, symSize: 0x38 }
  - { offsetInCU: 0x4F59, offset: 0x8FE85, size: 0x8, addend: 0x0, symName: __ZNK8CryptoPP22CombinedNameValuePairs12GetVoidValueEPKcRKSt9type_infoPv, symObjAddr: 0x0, symBinAddr: 0x10002CDA8, symSize: 0xBC }
  - { offsetInCU: 0x500F, offset: 0x8FF3B, size: 0x8, addend: 0x0, symName: __ZN8CryptoPP23AlgorithmParametersBaseaSERKS0_, symObjAddr: 0xBC, symBinAddr: 0x10002CE64, symSize: 0x4 }
  - { offsetInCU: 0x5085, offset: 0x8FFB1, size: 0x8, addend: 0x0, symName: __ZNK8CryptoPP23AlgorithmParametersBase12GetVoidValueEPKcRKSt9type_infoPv, symObjAddr: 0xC0, symBinAddr: 0x10002CE68, symSize: 0xEC }
  - { offsetInCU: 0x72C6, offset: 0x921F2, size: 0x8, addend: 0x0, symName: __ZN8CryptoPP19AlgorithmParametersC2Ev, symObjAddr: 0x290, symBinAddr: 0x10002CF54, symSize: 0x18 }
  - { offsetInCU: 0x7308, offset: 0x92234, size: 0x8, addend: 0x0, symName: __ZN8CryptoPP19AlgorithmParametersC1Ev, symObjAddr: 0x2B4, symBinAddr: 0x10002CF6C, symSize: 0x18 }
  - { offsetInCU: 0x7334, offset: 0x92260, size: 0x8, addend: 0x0, symName: __ZN8CryptoPP19AlgorithmParametersC1Ev, symObjAddr: 0x2B4, symBinAddr: 0x10002CF6C, symSize: 0x18 }
  - { offsetInCU: 0x73D0, offset: 0x922FC, size: 0x8, addend: 0x0, symName: __ZN8CryptoPP19AlgorithmParametersC2ERKS0_, symObjAddr: 0x2CC, symBinAddr: 0x10002CF84, symSize: 0x78 }
  - { offsetInCU: 0x74BA, offset: 0x923E6, size: 0x8, addend: 0x0, symName: __ZN8CryptoPP19AlgorithmParametersC1ERKS0_, symObjAddr: 0x344, symBinAddr: 0x10002CFFC, symSize: 0x78 }
  - { offsetInCU: 0x75AD, offset: 0x924D9, size: 0x8, addend: 0x0, symName: __ZN8CryptoPP19AlgorithmParametersaSERKS0_, symObjAddr: 0x3BC, symBinAddr: 0x10002D074, symSize: 0x40 }
  - { offsetInCU: 0x7644, offset: 0x92570, size: 0x8, addend: 0x0, symName: __ZNK8CryptoPP19AlgorithmParameters12GetVoidValueEPKcRKSt9type_infoPv, symObjAddr: 0x3FC, symBinAddr: 0x10002D0B4, symSize: 0x10 }
  - { offsetInCU: 0x7697, offset: 0x925C3, size: 0x8, addend: 0x0, symName: __ZNK8CryptoPP19AlgorithmParameters12GetVoidValueEPKcRKSt9type_infoPv, symObjAddr: 0x3FC, symBinAddr: 0x10002D0B4, symSize: 0x10 }
  - { offsetInCU: 0x76C3, offset: 0x925EF, size: 0x8, addend: 0x0, symName: __ZN8CryptoPP22CombinedNameValuePairsD1Ev, symObjAddr: 0x40C, symBinAddr: 0x10002D0C4, symSize: 0x4 }
  - { offsetInCU: 0x76ED, offset: 0x92619, size: 0x8, addend: 0x0, symName: __ZN8CryptoPP22CombinedNameValuePairsD0Ev, symObjAddr: 0x410, symBinAddr: 0x10002D0C8, symSize: 0x4 }
  - { offsetInCU: 0x771A, offset: 0x92646, size: 0x8, addend: 0x0, symName: __ZN8CryptoPP22CombinedNameValuePairsD0Ev, symObjAddr: 0x410, symBinAddr: 0x10002D0C8, symSize: 0x4 }
  - { offsetInCU: 0x7768, offset: 0x92694, size: 0x8, addend: 0x0, symName: __ZN8CryptoPP19AlgorithmParametersD0Ev, symObjAddr: 0x454, symBinAddr: 0x10002D0CC, symSize: 0x54 }
  - { offsetInCU: 0x26, offset: 0x92BD5, size: 0x8, addend: 0x0, symName: __ZN8CryptoPP14CallNewHandlerEv, symObjAddr: 0x0, symBinAddr: 0x10002D120, symSize: 0x50 }
  - { offsetInCU: 0x3E, offset: 0x92BED, size: 0x8, addend: 0x0, symName: __ZN8CryptoPP14CallNewHandlerEv, symObjAddr: 0x0, symBinAddr: 0x10002D120, symSize: 0x50 }
  - { offsetInCU: 0xA6, offset: 0x92C55, size: 0x8, addend: 0x0, symName: __ZN8CryptoPP15AlignedAllocateEm, symObjAddr: 0x50, symBinAddr: 0x10002D170, symSize: 0x68 }
  - { offsetInCU: 0x12C, offset: 0x92CDB, size: 0x8, addend: 0x0, symName: __ZN8CryptoPP17AlignedDeallocateEPv, symObjAddr: 0xB8, symBinAddr: 0x10002D1D8, symSize: 0xC }
  - { offsetInCU: 0x154, offset: 0x92D03, size: 0x8, addend: 0x0, symName: __ZN8CryptoPP17UnalignedAllocateEm, symObjAddr: 0xC4, symBinAddr: 0x10002D1E4, symSize: 0x68 }
  - { offsetInCU: 0x1DA, offset: 0x92D89, size: 0x8, addend: 0x0, symName: __ZN8CryptoPP19UnalignedDeallocateEPv, symObjAddr: 0x12C, symBinAddr: 0x10002D24C, symSize: 0x4 }
  - { offsetInCU: 0xDAB, offset: 0x96549, size: 0x8, addend: 0x0, symName: __ZN8CryptoPP15DERLengthEncodeERNS_22BufferedTransformationEm, symObjAddr: 0x0, symBinAddr: 0x10002D250, symSize: 0x14C }
  - { offsetInCU: 0x1042, offset: 0x967E0, size: 0x8, addend: 0x0, symName: __ZN8CryptoPP15BERLengthDecodeERNS_22BufferedTransformationERmRb, symObjAddr: 0x14C, symBinAddr: 0x10002D39C, symSize: 0x128 }
  - { offsetInCU: 0x1150, offset: 0x968EE, size: 0x8, addend: 0x0, symName: __ZN8CryptoPP15BERLengthDecodeERNS_22BufferedTransformationERm, symObjAddr: 0x274, symBinAddr: 0x10002D4C4, symSize: 0x84 }
  - { offsetInCU: 0x11FB, offset: 0x96999, size: 0x8, addend: 0x0, symName: __ZN8CryptoPP13DEREncodeNullERNS_22BufferedTransformationE, symObjAddr: 0x2F8, symBinAddr: 0x10002D548, symSize: 0x6C }
  - { offsetInCU: 0x1389, offset: 0x96B27, size: 0x8, addend: 0x0, symName: __ZN8CryptoPP13BERDecodeNullERNS_22BufferedTransformationE, symObjAddr: 0x364, symBinAddr: 0x10002D5B4, symSize: 0xDC }
  - { offsetInCU: 0x14A9, offset: 0x96C47, size: 0x8, addend: 0x0, symName: __ZN8CryptoPP20DEREncodeOctetStringERNS_22BufferedTransformationEPKhm, symObjAddr: 0x440, symBinAddr: 0x10002D690, symSize: 0x90 }
  - { offsetInCU: 0x1641, offset: 0x96DDF, size: 0x8, addend: 0x0, symName: __ZN8CryptoPP20DEREncodeOctetStringERNS_22BufferedTransformationERKNS_8SecBlockIhNS_20AllocatorWithCleanupIhLb0EEEEE, symObjAddr: 0x4D0, symBinAddr: 0x10002D720, symSize: 0xA8 }
  - { offsetInCU: 0x1922, offset: 0x970C0, size: 0x8, addend: 0x0, symName: __ZN8CryptoPP20BERDecodeOctetStringERNS_22BufferedTransformationERNS_8SecBlockIhNS_20AllocatorWithCleanupIhLb0EEEEE, symObjAddr: 0x578, symBinAddr: 0x10002D7C8, symSize: 0x1A0 }
  - { offsetInCU: 0x1CAA, offset: 0x97448, size: 0x8, addend: 0x0, symName: __ZN8CryptoPP20BERDecodeOctetStringERNS_22BufferedTransformationES1_, symObjAddr: 0x718, symBinAddr: 0x10002D968, symSize: 0x140 }
  - { offsetInCU: 0x1E77, offset: 0x97615, size: 0x8, addend: 0x0, symName: __ZN8CryptoPP19DEREncodeTextStringERNS_22BufferedTransformationEPKhmh, symObjAddr: 0x858, symBinAddr: 0x10002DAA8, symSize: 0x8C }
  - { offsetInCU: 0x2025, offset: 0x977C3, size: 0x8, addend: 0x0, symName: __ZN8CryptoPP19DEREncodeTextStringERNS_22BufferedTransformationERKNS_8SecBlockIhNS_20AllocatorWithCleanupIhLb0EEEEEh, symObjAddr: 0x8E4, symBinAddr: 0x10002DB34, symSize: 0xA8 }
  - { offsetInCU: 0x2231, offset: 0x979CF, size: 0x8, addend: 0x0, symName: __ZN8CryptoPP19DEREncodeTextStringERNS_22BufferedTransformationERKNSt3__112basic_stringIcNS2_11char_traitsIcEENS2_9allocatorIcEEEEh, symObjAddr: 0x98C, symBinAddr: 0x10002DBDC, symSize: 0xBC }
  - { offsetInCU: 0x24BF, offset: 0x97C5D, size: 0x8, addend: 0x0, symName: __ZN8CryptoPP19BERDecodeTextStringERNS_22BufferedTransformationERNS_8SecBlockIhNS_20AllocatorWithCleanupIhLb0EEEEEh, symObjAddr: 0xA48, symBinAddr: 0x10002DC98, symSize: 0x1E4 }
  - { offsetInCU: 0x28B1, offset: 0x9804F, size: 0x8, addend: 0x0, symName: __ZN8CryptoPP19BERDecodeTextStringERNS_22BufferedTransformationERNSt3__112basic_stringIcNS2_11char_traitsIcEENS2_9allocatorIcEEEEh, symObjAddr: 0xC2C, symBinAddr: 0x10002DE7C, symSize: 0x190 }
  - { offsetInCU: 0x2B2B, offset: 0x982C9, size: 0x8, addend: 0x0, symName: __ZN8CryptoPP13DEREncodeDateERNS_22BufferedTransformationERKNS_8SecBlockIhNS_20AllocatorWithCleanupIhLb0EEEEEh, symObjAddr: 0xDBC, symBinAddr: 0x10002E00C, symSize: 0xA0 }
  - { offsetInCU: 0x2CFD, offset: 0x9849B, size: 0x8, addend: 0x0, symName: __ZN8CryptoPP13BERDecodeDateERNS_22BufferedTransformationERNS_8SecBlockIhNS_20AllocatorWithCleanupIhLb0EEEEEh, symObjAddr: 0xE5C, symBinAddr: 0x10002E0AC, symSize: 0x1E4 }
  - { offsetInCU: 0x30CF, offset: 0x9886D, size: 0x8, addend: 0x0, symName: __ZN8CryptoPP18DEREncodeBitStringERNS_22BufferedTransformationEPKhmj, symObjAddr: 0x1040, symBinAddr: 0x10002E290, symSize: 0xC0 }
  - { offsetInCU: 0x32ED, offset: 0x98A8B, size: 0x8, addend: 0x0, symName: __ZN8CryptoPP18BERDecodeBitStringERNS_22BufferedTransformationERNS_8SecBlockIhNS_20AllocatorWithCleanupIhLb0EEEEERj, symObjAddr: 0x1100, symBinAddr: 0x10002E350, symSize: 0x238 }
  - { offsetInCU: 0x3720, offset: 0x98EBE, size: 0x8, addend: 0x0, symName: __ZN8CryptoPP11DERReencodeERNS_22BufferedTransformationES1_, symObjAddr: 0x1338, symBinAddr: 0x10002E588, symSize: 0x250 }
  - { offsetInCU: 0x3BF5, offset: 0x99393, size: 0x8, addend: 0x0, symName: __ZN8CryptoPP19BERDecodePeekLengthERKNS_22BufferedTransformationE, symObjAddr: 0x1840, symBinAddr: 0x10002EA84, symSize: 0x15C }
  - { offsetInCU: 0x449A, offset: 0x99C38, size: 0x8, addend: 0x0, symName: __ZN8CryptoPP17BERDecodeUnsignedIjEEvRNS_22BufferedTransformationERT_hS3_S3_, symObjAddr: 0x3F60, symBinAddr: 0x1000310E0, symSize: 0x42C }
  - { offsetInCU: 0xD3AE, offset: 0xA2B4C, size: 0x8, addend: 0x0, symName: __ZN8CryptoPP12BERDecodeErrC1Ev, symObjAddr: 0x5478, symBinAddr: 0x10003218C, symSize: 0xBC }
  - { offsetInCU: 0xDD49, offset: 0xA34E7, size: 0x8, addend: 0x0, symName: __ZN8CryptoPP17BERGeneralDecoder4InitEh, symObjAddr: 0x2BE0, symBinAddr: 0x10002FDCC, symSize: 0xE0 }
  - { offsetInCU: 0xDE32, offset: 0xA35D0, size: 0x8, addend: 0x0, symName: __ZN8CryptoPP17BERGeneralDecoder10MessageEndEv, symObjAddr: 0x1688, symBinAddr: 0x10002E8D8, symSize: 0xAC }
  - { offsetInCU: 0xDEBB, offset: 0xA3659, size: 0x8, addend: 0x0, symName: __ZN8CryptoPP17DERGeneralEncoderD2Ev, symObjAddr: 0x335C, symBinAddr: 0x100030548, symSize: 0xEC }
  - { offsetInCU: 0xE023, offset: 0xA37C1, size: 0x8, addend: 0x0, symName: __ZN8CryptoPP17BERGeneralDecoderD1Ev, symObjAddr: 0x17D8, symBinAddr: 0x10002EA1C, symSize: 0x68 }
  - { offsetInCU: 0xE075, offset: 0xA3813, size: 0x8, addend: 0x0, symName: __ZN8CryptoPP17BERGeneralDecoderC1ERNS_22BufferedTransformationEh, symObjAddr: 0x1588, symBinAddr: 0x10002E7D8, symSize: 0x64 }
  - { offsetInCU: 0xE175, offset: 0xA3913, size: 0x8, addend: 0x0, symName: __ZN8CryptoPP17DERGeneralEncoderC1ERNS_22BufferedTransformationEh, symObjAddr: 0x15EC, symBinAddr: 0x10002E83C, symSize: 0x44 }
  - { offsetInCU: 0xE1D9, offset: 0xA3977, size: 0x8, addend: 0x0, symName: __ZNK8CryptoPP17BERGeneralDecoder10EndReachedEv, symObjAddr: 0x1630, symBinAddr: 0x10002E880, symSize: 0x58 }
  - { offsetInCU: 0xE215, offset: 0xA39B3, size: 0x8, addend: 0x0, symName: __ZN8CryptoPP17DERGeneralEncoder10MessageEndEv, symObjAddr: 0x1734, symBinAddr: 0x10002E984, symSize: 0x94 }
  - { offsetInCU: 0xE344, offset: 0xA3AE2, size: 0x8, addend: 0x0, symName: __ZN8CryptoPP17DERGeneralEncoderD1Ev, symObjAddr: 0x17C8, symBinAddr: 0x10002EA18, symSize: 0x4 }
  - { offsetInCU: 0xE368, offset: 0xA3B06, size: 0x8, addend: 0x0, symName: __ZN8CryptoPP17DERGeneralEncoderD1Ev, symObjAddr: 0x17C8, symBinAddr: 0x10002EA18, symSize: 0x4 }
  - { offsetInCU: 0xE723, offset: 0xA3EC1, size: 0x8, addend: 0x0, symName: __ZN8CryptoPP3OID11EncodeValueERNS_22BufferedTransformationEj, symObjAddr: 0x199C, symBinAddr: 0x10002EBE0, symSize: 0x1E0 }
  - { offsetInCU: 0xEDE1, offset: 0xA457F, size: 0x8, addend: 0x0, symName: __ZN8CryptoPP3OID11DecodeValueERNS_22BufferedTransformationERj, symObjAddr: 0x1B7C, symBinAddr: 0x10002EDC0, symSize: 0xCC }
  - { offsetInCU: 0xEEE0, offset: 0xA467E, size: 0x8, addend: 0x0, symName: __ZNK8CryptoPP3OID9DEREncodeERNS_22BufferedTransformationE, symObjAddr: 0x1C48, symBinAddr: 0x10002EE8C, symSize: 0x15C }
  - { offsetInCU: 0xF59C, offset: 0xA4D3A, size: 0x8, addend: 0x0, symName: __ZN8CryptoPP3OID9BERDecodeERNS_22BufferedTransformationE, symObjAddr: 0x1DA4, symBinAddr: 0x10002EFE8, symSize: 0x31C }
  - { offsetInCU: 0xFCF9, offset: 0xA5497, size: 0x8, addend: 0x0, symName: __ZNSt3__16vectorIjNS_9allocatorIjEEE8__appendEm, symObjAddr: 0x5CB4, symBinAddr: 0x1000323BC, symSize: 0x1A4 }
  - { offsetInCU: 0x10217, offset: 0xA59B5, size: 0x8, addend: 0x0, symName: __ZNSt3__16vectorIjNS_9allocatorIjEEE8__appendEm, symObjAddr: 0x5CB4, symBinAddr: 0x1000323BC, symSize: 0x1A4 }
  - { offsetInCU: 0x103EE, offset: 0xA5B8C, size: 0x8, addend: 0x0, symName: __ZNK8CryptoPP3OID17BERDecodeAndCheckERNS_22BufferedTransformationE, symObjAddr: 0x20C0, symBinAddr: 0x10002F304, symSize: 0x190 }
  - { offsetInCU: 0x10EEE, offset: 0xA668C, size: 0x8, addend: 0x0, symName: __ZNK8CryptoPP3OID5PrintERNSt3__113basic_ostreamIcNS1_11char_traitsIcEEEE, symObjAddr: 0x2290, symBinAddr: 0x10002F494, symSize: 0x1E4 }
  - { offsetInCU: 0x113F4, offset: 0xA6B92, size: 0x8, addend: 0x0, symName: __ZNSt3__119basic_ostringstreamIcNS_11char_traitsIcEENS_9allocatorIcEEED1Ev, symObjAddr: 0x2474, symBinAddr: 0x10002F678, symSize: 0xB4 }
  - { offsetInCU: 0x11816, offset: 0xA6FB4, size: 0x8, addend: 0x0, symName: __ZN8CryptoPP19EncodedObjectFilter3PutEPKhm, symObjAddr: 0x2528, symBinAddr: 0x10002F72C, symSize: 0x5F8 }
  - { offsetInCU: 0x124C6, offset: 0xA7C64, size: 0x8, addend: 0x0, symName: __ZN8CryptoPP10LazyPutterD1Ev, symObjAddr: 0x2B38, symBinAddr: 0x10002FD24, symSize: 0x50 }
  - { offsetInCU: 0x12501, offset: 0xA7C9F, size: 0x8, addend: 0x0, symName: __ZN8CryptoPP17BERGeneralDecoderC2ERNS_22BufferedTransformationE, symObjAddr: 0x2B88, symBinAddr: 0x10002FD74, symSize: 0x58 }
  - { offsetInCU: 0x125F0, offset: 0xA7D8E, size: 0x8, addend: 0x0, symName: __ZN8CryptoPP17BERGeneralDecoderC1ERNS_22BufferedTransformationE, symObjAddr: 0x2CC0, symBinAddr: 0x10002FEAC, symSize: 0x58 }
  - { offsetInCU: 0x126EE, offset: 0xA7E8C, size: 0x8, addend: 0x0, symName: __ZN8CryptoPP17BERGeneralDecoderC2ERNS_22BufferedTransformationEh, symObjAddr: 0x2D18, symBinAddr: 0x10002FF04, symSize: 0x64 }
  - { offsetInCU: 0x127BD, offset: 0xA7F5B, size: 0x8, addend: 0x0, symName: __ZN8CryptoPP17BERGeneralDecoderC2ERS0_h, symObjAddr: 0x2D7C, symBinAddr: 0x10002FF68, symSize: 0x64 }
  - { offsetInCU: 0x128C3, offset: 0xA8061, size: 0x8, addend: 0x0, symName: __ZN8CryptoPP17BERGeneralDecoderC1ERS0_h, symObjAddr: 0x2DE0, symBinAddr: 0x10002FFCC, symSize: 0x64 }
  - { offsetInCU: 0x129C3, offset: 0xA8161, size: 0x8, addend: 0x0, symName: __ZN8CryptoPP17BERGeneralDecoderD2Ev, symObjAddr: 0x2E44, symBinAddr: 0x100030030, symSize: 0x68 }
  - { offsetInCU: 0x12A08, offset: 0xA81A6, size: 0x8, addend: 0x0, symName: __ZThn8_N8CryptoPP17BERGeneralDecoderD1Ev, symObjAddr: 0x2EAC, symBinAddr: 0x100030098, symSize: 0x50 }
  - { offsetInCU: 0x12A5E, offset: 0xA81FC, size: 0x8, addend: 0x0, symName: __ZN8CryptoPP17BERGeneralDecoderD0Ev, symObjAddr: 0x2EFC, symBinAddr: 0x1000300E8, symSize: 0x70 }
  - { offsetInCU: 0x12B12, offset: 0xA82B0, size: 0x8, addend: 0x0, symName: __ZThn8_N8CryptoPP17BERGeneralDecoderD0Ev, symObjAddr: 0x2F6C, symBinAddr: 0x100030158, symSize: 0x74 }
  - { offsetInCU: 0x12BBD, offset: 0xA835B, size: 0x8, addend: 0x0, symName: __ZNK8CryptoPP17BERGeneralDecoder8PeekByteEv, symObjAddr: 0x2FE0, symBinAddr: 0x1000301CC, symSize: 0x74 }
  - { offsetInCU: 0x12C38, offset: 0xA83D6, size: 0x8, addend: 0x0, symName: __ZN8CryptoPP17BERGeneralDecoder9CheckByteEh, symObjAddr: 0x3054, symBinAddr: 0x100030240, symSize: 0x80 }
  - { offsetInCU: 0x12CD5, offset: 0xA8473, size: 0x8, addend: 0x0, symName: __ZN8CryptoPP17BERGeneralDecoder11TransferTo2ERNS_22BufferedTransformationERmRKNSt3__112basic_stringIcNS4_11char_traitsIcEENS4_9allocatorIcEEEEb, symObjAddr: 0x30D4, symBinAddr: 0x1000302C0, symSize: 0xA8 }
  - { offsetInCU: 0x12DAF, offset: 0xA854D, size: 0x8, addend: 0x0, symName: __ZN8CryptoPP17BERGeneralDecoder12ReduceLengthEm, symObjAddr: 0x317C, symBinAddr: 0x100030368, symSize: 0x70 }
  - { offsetInCU: 0x12E00, offset: 0xA859E, size: 0x8, addend: 0x0, symName: __ZNK8CryptoPP17BERGeneralDecoder12CopyRangeTo2ERNS_22BufferedTransformationERmmRKNSt3__112basic_stringIcNS4_11char_traitsIcEENS4_9allocatorIcEEEEb, symObjAddr: 0x31EC, symBinAddr: 0x1000303D8, symSize: 0x24 }
  - { offsetInCU: 0x12EA2, offset: 0xA8640, size: 0x8, addend: 0x0, symName: __ZN8CryptoPP17DERGeneralEncoderC2ERNS_22BufferedTransformationE, symObjAddr: 0x3210, symBinAddr: 0x1000303FC, symSize: 0x40 }
  - { offsetInCU: 0x12EF7, offset: 0xA8695, size: 0x8, addend: 0x0, symName: __ZN8CryptoPP17DERGeneralEncoderC1ERNS_22BufferedTransformationE, symObjAddr: 0x3250, symBinAddr: 0x10003043C, symSize: 0x40 }
  - { offsetInCU: 0x12F5A, offset: 0xA86F8, size: 0x8, addend: 0x0, symName: __ZN8CryptoPP17DERGeneralEncoderC2ERNS_22BufferedTransformationEh, symObjAddr: 0x3290, symBinAddr: 0x10003047C, symSize: 0x44 }
  - { offsetInCU: 0x12F8F, offset: 0xA872D, size: 0x8, addend: 0x0, symName: __ZN8CryptoPP17DERGeneralEncoderC2ERS0_h, symObjAddr: 0x32D4, symBinAddr: 0x1000304C0, symSize: 0x44 }
  - { offsetInCU: 0x12FFB, offset: 0xA8799, size: 0x8, addend: 0x0, symName: __ZN8CryptoPP17DERGeneralEncoderC1ERS0_h, symObjAddr: 0x3318, symBinAddr: 0x100030504, symSize: 0x44 }
  - { offsetInCU: 0x1305F, offset: 0xA87FD, size: 0x8, addend: 0x0, symName: __ZThn8_N8CryptoPP17DERGeneralEncoderD1Ev, symObjAddr: 0x3448, symBinAddr: 0x100030634, symSize: 0x8 }
  - { offsetInCU: 0x130A2, offset: 0xA8840, size: 0x8, addend: 0x0, symName: __ZN8CryptoPP17DERGeneralEncoderD0Ev, symObjAddr: 0x3450, symBinAddr: 0x10003063C, symSize: 0x38 }
  - { offsetInCU: 0x13144, offset: 0xA88E2, size: 0x8, addend: 0x0, symName: __ZThn8_N8CryptoPP17DERGeneralEncoderD0Ev, symObjAddr: 0x3488, symBinAddr: 0x100030674, symSize: 0x3C }
  - { offsetInCU: 0x1333F, offset: 0xA8ADD, size: 0x8, addend: 0x0, symName: __ZN8CryptoPP13X509PublicKey9BERDecodeERNS_22BufferedTransformationE, symObjAddr: 0x34C4, symBinAddr: 0x1000306B0, symSize: 0x37C }
  - { offsetInCU: 0x13EA3, offset: 0xA9641, size: 0x8, addend: 0x0, symName: __ZNK8CryptoPP13X509PublicKey9DEREncodeERNS_22BufferedTransformationE, symObjAddr: 0x38A8, symBinAddr: 0x100030A2C, symSize: 0x340 }
  - { offsetInCU: 0x14A0F, offset: 0xAA1AD, size: 0x8, addend: 0x0, symName: __ZN8CryptoPP15PKCS8PrivateKey9BERDecodeERNS_22BufferedTransformationE, symObjAddr: 0x3BEC, symBinAddr: 0x100030D6C, symSize: 0x374 }
  - { offsetInCU: 0x15568, offset: 0xAAD06, size: 0x8, addend: 0x0, symName: __ZNK8CryptoPP15PKCS8PrivateKey9DEREncodeERNS_22BufferedTransformationE, symObjAddr: 0x438C, symBinAddr: 0x10003150C, symSize: 0x3B8 }
  - { offsetInCU: 0x1625A, offset: 0xAB9F8, size: 0x8, addend: 0x0, symName: __ZN8CryptoPP15PKCS8PrivateKey27BERDecodeOptionalAttributesERNS_22BufferedTransformationE, symObjAddr: 0x4744, symBinAddr: 0x1000318C4, symSize: 0x10 }
  - { offsetInCU: 0x162AC, offset: 0xABA4A, size: 0x8, addend: 0x0, symName: __ZNK8CryptoPP15PKCS8PrivateKey27DEREncodeOptionalAttributesERNS_22BufferedTransformationE, symObjAddr: 0x4754, symBinAddr: 0x1000318D4, symSize: 0x3C }
  - { offsetInCU: 0x163A0, offset: 0xABB3E, size: 0x8, addend: 0x0, symName: __ZN8CryptoPP18ASN1CryptoMaterialINS_9PublicKeyEED1Ev, symObjAddr: 0x4790, symBinAddr: 0x1000C772C, symSize: 0x4 }
  - { offsetInCU: 0x163C1, offset: 0xABB5F, size: 0x8, addend: 0x0, symName: __ZN8CryptoPP18ASN1CryptoMaterialINS_9PublicKeyEED0Ev, symObjAddr: 0x4794, symBinAddr: 0x1000C7730, symSize: 0x4 }
  - { offsetInCU: 0x163E2, offset: 0xABB80, size: 0x8, addend: 0x0, symName: __ZNK8CryptoPP18ASN1CryptoMaterialINS_9PublicKeyEE4SaveERNS_22BufferedTransformationE, symObjAddr: 0x47A4, symBinAddr: 0x100031910, symSize: 0xC }
  - { offsetInCU: 0x16428, offset: 0xABBC6, size: 0x8, addend: 0x0, symName: __ZN8CryptoPP18ASN1CryptoMaterialINS_9PublicKeyEE4LoadERNS_22BufferedTransformationE, symObjAddr: 0x47B0, symBinAddr: 0x10003191C, symSize: 0xC }
  - { offsetInCU: 0x16490, offset: 0xABC2E, size: 0x8, addend: 0x0, symName: __ZThn8_N8CryptoPP18ASN1CryptoMaterialINS_9PublicKeyEED1Ev, symObjAddr: 0x47BC, symBinAddr: 0x1000C7734, symSize: 0x4 }
  - { offsetInCU: 0x164AB, offset: 0xABC49, size: 0x8, addend: 0x0, symName: __ZThn8_N8CryptoPP18ASN1CryptoMaterialINS_9PublicKeyEED1Ev, symObjAddr: 0x47BC, symBinAddr: 0x1000C7734, symSize: 0x4 }
  - { offsetInCU: 0x164E4, offset: 0xABC82, size: 0x8, addend: 0x0, symName: __ZThn8_N8CryptoPP18ASN1CryptoMaterialINS_9PublicKeyEED0Ev, symObjAddr: 0x47C0, symBinAddr: 0x1000C7738, symSize: 0x4 }
  - { offsetInCU: 0x164FF, offset: 0xABC9D, size: 0x8, addend: 0x0, symName: __ZThn8_N8CryptoPP18ASN1CryptoMaterialINS_9PublicKeyEED0Ev, symObjAddr: 0x47C0, symBinAddr: 0x1000C7738, symSize: 0x4 }
  - { offsetInCU: 0x1651B, offset: 0xABCB9, size: 0x8, addend: 0x0, symName: __ZNK8CryptoPP14CryptoMaterial14ThrowIfInvalidERNS_21RandomNumberGeneratorEj, symObjAddr: 0x47C4, symBinAddr: 0x100031928, symSize: 0xBC }
  - { offsetInCU: 0x1693B, offset: 0xAC0D9, size: 0x8, addend: 0x0, symName: __ZN8CryptoPP14CryptoMaterial15InvalidMaterialC1ERKNSt3__112basic_stringIcNS2_11char_traitsIcEENS2_9allocatorIcEEEE, symObjAddr: 0x5B94, symBinAddr: 0x1000322B0, symSize: 0x64 }
  - { offsetInCU: 0x16A11, offset: 0xAC1AF, size: 0x8, addend: 0x0, symName: __ZTv0_n64_NK8CryptoPP18ASN1CryptoMaterialINS_9PublicKeyEE4SaveERNS_22BufferedTransformationE, symObjAddr: 0x4880, symBinAddr: 0x1000319E4, symSize: 0x18 }
  - { offsetInCU: 0x16A86, offset: 0xAC224, size: 0x8, addend: 0x0, symName: __ZTv0_n72_N8CryptoPP18ASN1CryptoMaterialINS_9PublicKeyEE4LoadERNS_22BufferedTransformationE, symObjAddr: 0x4898, symBinAddr: 0x1000319FC, symSize: 0x18 }
  - { offsetInCU: 0x16AD8, offset: 0xAC276, size: 0x8, addend: 0x0, symName: __ZNK8CryptoPP14CryptoMaterial22SupportsPrecomputationEv, symObjAddr: 0x48B0, symBinAddr: 0x100031A14, symSize: 0x8 }
  - { offsetInCU: 0x16B50, offset: 0xAC2EE, size: 0x8, addend: 0x0, symName: __ZN8CryptoPP14CryptoMaterial10PrecomputeEj, symObjAddr: 0x48B8, symBinAddr: 0x100031A1C, symSize: 0x100 }
  - { offsetInCU: 0x1704E, offset: 0xAC7EC, size: 0x8, addend: 0x0, symName: __ZN8CryptoPP14CryptoMaterial18LoadPrecomputationERNS_22BufferedTransformationE, symObjAddr: 0x49B8, symBinAddr: 0x100031B1C, symSize: 0x100 }
  - { offsetInCU: 0x1754C, offset: 0xACCEA, size: 0x8, addend: 0x0, symName: __ZNK8CryptoPP14CryptoMaterial18SavePrecomputationERNS_22BufferedTransformationE, symObjAddr: 0x4AB8, symBinAddr: 0x100031C1C, symSize: 0x100 }
  - { offsetInCU: 0x17A4F, offset: 0xAD1ED, size: 0x8, addend: 0x0, symName: __ZN8CryptoPP9PublicKeyD1Ev, symObjAddr: 0x4BB8, symBinAddr: 0x1000C773C, symSize: 0x4 }
  - { offsetInCU: 0x17A7A, offset: 0xAD218, size: 0x8, addend: 0x0, symName: __ZN8CryptoPP9PublicKeyD0Ev, symObjAddr: 0x4BBC, symBinAddr: 0x1000C7740, symSize: 0x4 }
  - { offsetInCU: 0x17AA5, offset: 0xAD243, size: 0x8, addend: 0x0, symName: __ZNK8CryptoPP14CryptoMaterial4SaveERNS_22BufferedTransformationE, symObjAddr: 0x4BC0, symBinAddr: 0x100031D1C, symSize: 0x104 }
  - { offsetInCU: 0x17FA3, offset: 0xAD741, size: 0x8, addend: 0x0, symName: __ZN8CryptoPP14CryptoMaterial4LoadERNS_22BufferedTransformationE, symObjAddr: 0x4CC4, symBinAddr: 0x100031E20, symSize: 0x104 }
  - { offsetInCU: 0x184A1, offset: 0xADC3F, size: 0x8, addend: 0x0, symName: __ZN8CryptoPP13X509PublicKeyD1Ev, symObjAddr: 0x4DC8, symBinAddr: 0x1000C7744, symSize: 0x4 }
  - { offsetInCU: 0x184C2, offset: 0xADC60, size: 0x8, addend: 0x0, symName: __ZN8CryptoPP13X509PublicKeyD0Ev, symObjAddr: 0x4DCC, symBinAddr: 0x1000C7748, symSize: 0x4 }
  - { offsetInCU: 0x184E3, offset: 0xADC81, size: 0x8, addend: 0x0, symName: __ZN8CryptoPP13X509PublicKey28BERDecodeAlgorithmParametersERNS_22BufferedTransformationE, symObjAddr: 0x4DD0, symBinAddr: 0x100031F24, symSize: 0x1C }
  - { offsetInCU: 0x18532, offset: 0xADCD0, size: 0x8, addend: 0x0, symName: __ZNK8CryptoPP13X509PublicKey28DEREncodeAlgorithmParametersERNS_22BufferedTransformationE, symObjAddr: 0x4DEC, symBinAddr: 0x100031F40, symSize: 0x74 }
  - { offsetInCU: 0x186D4, offset: 0xADE72, size: 0x8, addend: 0x0, symName: __ZThn8_N8CryptoPP13X509PublicKeyD1Ev, symObjAddr: 0x4E60, symBinAddr: 0x1000C774C, symSize: 0x4 }
  - { offsetInCU: 0x186EF, offset: 0xADE8D, size: 0x8, addend: 0x0, symName: __ZThn8_N8CryptoPP13X509PublicKeyD1Ev, symObjAddr: 0x4E60, symBinAddr: 0x1000C774C, symSize: 0x4 }
  - { offsetInCU: 0x18725, offset: 0xADEC3, size: 0x8, addend: 0x0, symName: __ZThn8_N8CryptoPP13X509PublicKeyD0Ev, symObjAddr: 0x4E64, symBinAddr: 0x1000C7750, symSize: 0x4 }
  - { offsetInCU: 0x18740, offset: 0xADEDE, size: 0x8, addend: 0x0, symName: __ZThn8_N8CryptoPP13X509PublicKeyD0Ev, symObjAddr: 0x4E64, symBinAddr: 0x1000C7750, symSize: 0x4 }
  - { offsetInCU: 0x1875C, offset: 0xADEFA, size: 0x8, addend: 0x0, symName: __ZN8CryptoPP18ASN1CryptoMaterialINS_10PrivateKeyEED1Ev, symObjAddr: 0x4E68, symBinAddr: 0x1000C7754, symSize: 0x4 }
  - { offsetInCU: 0x1877D, offset: 0xADF1B, size: 0x8, addend: 0x0, symName: __ZN8CryptoPP18ASN1CryptoMaterialINS_10PrivateKeyEED0Ev, symObjAddr: 0x4E6C, symBinAddr: 0x1000C7758, symSize: 0x4 }
  - { offsetInCU: 0x1879E, offset: 0xADF3C, size: 0x8, addend: 0x0, symName: __ZNK8CryptoPP18ASN1CryptoMaterialINS_10PrivateKeyEE4SaveERNS_22BufferedTransformationE, symObjAddr: 0x4E70, symBinAddr: 0x100031FB4, symSize: 0xC }
  - { offsetInCU: 0x187E4, offset: 0xADF82, size: 0x8, addend: 0x0, symName: __ZN8CryptoPP18ASN1CryptoMaterialINS_10PrivateKeyEE4LoadERNS_22BufferedTransformationE, symObjAddr: 0x4E7C, symBinAddr: 0x100031FC0, symSize: 0xC }
  - { offsetInCU: 0x1884C, offset: 0xADFEA, size: 0x8, addend: 0x0, symName: __ZThn8_N8CryptoPP18ASN1CryptoMaterialINS_10PrivateKeyEED1Ev, symObjAddr: 0x4E88, symBinAddr: 0x1000C775C, symSize: 0x4 }
  - { offsetInCU: 0x18867, offset: 0xAE005, size: 0x8, addend: 0x0, symName: __ZThn8_N8CryptoPP18ASN1CryptoMaterialINS_10PrivateKeyEED1Ev, symObjAddr: 0x4E88, symBinAddr: 0x1000C775C, symSize: 0x4 }
  - { offsetInCU: 0x188A0, offset: 0xAE03E, size: 0x8, addend: 0x0, symName: __ZThn8_N8CryptoPP18ASN1CryptoMaterialINS_10PrivateKeyEED0Ev, symObjAddr: 0x4E8C, symBinAddr: 0x1000C7760, symSize: 0x4 }
  - { offsetInCU: 0x188BB, offset: 0xAE059, size: 0x8, addend: 0x0, symName: __ZThn8_N8CryptoPP18ASN1CryptoMaterialINS_10PrivateKeyEED0Ev, symObjAddr: 0x4E8C, symBinAddr: 0x1000C7760, symSize: 0x4 }
  - { offsetInCU: 0x188FF, offset: 0xAE09D, size: 0x8, addend: 0x0, symName: __ZTv0_n64_NK8CryptoPP18ASN1CryptoMaterialINS_10PrivateKeyEE4SaveERNS_22BufferedTransformationE, symObjAddr: 0x4E90, symBinAddr: 0x100031FCC, symSize: 0x18 }
  - { offsetInCU: 0x18974, offset: 0xAE112, size: 0x8, addend: 0x0, symName: __ZTv0_n72_N8CryptoPP18ASN1CryptoMaterialINS_10PrivateKeyEE4LoadERNS_22BufferedTransformationE, symObjAddr: 0x4EA8, symBinAddr: 0x100031FE4, symSize: 0x18 }
  - { offsetInCU: 0x189C6, offset: 0xAE164, size: 0x8, addend: 0x0, symName: __ZN8CryptoPP25GeneratableCryptoMaterial14GenerateRandomERNS_21RandomNumberGeneratorERKNS_14NameValuePairsE, symObjAddr: 0x4EC0, symBinAddr: 0x100031FFC, symSize: 0x100 }
  - { offsetInCU: 0x18EA6, offset: 0xAE644, size: 0x8, addend: 0x0, symName: __ZN8CryptoPP10PrivateKeyD1Ev, symObjAddr: 0x4FC0, symBinAddr: 0x1000C7764, symSize: 0x4 }
  - { offsetInCU: 0x18ED1, offset: 0xAE66F, size: 0x8, addend: 0x0, symName: __ZN8CryptoPP10PrivateKeyD0Ev, symObjAddr: 0x4FC4, symBinAddr: 0x1000C7768, symSize: 0x4 }
  - { offsetInCU: 0x18EFC, offset: 0xAE69A, size: 0x8, addend: 0x0, symName: __ZN8CryptoPP25GeneratableCryptoMaterialD1Ev, symObjAddr: 0x4FC8, symBinAddr: 0x1000C776C, symSize: 0x4 }
  - { offsetInCU: 0x18F24, offset: 0xAE6C2, size: 0x8, addend: 0x0, symName: __ZN8CryptoPP25GeneratableCryptoMaterialD0Ev, symObjAddr: 0x4FCC, symBinAddr: 0x1000C7770, symSize: 0x4 }
  - { offsetInCU: 0x18F4C, offset: 0xAE6EA, size: 0x8, addend: 0x0, symName: __ZN8CryptoPP15PKCS8PrivateKeyD1Ev, symObjAddr: 0x4FD0, symBinAddr: 0x1000C7774, symSize: 0x4 }
  - { offsetInCU: 0x18F6D, offset: 0xAE70B, size: 0x8, addend: 0x0, symName: __ZN8CryptoPP15PKCS8PrivateKeyD0Ev, symObjAddr: 0x4FD4, symBinAddr: 0x1000C7778, symSize: 0x4 }
  - { offsetInCU: 0x18F8E, offset: 0xAE72C, size: 0x8, addend: 0x0, symName: __ZN8CryptoPP15PKCS8PrivateKey28BERDecodeAlgorithmParametersERNS_22BufferedTransformationE, symObjAddr: 0x4FD8, symBinAddr: 0x1000320FC, symSize: 0x1C }
  - { offsetInCU: 0x18FDD, offset: 0xAE77B, size: 0x8, addend: 0x0, symName: __ZNK8CryptoPP15PKCS8PrivateKey28DEREncodeAlgorithmParametersERNS_22BufferedTransformationE, symObjAddr: 0x4FF4, symBinAddr: 0x100032118, symSize: 0x74 }
  - { offsetInCU: 0x1917F, offset: 0xAE91D, size: 0x8, addend: 0x0, symName: __ZThn8_N8CryptoPP15PKCS8PrivateKeyD1Ev, symObjAddr: 0x5068, symBinAddr: 0x1000C777C, symSize: 0x4 }
  - { offsetInCU: 0x1919A, offset: 0xAE938, size: 0x8, addend: 0x0, symName: __ZThn8_N8CryptoPP15PKCS8PrivateKeyD1Ev, symObjAddr: 0x5068, symBinAddr: 0x1000C777C, symSize: 0x4 }
  - { offsetInCU: 0x191D0, offset: 0xAE96E, size: 0x8, addend: 0x0, symName: __ZThn8_N8CryptoPP15PKCS8PrivateKeyD0Ev, symObjAddr: 0x506C, symBinAddr: 0x1000C7780, symSize: 0x4 }
  - { offsetInCU: 0x191EB, offset: 0xAE989, size: 0x8, addend: 0x0, symName: __ZThn8_N8CryptoPP15PKCS8PrivateKeyD0Ev, symObjAddr: 0x506C, symBinAddr: 0x1000C7780, symSize: 0x4 }
  - { offsetInCU: 0x19308, offset: 0xAEAA6, size: 0x8, addend: 0x0, symName: __ZN8CryptoPP10LazyPutterD0Ev, symObjAddr: 0x58D4, symBinAddr: 0x100032248, symSize: 0x68 }
  - { offsetInCU: 0x1941F, offset: 0xAEBBD, size: 0x8, addend: 0x0, symName: __ZN8CryptoPP14CryptoMaterial15InvalidMaterialD1Ev, symObjAddr: 0x5BF8, symBinAddr: 0x100032314, symSize: 0x50 }
  - { offsetInCU: 0x195F7, offset: 0xAED95, size: 0x8, addend: 0x0, symName: __ZN8CryptoPP14CryptoMaterial15InvalidMaterialD0Ev, symObjAddr: 0x5C48, symBinAddr: 0x100032364, symSize: 0x58 }
  - { offsetInCU: 0x5F0E, offset: 0xB529B, size: 0x8, addend: 0x0, symName: __ZN8CryptoPP13BaseN_Encoder18IsolatedInitializeERKNS_14NameValuePairsE, symObjAddr: 0x0, symBinAddr: 0x100032560, symSize: 0x1E8 }
  - { offsetInCU: 0x63AB, offset: 0xB5738, size: 0x8, addend: 0x0, symName: __ZNK8CryptoPP14NameValuePairs20GetRequiredParameterIPKhEEvPKcS5_RT_, symObjAddr: 0x1E8, symBinAddr: 0x100032748, symSize: 0x18C }
  - { offsetInCU: 0x69A8, offset: 0xB5D35, size: 0x8, addend: 0x0, symName: __ZNK8CryptoPP14NameValuePairs23GetRequiredIntParameterEPKcS2_Ri, symObjAddr: 0x374, symBinAddr: 0x1000328D4, symSize: 0x18C }
  - { offsetInCU: 0x75C4, offset: 0xB6951, size: 0x8, addend: 0x0, symName: __ZN8CryptoPP13BaseN_Encoder4Put2EPKhmib, symObjAddr: 0x65C, symBinAddr: 0x100032A60, symSize: 0x288 }
  - { offsetInCU: 0x7786, offset: 0xB6B13, size: 0x8, addend: 0x0, symName: __ZN8CryptoPP13BaseN_Decoder18IsolatedInitializeERKNS_14NameValuePairsE, symObjAddr: 0x8E4, symBinAddr: 0x100032CE8, symSize: 0x17C }
  - { offsetInCU: 0x7B28, offset: 0xB6EB5, size: 0x8, addend: 0x0, symName: __ZNK8CryptoPP14NameValuePairs20GetRequiredParameterIPKiEEvPKcS5_RT_, symObjAddr: 0xA60, symBinAddr: 0x100032E64, symSize: 0x18C }
  - { offsetInCU: 0x815E, offset: 0xB74EB, size: 0x8, addend: 0x0, symName: __ZN8CryptoPP13BaseN_Decoder4Put2EPKhmib, symObjAddr: 0xBEC, symBinAddr: 0x100032FF0, symSize: 0x200 }
  - { offsetInCU: 0x830F, offset: 0xB769C, size: 0x8, addend: 0x0, symName: __ZN8CryptoPP13BaseN_Decoder29InitializeDecodingLookupArrayEPiPKhjb, symObjAddr: 0xDEC, symBinAddr: 0x1000331F0, symSize: 0xE4 }
  - { offsetInCU: 0x873F, offset: 0xB7ACC, size: 0x8, addend: 0x0, symName: __ZN8CryptoPP7Grouper18IsolatedInitializeERKNS_14NameValuePairsE, symObjAddr: 0xED0, symBinAddr: 0x1000332D4, symSize: 0x2A8 }
  - { offsetInCU: 0x91BB, offset: 0xB8548, size: 0x8, addend: 0x0, symName: __ZNK8CryptoPP14NameValuePairs20GetRequiredParameterINS_23ConstByteArrayParameterEEEvPKcS4_RT_, symObjAddr: 0x1178, symBinAddr: 0x10003357C, symSize: 0x18C }
  - { offsetInCU: 0x988A, offset: 0xB8C17, size: 0x8, addend: 0x0, symName: __ZN8CryptoPP7Grouper4Put2EPKhmib, symObjAddr: 0x1350, symBinAddr: 0x100033708, symSize: 0x1B4 }
  - { offsetInCU: 0x9A1E, offset: 0xB8DAB, size: 0x8, addend: 0x0, symName: __ZN8CryptoPP13BaseN_EncoderD1Ev, symObjAddr: 0x1504, symBinAddr: 0x1000338BC, symSize: 0xBC }
  - { offsetInCU: 0x9C92, offset: 0xB901F, size: 0x8, addend: 0x0, symName: __ZN8CryptoPP13BaseN_EncoderD0Ev, symObjAddr: 0x15C0, symBinAddr: 0x100033978, symSize: 0xCC }
  - { offsetInCU: 0x9F5A, offset: 0xB92E7, size: 0x8, addend: 0x0, symName: __ZThn8_N8CryptoPP13BaseN_EncoderD1Ev, symObjAddr: 0x198C, symBinAddr: 0x100033A44, symSize: 0xBC }
  - { offsetInCU: 0xA1BC, offset: 0xB9549, size: 0x8, addend: 0x0, symName: __ZThn8_N8CryptoPP13BaseN_EncoderD0Ev, symObjAddr: 0x1A48, symBinAddr: 0x100033B00, symSize: 0xDC }
  - { offsetInCU: 0xA48C, offset: 0xB9819, size: 0x8, addend: 0x0, symName: __ZN8CryptoPP13BaseN_DecoderD1Ev, symObjAddr: 0x1B24, symBinAddr: 0x100033BDC, symSize: 0xBC }
  - { offsetInCU: 0xA700, offset: 0xB9A8D, size: 0x8, addend: 0x0, symName: __ZN8CryptoPP13BaseN_DecoderD0Ev, symObjAddr: 0x1BE0, symBinAddr: 0x100033C98, symSize: 0xCC }
  - { offsetInCU: 0xA99C, offset: 0xB9D29, size: 0x8, addend: 0x0, symName: __ZThn8_N8CryptoPP13BaseN_DecoderD1Ev, symObjAddr: 0x1CAC, symBinAddr: 0x100033D64, symSize: 0xBC }
  - { offsetInCU: 0xABFE, offset: 0xB9F8B, size: 0x8, addend: 0x0, symName: __ZThn8_N8CryptoPP13BaseN_DecoderD0Ev, symObjAddr: 0x1D68, symBinAddr: 0x100033E20, symSize: 0xDC }
  - { offsetInCU: 0xAEAD, offset: 0xBA23A, size: 0x8, addend: 0x0, symName: __ZN8CryptoPP7GrouperD1Ev, symObjAddr: 0x1E44, symBinAddr: 0x100033EFC, symSize: 0x4 }
  - { offsetInCU: 0xAED1, offset: 0xBA25E, size: 0x8, addend: 0x0, symName: __ZN8CryptoPP7GrouperD1Ev, symObjAddr: 0x1E44, symBinAddr: 0x100033EFC, symSize: 0x4 }
  - { offsetInCU: 0xAEE5, offset: 0xBA272, size: 0x8, addend: 0x0, symName: __ZN8CryptoPP7GrouperD2Ev, symObjAddr: 0x2240, symBinAddr: 0x100033F7C, symSize: 0xF8 }
  - { offsetInCU: 0xB26F, offset: 0xBA5FC, size: 0x8, addend: 0x0, symName: __ZN8CryptoPP7GrouperD0Ev, symObjAddr: 0x1E48, symBinAddr: 0x100033F00, symSize: 0x38 }
  - { offsetInCU: 0xB2F3, offset: 0xBA680, size: 0x8, addend: 0x0, symName: __ZThn8_N8CryptoPP7GrouperD1Ev, symObjAddr: 0x1E88, symBinAddr: 0x100033F38, symSize: 0x8 }
  - { offsetInCU: 0xB351, offset: 0xBA6DE, size: 0x8, addend: 0x0, symName: __ZThn8_N8CryptoPP7GrouperD0Ev, symObjAddr: 0x1E90, symBinAddr: 0x100033F40, symSize: 0x3C }
  - { offsetInCU: 0x26, offset: 0xBA9DE, size: 0x8, addend: 0x0, symName: __ZN8CryptoPP14CPU_ProbeCRC32Ev, symObjAddr: 0x0, symBinAddr: 0x100034074, symSize: 0x8 }
  - { offsetInCU: 0x40, offset: 0xBA9F8, size: 0x8, addend: 0x0, symName: _CRC_SIMD_FNAME, symObjAddr: 0x220, symBinAddr: 0x1000E0EED, symSize: 0x0 }
  - { offsetInCU: 0x6D, offset: 0xBAA25, size: 0x8, addend: 0x0, symName: __ZN8CryptoPP14CPU_ProbeCRC32Ev, symObjAddr: 0x0, symBinAddr: 0x100034074, symSize: 0x8 }
  - { offsetInCU: 0xEE, offset: 0xBAAA6, size: 0x8, addend: 0x0, symName: __ZN8CryptoPP18CRC32_Update_ARMV8EPKhmRj, symObjAddr: 0x8, symBinAddr: 0x10003407C, symSize: 0x10C }
  - { offsetInCU: 0x1FD, offset: 0xBABB5, size: 0x8, addend: 0x0, symName: __ZN8CryptoPP19CRC32C_Update_ARMV8EPKhmRj, symObjAddr: 0x114, symBinAddr: 0x100034188, symSize: 0x10C }
  - { offsetInCU: 0x6CFE, offset: 0xC4495, size: 0x8, addend: 0x0, symName: __ZN8CryptoPPL24GetRecommendedParametersERPKNS_23EcRecommendedParametersINS_3ECPEEES5_, symObjAddr: 0x1C8D8, symBinAddr: 0x10004FFB8, symSize: 0x159C }
  - { offsetInCU: 0x6D26, offset: 0xC44BD, size: 0x8, addend: 0x0, symName: __MergedGlobals, symObjAddr: 0x4BF820, symBinAddr: 0x1001182B0, symSize: 0x0 }
  - { offsetInCU: 0xCBEB, offset: 0xCA382, size: 0x8, addend: 0x0, symName: __ZN8CryptoPPL24GetRecommendedParametersERPKNS_23EcRecommendedParametersINS_4EC2NEEES5_, symObjAddr: 0x21DB4, symBinAddr: 0x100055230, symSize: 0x118C }
  - { offsetInCU: 0xCC11, offset: 0xCA3A8, size: 0x8, addend: 0x0, symName: __MergedGlobals, symObjAddr: 0x4BF820, symBinAddr: 0x1001182B0, symSize: 0x0 }
  - { offsetInCU: 0x1C435, offset: 0xD9BCC, size: 0x8, addend: 0x0, symName: __ZN8CryptoPP18StandardReallocateItNS_20AllocatorWithCleanupItLb0EEEEENT0_7pointerERS3_PT_NS3_9size_typeES8_b, symObjAddr: 0x24C, symBinAddr: 0x1000344E0, symSize: 0x114 }
  - { offsetInCU: 0x1C74D, offset: 0xD9EE4, size: 0x8, addend: 0x0, symName: __ZN8CryptoPP18StandardReallocateIjNS_20AllocatorWithCleanupIjLb0EEEEENT0_7pointerERS3_PT_NS3_9size_typeES8_b, symObjAddr: 0x478, symBinAddr: 0x10003470C, symSize: 0x114 }
  - { offsetInCU: 0x1CA65, offset: 0xDA1FC, size: 0x8, addend: 0x0, symName: __ZN8CryptoPP18StandardReallocateImNS_20AllocatorWithCleanupImLb0EEEEENT0_7pointerERS3_PT_NS3_9size_typeES8_b, symObjAddr: 0x6A4, symBinAddr: 0x100034884, symSize: 0x114 }
  - { offsetInCU: 0x1CD3E, offset: 0xDA4D5, size: 0x8, addend: 0x0, symName: __ZN8CryptoPP18StandardReallocateIoNS_20AllocatorWithCleanupIoLb1EEEEENT0_7pointerERS3_PT_NS3_9size_typeES8_b, symObjAddr: 0x8D4, symBinAddr: 0x100034AB4, symSize: 0x11C }
  - { offsetInCU: 0x20822, offset: 0xDDFB9, size: 0x8, addend: 0x0, symName: __ZN8CryptoPP28GeneralCascadeMultiplicationINS_7IntegerENSt3__111__wrap_iterIPNS_15BaseAndExponentIS1_S1_EEEEEET_RKNS_13AbstractGroupIS8_EET0_SD_, symObjAddr: 0xAD58, symBinAddr: 0x10003E644, symSize: 0x310 }
  - { offsetInCU: 0x23331, offset: 0xE0AC8, size: 0x8, addend: 0x0, symName: __ZN8CryptoPP28GeneralCascadeMultiplicationINS_9EC2NPointENSt3__111__wrap_iterIPNS_15BaseAndExponentIS1_NS_7IntegerEEEEEEET_RKNS_13AbstractGroupIS9_EET0_SE_, symObjAddr: 0x195F8, symBinAddr: 0x10004CD28, symSize: 0x2D4 }
  - { offsetInCU: 0x23AB8, offset: 0xE124F, size: 0x8, addend: 0x0, symName: __ZN8CryptoPP28GeneralCascadeMultiplicationINS_8ECPPointENSt3__111__wrap_iterIPNS_15BaseAndExponentIS1_NS_7IntegerEEEEEEET_RKNS_13AbstractGroupIS9_EET0_SE_, symObjAddr: 0x1ACC4, symBinAddr: 0x10004E3EC, symSize: 0x2E4 }
  - { offsetInCU: 0x249B5, offset: 0xE214C, size: 0x8, addend: 0x0, symName: __ZN8CryptoPP4ASN19sm2p256v1Ev, symObjAddr: 0x3B154, symBinAddr: 0x10006B9D8, symSize: 0x88 }
  - { offsetInCU: 0x24D1A, offset: 0xE24B1, size: 0x8, addend: 0x0, symName: __ZN8CryptoPP4ASN132sm2encrypt_recommendedParametersEv, symObjAddr: 0x3B348, symBinAddr: 0x10006BBCC, symSize: 0x88 }
  - { offsetInCU: 0x25088, offset: 0xE281F, size: 0x8, addend: 0x0, symName: __ZN8CryptoPP4ASN19secp192r1Ev, symObjAddr: 0x3B3D0, symBinAddr: 0x10006BC54, symSize: 0xCC }
  - { offsetInCU: 0x255AD, offset: 0xE2D44, size: 0x8, addend: 0x0, symName: __ZN8CryptoPP4ASN19secp256r1Ev, symObjAddr: 0x3B49C, symBinAddr: 0x10006BD20, symSize: 0xCC }
  - { offsetInCU: 0x25AD2, offset: 0xE3269, size: 0x8, addend: 0x0, symName: __ZN8CryptoPP4ASN115brainpoolP160r1Ev, symObjAddr: 0x3B568, symBinAddr: 0x10006BDEC, symSize: 0x10C }
  - { offsetInCU: 0x2613B, offset: 0xE38D2, size: 0x8, addend: 0x0, symName: __ZN8CryptoPP4ASN115brainpoolP192r1Ev, symObjAddr: 0x3B674, symBinAddr: 0x10006BEF8, symSize: 0x10C }
  - { offsetInCU: 0x267A4, offset: 0xE3F3B, size: 0x8, addend: 0x0, symName: __ZN8CryptoPP4ASN115brainpoolP224r1Ev, symObjAddr: 0x3B780, symBinAddr: 0x10006C004, symSize: 0x10C }
  - { offsetInCU: 0x26E0D, offset: 0xE45A4, size: 0x8, addend: 0x0, symName: __ZN8CryptoPP4ASN115brainpoolP256r1Ev, symObjAddr: 0x3B88C, symBinAddr: 0x10006C110, symSize: 0x10C }
  - { offsetInCU: 0x27476, offset: 0xE4C0D, size: 0x8, addend: 0x0, symName: __ZN8CryptoPP4ASN115brainpoolP320r1Ev, symObjAddr: 0x3B998, symBinAddr: 0x10006C21C, symSize: 0x10C }
  - { offsetInCU: 0x27ADF, offset: 0xE5276, size: 0x8, addend: 0x0, symName: __ZN8CryptoPP4ASN115brainpoolP384r1Ev, symObjAddr: 0x3BAA4, symBinAddr: 0x10006C328, symSize: 0x10C }
  - { offsetInCU: 0x28148, offset: 0xE58DF, size: 0x8, addend: 0x0, symName: __ZN8CryptoPP4ASN115brainpoolP512r1Ev, symObjAddr: 0x3BBB0, symBinAddr: 0x10006C434, symSize: 0x10C }
  - { offsetInCU: 0x287B1, offset: 0xE5F48, size: 0x8, addend: 0x0, symName: __ZN8CryptoPP4ASN19secp112r1Ev, symObjAddr: 0x3BCBC, symBinAddr: 0x10006C540, symSize: 0xCC }
  - { offsetInCU: 0x28CD6, offset: 0xE646D, size: 0x8, addend: 0x0, symName: __ZN8CryptoPP4ASN19secp112r2Ev, symObjAddr: 0x3BD88, symBinAddr: 0x10006C60C, symSize: 0xCC }
  - { offsetInCU: 0x291FB, offset: 0xE6992, size: 0x8, addend: 0x0, symName: __ZN8CryptoPP4ASN19secp160r1Ev, symObjAddr: 0x3BE54, symBinAddr: 0x10006C6D8, symSize: 0xCC }
  - { offsetInCU: 0x29720, offset: 0xE6EB7, size: 0x8, addend: 0x0, symName: __ZN8CryptoPP4ASN19secp160k1Ev, symObjAddr: 0x3BF20, symBinAddr: 0x10006C7A4, symSize: 0xCC }
  - { offsetInCU: 0x29C45, offset: 0xE73DC, size: 0x8, addend: 0x0, symName: __ZN8CryptoPP4ASN19secp256k1Ev, symObjAddr: 0x3BFEC, symBinAddr: 0x10006C870, symSize: 0xCC }
  - { offsetInCU: 0x2A16A, offset: 0xE7901, size: 0x8, addend: 0x0, symName: __ZN8CryptoPP4ASN19secp128r1Ev, symObjAddr: 0x3C0B8, symBinAddr: 0x10006C93C, symSize: 0xCC }
  - { offsetInCU: 0x2A68F, offset: 0xE7E26, size: 0x8, addend: 0x0, symName: __ZN8CryptoPP4ASN19secp128r2Ev, symObjAddr: 0x3C184, symBinAddr: 0x10006CA08, symSize: 0xCC }
  - { offsetInCU: 0x2ABB4, offset: 0xE834B, size: 0x8, addend: 0x0, symName: __ZN8CryptoPP4ASN19secp160r2Ev, symObjAddr: 0x3C250, symBinAddr: 0x10006CAD4, symSize: 0xCC }
  - { offsetInCU: 0x2B0D9, offset: 0xE8870, size: 0x8, addend: 0x0, symName: __ZN8CryptoPP4ASN19secp192k1Ev, symObjAddr: 0x3C31C, symBinAddr: 0x10006CBA0, symSize: 0xCC }
  - { offsetInCU: 0x2B5FE, offset: 0xE8D95, size: 0x8, addend: 0x0, symName: __ZN8CryptoPP4ASN19secp224k1Ev, symObjAddr: 0x3C3E8, symBinAddr: 0x10006CC6C, symSize: 0xCC }
  - { offsetInCU: 0x2BB24, offset: 0xE92BB, size: 0x8, addend: 0x0, symName: __ZN8CryptoPP4ASN19secp224r1Ev, symObjAddr: 0x3C4B4, symBinAddr: 0x10006CD38, symSize: 0xCC }
  - { offsetInCU: 0x2C04A, offset: 0xE97E1, size: 0x8, addend: 0x0, symName: __ZN8CryptoPP4ASN19secp384r1Ev, symObjAddr: 0x3C580, symBinAddr: 0x10006CE04, symSize: 0xCC }
  - { offsetInCU: 0x2C570, offset: 0xE9D07, size: 0x8, addend: 0x0, symName: __ZN8CryptoPP4ASN19secp521r1Ev, symObjAddr: 0x3C64C, symBinAddr: 0x10006CED0, symSize: 0xCC }
  - { offsetInCU: 0x2CAA7, offset: 0xEA23E, size: 0x8, addend: 0x0, symName: __ZN8CryptoPP4ASN116id_publicKeyTypeEv, symObjAddr: 0x3E970, symBinAddr: 0x10006EB6C, symSize: 0xCC }
  - { offsetInCU: 0x2CFCE, offset: 0xEA765, size: 0x8, addend: 0x0, symName: __ZN8CryptoPP4ASN19sect163k1Ev, symObjAddr: 0x3EB90, symBinAddr: 0x10006ECD0, symSize: 0xCC }
  - { offsetInCU: 0x2D4F3, offset: 0xEAC8A, size: 0x8, addend: 0x0, symName: __ZN8CryptoPP4ASN19sect163r1Ev, symObjAddr: 0x3EDD8, symBinAddr: 0x10006EF18, symSize: 0xCC }
  - { offsetInCU: 0x2DA18, offset: 0xEB1AF, size: 0x8, addend: 0x0, symName: __ZN8CryptoPP4ASN19sect239k1Ev, symObjAddr: 0x3EEA4, symBinAddr: 0x10006EFE4, symSize: 0xCC }
  - { offsetInCU: 0x2DF3D, offset: 0xEB6D4, size: 0x8, addend: 0x0, symName: __ZN8CryptoPP4ASN19sect113r1Ev, symObjAddr: 0x3F0E8, symBinAddr: 0x10006F228, symSize: 0xCC }
  - { offsetInCU: 0x2E462, offset: 0xEBBF9, size: 0x8, addend: 0x0, symName: __ZN8CryptoPP4ASN19sect113r2Ev, symObjAddr: 0x3F1B4, symBinAddr: 0x10006F2F4, symSize: 0xCC }
  - { offsetInCU: 0x2E987, offset: 0xEC11E, size: 0x8, addend: 0x0, symName: __ZN8CryptoPP4ASN19sect163r2Ev, symObjAddr: 0x3F280, symBinAddr: 0x10006F3C0, symSize: 0xCC }
  - { offsetInCU: 0x2EEAC, offset: 0xEC643, size: 0x8, addend: 0x0, symName: __ZN8CryptoPP4ASN19sect283k1Ev, symObjAddr: 0x3F34C, symBinAddr: 0x10006F48C, symSize: 0xCC }
  - { offsetInCU: 0x2F3D1, offset: 0xECB68, size: 0x8, addend: 0x0, symName: __ZN8CryptoPP4ASN19sect283r1Ev, symObjAddr: 0x3F418, symBinAddr: 0x10006F558, symSize: 0xCC }
  - { offsetInCU: 0x2F8F6, offset: 0xED08D, size: 0x8, addend: 0x0, symName: __ZN8CryptoPP4ASN19sect131r1Ev, symObjAddr: 0x3F4E4, symBinAddr: 0x10006F624, symSize: 0xCC }
  - { offsetInCU: 0x2FE1B, offset: 0xED5B2, size: 0x8, addend: 0x0, symName: __ZN8CryptoPP4ASN19sect131r2Ev, symObjAddr: 0x3F5B0, symBinAddr: 0x10006F6F0, symSize: 0xCC }
  - { offsetInCU: 0x30340, offset: 0xEDAD7, size: 0x8, addend: 0x0, symName: __ZN8CryptoPP4ASN19sect193r1Ev, symObjAddr: 0x3F67C, symBinAddr: 0x10006F7BC, symSize: 0xCC }
  - { offsetInCU: 0x30865, offset: 0xEDFFC, size: 0x8, addend: 0x0, symName: __ZN8CryptoPP4ASN19sect193r2Ev, symObjAddr: 0x3F748, symBinAddr: 0x10006F888, symSize: 0xCC }
  - { offsetInCU: 0x30D8A, offset: 0xEE521, size: 0x8, addend: 0x0, symName: __ZN8CryptoPP4ASN19sect233k1Ev, symObjAddr: 0x3F814, symBinAddr: 0x10006F954, symSize: 0xCC }
  - { offsetInCU: 0x312AF, offset: 0xEEA46, size: 0x8, addend: 0x0, symName: __ZN8CryptoPP4ASN19sect233r1Ev, symObjAddr: 0x3F8E0, symBinAddr: 0x10006FA20, symSize: 0xCC }
  - { offsetInCU: 0x317D4, offset: 0xEEF6B, size: 0x8, addend: 0x0, symName: __ZN8CryptoPP4ASN19sect409k1Ev, symObjAddr: 0x3F9AC, symBinAddr: 0x10006FAEC, symSize: 0xCC }
  - { offsetInCU: 0x31CFA, offset: 0xEF491, size: 0x8, addend: 0x0, symName: __ZN8CryptoPP4ASN19sect409r1Ev, symObjAddr: 0x3FA78, symBinAddr: 0x10006FBB8, symSize: 0xCC }
  - { offsetInCU: 0x32220, offset: 0xEF9B7, size: 0x8, addend: 0x0, symName: __ZN8CryptoPP4ASN19sect571k1Ev, symObjAddr: 0x3FB44, symBinAddr: 0x10006FC84, symSize: 0xCC }
  - { offsetInCU: 0x32746, offset: 0xEFEDD, size: 0x8, addend: 0x0, symName: __ZN8CryptoPP4ASN19sect571r1Ev, symObjAddr: 0x3FC10, symBinAddr: 0x10006FD50, symSize: 0xCC }
  - { offsetInCU: 0x32C6C, offset: 0xF0403, size: 0x8, addend: 0x0, symName: __ZN8CryptoPP4ASN19sm_schemeEv, symObjAddr: 0x3CAA0, symBinAddr: 0x10006CF9C, symSize: 0xCC }
  - { offsetInCU: 0x33193, offset: 0xF092A, size: 0x8, addend: 0x0, symName: __ZN8CryptoPP4ASN110sm2encryptEv, symObjAddr: 0x3CC5C, symBinAddr: 0x10006D144, symSize: 0xCC }
  - { offsetInCU: 0x336CB, offset: 0xF0E62, size: 0x8, addend: 0x0, symName: __ZN8CryptoPP4ASN117ansi_x9_62_curvesEv, symObjAddr: 0x3CD28, symBinAddr: 0x10006D210, symSize: 0xCC }
  - { offsetInCU: 0x33BF2, offset: 0xF1389, size: 0x8, addend: 0x0, symName: __ZN8CryptoPP4ASN123teletrust_ellipticCurveEv, symObjAddr: 0x3CED0, symBinAddr: 0x10006D2DC, symSize: 0x200 }
  - { offsetInCU: 0x34A33, offset: 0xF21CA, size: 0x8, addend: 0x0, symName: __ZN8CryptoPP4ASN18certicomEv, symObjAddr: 0x3D1AC, symBinAddr: 0x10006D5B8, symSize: 0xDC }
  - { offsetInCU: 0x3516F, offset: 0xF2906, size: 0x8, addend: 0x0, symName: __ZN8CryptoPP4ASN16iso_cnEv, symObjAddr: 0x3CB80, symBinAddr: 0x10006D068, symSize: 0xDC }
  - { offsetInCU: 0x35D1F, offset: 0xF34B6, size: 0x8, addend: 0x0, symName: __ZN8CryptoPP4ASN19teletrustEv, symObjAddr: 0x3D0D0, symBinAddr: 0x10006D4DC, symSize: 0xDC }
  - { offsetInCU: 0x365EF, offset: 0xF3D86, size: 0x8, addend: 0x0, symName: __ZN8CryptoPP12_GLOBAL__N_117CheckMOVConditionERKNS_7IntegerES3_, symObjAddr: 0x1F83C, symBinAddr: 0x100052D9C, symSize: 0x2F4 }
  - { offsetInCU: 0x4B115, offset: 0x1088AC, size: 0x8, addend: 0x0, symName: __ZNSt3__111__sift_downB7v160006INS_17_ClassicAlgPolicyERNS_6__lessIN8CryptoPP15BaseAndExponentINS3_7IntegerES5_EES6_EENS_11__wrap_iterIPS6_EEEEvT1_OT0_NS_15iterator_traitsISC_E15difference_typeESC_, symObjAddr: 0x45758, symBinAddr: 0x10007558C, symSize: 0x298 }
  - { offsetInCU: 0x52B4D, offset: 0x1102E4, size: 0x8, addend: 0x0, symName: __ZNSt3__111__sift_downB7v160006INS_17_ClassicAlgPolicyERNS_6__lessIN8CryptoPP15BaseAndExponentINS3_9EC2NPointENS3_7IntegerEEES7_EENS_11__wrap_iterIPS7_EEEEvT1_OT0_NS_15iterator_traitsISD_E15difference_typeESD_, symObjAddr: 0x4A0A8, symBinAddr: 0x100079B18, symSize: 0x290 }
  - { offsetInCU: 0x54FF0, offset: 0x112787, size: 0x8, addend: 0x0, symName: __ZNSt3__111__sift_downB7v160006INS_17_ClassicAlgPolicyERNS_6__lessIN8CryptoPP15BaseAndExponentINS3_8ECPPointENS3_7IntegerEEES7_EENS_11__wrap_iterIPS7_EEEEvT1_OT0_NS_15iterator_traitsISD_E15difference_typeESD_, symObjAddr: 0x4B308, symBinAddr: 0x10007AD78, symSize: 0x224 }
  - { offsetInCU: 0x56C88, offset: 0x11441F, size: 0x8, addend: 0x0, symName: __ZNSt3__142__uninitialized_allocator_move_if_noexceptB7v160006INS_9allocatorIN8CryptoPP12WindowSliderEEENS_16reverse_iteratorIPS3_EES7_S7_EET2_RT_T0_T1_S8_, symObjAddr: 0x44AC0, symBinAddr: 0x1000748F4, symSize: 0x104 }
  - { offsetInCU: 0x58024, offset: 0x1157BB, size: 0x8, addend: 0x0, symName: __ZNSt3__142__uninitialized_allocator_move_if_noexceptB7v160006INS_9allocatorIN8CryptoPP15BaseAndExponentINS2_7IntegerES4_EEEENS_16reverse_iteratorIPS5_EES9_S9_EET2_RT_T0_T1_SA_, symObjAddr: 0x455FC, symBinAddr: 0x100075430, symSize: 0xFC }
  - { offsetInCU: 0x5867F, offset: 0x115E16, size: 0x8, addend: 0x0, symName: __ZNSt3__110__pop_heapB7v160006INS_17_ClassicAlgPolicyENS_6__lessIN8CryptoPP15BaseAndExponentINS3_7IntegerES5_EES6_EENS_11__wrap_iterIPS6_EEEEvT1_SB_RT0_NS_15iterator_traitsISB_E15difference_typeE, symObjAddr: 0x459F0, symBinAddr: 0x100075824, symSize: 0x284 }
  - { offsetInCU: 0x58E30, offset: 0x1165C7, size: 0x8, addend: 0x0, symName: __ZNSt3__19__sift_upB7v160006INS_17_ClassicAlgPolicyERNS_6__lessIN8CryptoPP15BaseAndExponentINS3_7IntegerES5_EES6_EENS_11__wrap_iterIPS6_EEEEvT1_SC_OT0_NS_15iterator_traitsISC_E15difference_typeE, symObjAddr: 0x45C74, symBinAddr: 0x100075AA8, symSize: 0x200 }
  - { offsetInCU: 0x59B41, offset: 0x1172D8, size: 0x8, addend: 0x0, symName: __ZNSt3__110__pop_heapB7v160006INS_17_ClassicAlgPolicyENS_6__lessIN8CryptoPP15BaseAndExponentINS3_9EC2NPointENS3_7IntegerEEES7_EENS_11__wrap_iterIPS7_EEEEvT1_SC_RT0_NS_15iterator_traitsISC_E15difference_typeE, symObjAddr: 0x4A338, symBinAddr: 0x100079DA8, symSize: 0x2B0 }
  - { offsetInCU: 0x5A170, offset: 0x117907, size: 0x8, addend: 0x0, symName: __ZNSt3__19__sift_upB7v160006INS_17_ClassicAlgPolicyERNS_6__lessIN8CryptoPP15BaseAndExponentINS3_9EC2NPointENS3_7IntegerEEES7_EENS_11__wrap_iterIPS7_EEEEvT1_SD_OT0_NS_15iterator_traitsISD_E15difference_typeE, symObjAddr: 0x4A5E8, symBinAddr: 0x10007A058, symSize: 0x20C }
  - { offsetInCU: 0x5A9B9, offset: 0x118150, size: 0x8, addend: 0x0, symName: __ZNSt3__110__pop_heapB7v160006INS_17_ClassicAlgPolicyENS_6__lessIN8CryptoPP15BaseAndExponentINS3_8ECPPointENS3_7IntegerEEES7_EENS_11__wrap_iterIPS7_EEEEvT1_SC_RT0_NS_15iterator_traitsISC_E15difference_typeE, symObjAddr: 0x4B52C, symBinAddr: 0x10007AF9C, symSize: 0x240 }
  - { offsetInCU: 0x5AEC6, offset: 0x11865D, size: 0x8, addend: 0x0, symName: __ZNSt3__19__sift_upB7v160006INS_17_ClassicAlgPolicyERNS_6__lessIN8CryptoPP15BaseAndExponentINS3_8ECPPointENS3_7IntegerEEES7_EENS_11__wrap_iterIPS7_EEEEvT1_SD_OT0_NS_15iterator_traitsISD_E15difference_typeE, symObjAddr: 0x4B76C, symBinAddr: 0x10007B1DC, symSize: 0x190 }
  - { offsetInCU: 0x5CD52, offset: 0x11A4E9, size: 0x8, addend: 0x0, symName: __ZNSt3__130__uninitialized_allocator_copyB7v160006INS_9allocatorIN8CryptoPP8ECPPointEEEPS3_S5_S5_EET2_RT_T0_T1_S6_, symObjAddr: 0x4064C, symBinAddr: 0x10007078C, symSize: 0x124 }
  - { offsetInCU: 0x5D41F, offset: 0x11ABB6, size: 0x8, addend: 0x0, symName: __ZNSt3__130__uninitialized_allocator_copyB7v160006INS_9allocatorIN8CryptoPP9EC2NPointEEEPS3_S5_S5_EET2_RT_T0_T1_S6_, symObjAddr: 0x40A8C, symBinAddr: 0x100070BCC, symSize: 0x114 }
  - { offsetInCU: 0x5DD13, offset: 0x11B4AA, size: 0x8, addend: 0x0, symName: __ZNSt3__142__uninitialized_allocator_move_if_noexceptB7v160006INS_9allocatorIN8CryptoPP8ECPPointEEENS_16reverse_iteratorIPS3_EES7_S7_EET2_RT_T0_T1_S8_, symObjAddr: 0x49160, symBinAddr: 0x100078BD0, symSize: 0x120 }
  - { offsetInCU: 0x5E1F0, offset: 0x11B987, size: 0x8, addend: 0x0, symName: __ZNSt3__142__uninitialized_allocator_move_if_noexceptB7v160006INS_9allocatorIN8CryptoPP9EC2NPointEEENS_16reverse_iteratorIPS3_EES7_S7_EET2_RT_T0_T1_S8_, symObjAddr: 0x49778, symBinAddr: 0x1000791E8, symSize: 0x110 }
  - { offsetInCU: 0x5EF0B, offset: 0x11C6A2, size: 0x8, addend: 0x0, symName: __ZNK8CryptoPP24DL_Algorithm_DSA_RFC6979INS_7IntegerENS_4SHA1EE14GenerateRandomERKS1_S5_S5_, symObjAddr: 0xCC08, symBinAddr: 0x100040450, symSize: 0x678 }
  - { offsetInCU: 0x5EF30, offset: 0x11C6C7, size: 0x8, addend: 0x0, symName: __ZZNK8CryptoPP24DL_Algorithm_DSA_RFC6979INS_7IntegerENS_4SHA1EE14GenerateRandomERKS1_S5_S5_E4zero, symObjAddr: 0x71AF0, symBinAddr: 0x1000E0FA0, symSize: 0x0 }
  - { offsetInCU: 0x5EF47, offset: 0x11C6DE, size: 0x8, addend: 0x0, symName: __ZZNK8CryptoPP24DL_Algorithm_DSA_RFC6979INS_7IntegerENS_4SHA1EE14GenerateRandomERKS1_S5_S5_E3one, symObjAddr: 0x71AF1, symBinAddr: 0x1000E0FA1, symSize: 0x0 }
  - { offsetInCU: 0x600FC, offset: 0x11D893, size: 0x8, addend: 0x0, symName: __ZNK8CryptoPP24DL_Algorithm_DSA_RFC6979INS_7IntegerENS_6SHA224EE14GenerateRandomERKS1_S5_S5_, symObjAddr: 0xD8B4, symBinAddr: 0x1000410B0, symSize: 0x680 }
  - { offsetInCU: 0x60121, offset: 0x11D8B8, size: 0x8, addend: 0x0, symName: __ZZNK8CryptoPP24DL_Algorithm_DSA_RFC6979INS_7IntegerENS_6SHA224EE14GenerateRandomERKS1_S5_S5_E4zero, symObjAddr: 0x71AF2, symBinAddr: 0x1000E0FA2, symSize: 0x0 }
  - { offsetInCU: 0x60138, offset: 0x11D8CF, size: 0x8, addend: 0x0, symName: __ZZNK8CryptoPP24DL_Algorithm_DSA_RFC6979INS_7IntegerENS_6SHA224EE14GenerateRandomERKS1_S5_S5_E3one, symObjAddr: 0x71AF3, symBinAddr: 0x1000E0FA3, symSize: 0x0 }
  - { offsetInCU: 0x612BB, offset: 0x11EA52, size: 0x8, addend: 0x0, symName: __ZNK8CryptoPP24DL_Algorithm_DSA_RFC6979INS_7IntegerENS_6SHA256EE14GenerateRandomERKS1_S5_S5_, symObjAddr: 0xE5F4, symBinAddr: 0x100041DF0, symSize: 0x674 }
  - { offsetInCU: 0x612E0, offset: 0x11EA77, size: 0x8, addend: 0x0, symName: __ZZNK8CryptoPP24DL_Algorithm_DSA_RFC6979INS_7IntegerENS_6SHA256EE14GenerateRandomERKS1_S5_S5_E4zero, symObjAddr: 0x71AF4, symBinAddr: 0x1000E0FA4, symSize: 0x0 }
  - { offsetInCU: 0x612F7, offset: 0x11EA8E, size: 0x8, addend: 0x0, symName: __ZZNK8CryptoPP24DL_Algorithm_DSA_RFC6979INS_7IntegerENS_6SHA256EE14GenerateRandomERKS1_S5_S5_E3one, symObjAddr: 0x71AF5, symBinAddr: 0x1000E0FA5, symSize: 0x0 }
  - { offsetInCU: 0x6252D, offset: 0x11FCC4, size: 0x8, addend: 0x0, symName: __ZNK8CryptoPP24DL_Algorithm_DSA_RFC6979INS_7IntegerENS_6SHA384EE14GenerateRandomERKS1_S5_S5_, symObjAddr: 0xF258, symBinAddr: 0x100042A54, symSize: 0x67C }
  - { offsetInCU: 0x62552, offset: 0x11FCE9, size: 0x8, addend: 0x0, symName: __ZZNK8CryptoPP24DL_Algorithm_DSA_RFC6979INS_7IntegerENS_6SHA384EE14GenerateRandomERKS1_S5_S5_E4zero, symObjAddr: 0x71AF6, symBinAddr: 0x1000E0FA6, symSize: 0x0 }
  - { offsetInCU: 0x62569, offset: 0x11FD00, size: 0x8, addend: 0x0, symName: __ZZNK8CryptoPP24DL_Algorithm_DSA_RFC6979INS_7IntegerENS_6SHA384EE14GenerateRandomERKS1_S5_S5_E3one, symObjAddr: 0x71AF7, symBinAddr: 0x1000E0FA7, symSize: 0x0 }
  - { offsetInCU: 0x63683, offset: 0x120E1A, size: 0x8, addend: 0x0, symName: __ZNK8CryptoPP24DL_Algorithm_DSA_RFC6979INS_7IntegerENS_6SHA512EE14GenerateRandomERKS1_S5_S5_, symObjAddr: 0xFEC4, symBinAddr: 0x1000436C0, symSize: 0x67C }
  - { offsetInCU: 0x636A8, offset: 0x120E3F, size: 0x8, addend: 0x0, symName: __ZZNK8CryptoPP24DL_Algorithm_DSA_RFC6979INS_7IntegerENS_6SHA512EE14GenerateRandomERKS1_S5_S5_E4zero, symObjAddr: 0x71AF8, symBinAddr: 0x1000E0FA8, symSize: 0x0 }
  - { offsetInCU: 0x636BF, offset: 0x120E56, size: 0x8, addend: 0x0, symName: __ZZNK8CryptoPP24DL_Algorithm_DSA_RFC6979INS_7IntegerENS_6SHA512EE14GenerateRandomERKS1_S5_S5_E3one, symObjAddr: 0x71AF9, symBinAddr: 0x1000E0FA9, symSize: 0x0 }
  - { offsetInCU: 0x64BA5, offset: 0x12233C, size: 0x8, addend: 0x0, symName: __ZNK8CryptoPP9SingletonINS_17DL_Algorithm_GDSAINS_7IntegerEEENS_9NewObjectIS3_EELi0EE3RefEv, symObjAddr: 0x47CD4, symBinAddr: 0x10007774C, symSize: 0xB8 }
  - { offsetInCU: 0x64BCC, offset: 0x122363, size: 0x8, addend: 0x0, symName: __ZZNK8CryptoPP9SingletonINS_17DL_Algorithm_GDSAINS_7IntegerEEENS_9NewObjectIS3_EELi0EE3RefEvE9s_pObject, symObjAddr: 0x7A970, symBinAddr: 0x100118168, symSize: 0x0 }
  - { offsetInCU: 0x64D64, offset: 0x1224FB, size: 0x8, addend: 0x0, symName: __ZNK8CryptoPP9SingletonINS_37DL_SignatureMessageEncodingMethod_DSAENS_9NewObjectIS1_EELi0EE3RefEv, symObjAddr: 0x47DC4, symBinAddr: 0x10007783C, symSize: 0xBC }
  - { offsetInCU: 0x64D8B, offset: 0x122522, size: 0x8, addend: 0x0, symName: __ZZNK8CryptoPP9SingletonINS_37DL_SignatureMessageEncodingMethod_DSAENS_9NewObjectIS1_EELi0EE3RefEvE9s_pObject, symObjAddr: 0x7A980, symBinAddr: 0x100118178, symSize: 0x0 }
  - { offsetInCU: 0x64EE7, offset: 0x12267E, size: 0x8, addend: 0x0, symName: __ZNK8CryptoPP9SingletonINS_27DL_KeyAgreementAlgorithm_DHINS_7IntegerENS_10EnumToTypeINS_28CofactorMultiplicationOptionELi0EEEEENS_9NewObjectIS6_EELi0EE3RefEv, symObjAddr: 0x12A58, symBinAddr: 0x1000461A0, symSize: 0xB8 }
  - { offsetInCU: 0x64F0E, offset: 0x1226A5, size: 0x8, addend: 0x0, symName: __ZZNK8CryptoPP9SingletonINS_27DL_KeyAgreementAlgorithm_DHINS_7IntegerENS_10EnumToTypeINS_28CofactorMultiplicationOptionELi0EEEEENS_9NewObjectIS6_EELi0EE3RefEvE9s_pObject, symObjAddr: 0x7A990, symBinAddr: 0x100118188, symSize: 0x0 }
  - { offsetInCU: 0x6511E, offset: 0x1228B5, size: 0x8, addend: 0x0, symName: __ZNK8CryptoPP9SingletonINS_18DL_Algorithm_ECDSAINS_3ECPEEENS_9NewObjectIS3_EELi0EE3RefEv, symObjAddr: 0x503CC, symBinAddr: 0x10007FE34, symSize: 0xB8 }
  - { offsetInCU: 0x65145, offset: 0x1228DC, size: 0x8, addend: 0x0, symName: __ZZNK8CryptoPP9SingletonINS_18DL_Algorithm_ECDSAINS_3ECPEEENS_9NewObjectIS3_EELi0EE3RefEvE9s_pObject, symObjAddr: 0x7A9A0, symBinAddr: 0x100118198, symSize: 0x0 }
  - { offsetInCU: 0x65355, offset: 0x122AEC, size: 0x8, addend: 0x0, symName: __ZNK8CryptoPP9SingletonINS_18DL_Algorithm_ECDSAINS_4EC2NEEENS_9NewObjectIS3_EELi0EE3RefEv, symObjAddr: 0x50DD4, symBinAddr: 0x10008082C, symSize: 0xB8 }
  - { offsetInCU: 0x6537C, offset: 0x122B13, size: 0x8, addend: 0x0, symName: __ZZNK8CryptoPP9SingletonINS_18DL_Algorithm_ECDSAINS_4EC2NEEENS_9NewObjectIS3_EELi0EE3RefEvE9s_pObject, symObjAddr: 0x7A9B0, symBinAddr: 0x1001181A8, symSize: 0x0 }
  - { offsetInCU: 0x654E7, offset: 0x122C7E, size: 0x8, addend: 0x0, symName: __ZN8CryptoPP17AutoSeededX917RNGINS_8RijndaelEE6ReseedEbPKhm, symObjAddr: 0x2F844, symBinAddr: 0x100062C80, symSize: 0x2B8 }
  - { offsetInCU: 0x67015, offset: 0x1247AC, size: 0x8, addend: 0x0, symName: __ZNSt3__16vectorIN8CryptoPP15BaseAndExponentINS1_9EC2NPointENS1_7IntegerEEENS_9allocatorIS5_EEE26__swap_out_circular_bufferERNS_14__split_bufferIS5_RS7_EE, symObjAddr: 0x49DF8, symBinAddr: 0x100079868, symSize: 0x138 }
  - { offsetInCU: 0x67681, offset: 0x124E18, size: 0x8, addend: 0x0, symName: __ZNSt3__16vectorIN8CryptoPP15BaseAndExponentINS1_8ECPPointENS1_7IntegerEEENS_9allocatorIS5_EEE26__swap_out_circular_bufferERNS_14__split_bufferIS5_RS7_EE, symObjAddr: 0x4B04C, symBinAddr: 0x10007AABC, symSize: 0x130 }
  - { offsetInCU: 0x69F12, offset: 0x1276A9, size: 0x8, addend: 0x0, symName: __ZN8CryptoPP20AllocatorWithCleanupIhLb0EE8allocateEmPKv, symObjAddr: 0x0, symBinAddr: 0x100034294, symSize: 0x14 }
  - { offsetInCU: 0x69F5E, offset: 0x1276F5, size: 0x8, addend: 0x0, symName: __ZN8CryptoPP20AllocatorWithCleanupIhLb0EE10deallocateEPvm, symObjAddr: 0x14, symBinAddr: 0x1000342A8, symSize: 0x24 }
  - { offsetInCU: 0x6A067, offset: 0x1277FE, size: 0x8, addend: 0x0, symName: __ZN8CryptoPP20AllocatorWithCleanupIhLb0EE10reallocateEPhmmb, symObjAddr: 0x38, symBinAddr: 0x1000342CC, symSize: 0x100 }
  - { offsetInCU: 0x6A2F1, offset: 0x127A88, size: 0x8, addend: 0x0, symName: __ZN8CryptoPP20AllocatorWithCleanupItLb0EE8allocateEmPKv, symObjAddr: 0x138, symBinAddr: 0x1000343CC, symSize: 0x3C }
  - { offsetInCU: 0x6A34D, offset: 0x127AE4, size: 0x8, addend: 0x0, symName: __ZN8CryptoPP13AllocatorBaseItE9CheckSizeEm, symObjAddr: 0x174, symBinAddr: 0x100034408, symSize: 0xB0 }
  - { offsetInCU: 0x6A7E1, offset: 0x127F78, size: 0x8, addend: 0x0, symName: __ZThn8_NK8CryptoPP38CipherModeFinalTemplate_ExternalCipherINS_20ConcretePolicyHolderINS_5EmptyENS_22AdditiveCipherTemplateINS_20AbstractPolicyHolderINS_28AdditiveCipherAbstractPolicyENS_14CTR_ModePolicyEEEEES5_EEE13AlgorithmNameEv, symObjAddr: 0x4EC0, symBinAddr: 0x100038CE0, symSize: 0x8 }
  - { offsetInCU: 0x6A859, offset: 0x127FF0, size: 0x8, addend: 0x0, symName: __ZN8CryptoPP20AllocatorWithCleanupItLb0EE10deallocateEPvm, symObjAddr: 0x224, symBinAddr: 0x1000344B8, symSize: 0x24 }
  - { offsetInCU: 0x6A8F7, offset: 0x12808E, size: 0x8, addend: 0x0, symName: __ZN8CryptoPP20AllocatorWithCleanupItLb0EE10reallocateEPtmmb, symObjAddr: 0x248, symBinAddr: 0x1000344DC, symSize: 0x4 }
  - { offsetInCU: 0x6A95B, offset: 0x1280F2, size: 0x8, addend: 0x0, symName: __ZN8CryptoPP20AllocatorWithCleanupItLb0EE10reallocateEPtmmb, symObjAddr: 0x248, symBinAddr: 0x1000344DC, symSize: 0x4 }
  - { offsetInCU: 0x6A9F0, offset: 0x128187, size: 0x8, addend: 0x0, symName: __ZN8CryptoPP20AllocatorWithCleanupIjLb0EE8allocateEmPKv, symObjAddr: 0x360, symBinAddr: 0x1000345F4, symSize: 0x3C }
  - { offsetInCU: 0x6AA4C, offset: 0x1281E3, size: 0x8, addend: 0x0, symName: __ZN8CryptoPP13AllocatorBaseIjE9CheckSizeEm, symObjAddr: 0x39C, symBinAddr: 0x100034630, symSize: 0xB4 }
  - { offsetInCU: 0x6ABF5, offset: 0x12838C, size: 0x8, addend: 0x0, symName: __ZN8CryptoPP20AllocatorWithCleanupIjLb0EE10deallocateEPvm, symObjAddr: 0x450, symBinAddr: 0x1000346E4, symSize: 0x24 }
  - { offsetInCU: 0x6AC93, offset: 0x12842A, size: 0x8, addend: 0x0, symName: __ZN8CryptoPP20AllocatorWithCleanupIjLb0EE10reallocateEPjmmb, symObjAddr: 0x474, symBinAddr: 0x100034708, symSize: 0x4 }
  - { offsetInCU: 0x6ACF7, offset: 0x12848E, size: 0x8, addend: 0x0, symName: __ZN8CryptoPP20AllocatorWithCleanupIjLb0EE10reallocateEPjmmb, symObjAddr: 0x474, symBinAddr: 0x100034708, symSize: 0x4 }
  - { offsetInCU: 0x6AD8C, offset: 0x128523, size: 0x8, addend: 0x0, symName: __ZN8CryptoPP20AllocatorWithCleanupImLb0EE8allocateEmPKv, symObjAddr: 0x58C, symBinAddr: 0x100034820, symSize: 0x3C }
  - { offsetInCU: 0x6AEEB, offset: 0x128682, size: 0x8, addend: 0x0, symName: __ZN8CryptoPP20AllocatorWithCleanupImLb0EE10deallocateEPvm, symObjAddr: 0x67C, symBinAddr: 0x10003485C, symSize: 0x24 }
  - { offsetInCU: 0x6AF89, offset: 0x128720, size: 0x8, addend: 0x0, symName: __ZN8CryptoPP20AllocatorWithCleanupImLb0EE10reallocateEPmmmb, symObjAddr: 0x6A0, symBinAddr: 0x100034880, symSize: 0x4 }
  - { offsetInCU: 0x6AFED, offset: 0x128784, size: 0x8, addend: 0x0, symName: __ZN8CryptoPP20AllocatorWithCleanupImLb0EE10reallocateEPmmmb, symObjAddr: 0x6A0, symBinAddr: 0x100034880, symSize: 0x4 }
  - { offsetInCU: 0x6B082, offset: 0x128819, size: 0x8, addend: 0x0, symName: __ZN8CryptoPP20AllocatorWithCleanupIoLb1EE8allocateEmPKv, symObjAddr: 0x7B8, symBinAddr: 0x100034998, symSize: 0x3C }
  - { offsetInCU: 0x6B0DE, offset: 0x128875, size: 0x8, addend: 0x0, symName: __ZN8CryptoPP13AllocatorBaseIoE9CheckSizeEm, symObjAddr: 0x7F4, symBinAddr: 0x1000349D4, symSize: 0xB4 }
  - { offsetInCU: 0x6B27C, offset: 0x128A13, size: 0x8, addend: 0x0, symName: __ZN8CryptoPP20AllocatorWithCleanupIoLb1EE10deallocateEPvm, symObjAddr: 0x8A8, symBinAddr: 0x100034A88, symSize: 0x28 }
  - { offsetInCU: 0x6B316, offset: 0x128AAD, size: 0x8, addend: 0x0, symName: __ZN8CryptoPP20AllocatorWithCleanupIoLb1EE10reallocateEPommb, symObjAddr: 0x8D0, symBinAddr: 0x100034AB0, symSize: 0x4 }
  - { offsetInCU: 0x6B37A, offset: 0x128B11, size: 0x8, addend: 0x0, symName: __ZN8CryptoPP20AllocatorWithCleanupIoLb1EE10reallocateEPommb, symObjAddr: 0x8D0, symBinAddr: 0x100034AB0, symSize: 0x4 }
  - { offsetInCU: 0x6B455, offset: 0x128BEC, size: 0x8, addend: 0x0, symName: __ZN8CryptoPP20AbstractPolicyHolderINS_28AdditiveCipherAbstractPolicyENS_15SymmetricCipherEED2Ev, symObjAddr: 0x9F0, symBinAddr: 0x100034BD0, symSize: 0x4 }
  - { offsetInCU: 0x6B47D, offset: 0x128C14, size: 0x8, addend: 0x0, symName: __ZN8CryptoPP20AbstractPolicyHolderINS_28AdditiveCipherAbstractPolicyENS_15SymmetricCipherEED1Ev, symObjAddr: 0x9F4, symBinAddr: 0x1000C7784, symSize: 0x4 }
  - { offsetInCU: 0x6B4BD, offset: 0x128C54, size: 0x8, addend: 0x0, symName: __ZThn8_N8CryptoPP20AbstractPolicyHolderINS_28AdditiveCipherAbstractPolicyENS_15SymmetricCipherEED1Ev, symObjAddr: 0x9F8, symBinAddr: 0x1000C7788, symSize: 0x4 }
  - { offsetInCU: 0x6B4D7, offset: 0x128C6E, size: 0x8, addend: 0x0, symName: __ZThn8_N8CryptoPP20AbstractPolicyHolderINS_28AdditiveCipherAbstractPolicyENS_15SymmetricCipherEED1Ev, symObjAddr: 0x9F8, symBinAddr: 0x1000C7788, symSize: 0x4 }
  - { offsetInCU: 0x6B4F3, offset: 0x128C8A, size: 0x8, addend: 0x0, symName: __ZN8CryptoPP20AbstractPolicyHolderINS_28AdditiveCipherAbstractPolicyENS_15SymmetricCipherEED0Ev, symObjAddr: 0x9FC, symBinAddr: 0x1000C778C, symSize: 0x4 }
  - { offsetInCU: 0x6B52E, offset: 0x128CC5, size: 0x8, addend: 0x0, symName: __ZThn8_N8CryptoPP20AbstractPolicyHolderINS_28AdditiveCipherAbstractPolicyENS_15SymmetricCipherEED0Ev, symObjAddr: 0xA00, symBinAddr: 0x1000C7790, symSize: 0x4 }
  - { offsetInCU: 0x6B548, offset: 0x128CDF, size: 0x8, addend: 0x0, symName: __ZThn8_N8CryptoPP20AbstractPolicyHolderINS_28AdditiveCipherAbstractPolicyENS_15SymmetricCipherEED0Ev, symObjAddr: 0xA00, symBinAddr: 0x1000C7790, symSize: 0x4 }
  - { offsetInCU: 0x6B5E9, offset: 0x128D80, size: 0x8, addend: 0x0, symName: __ZN8CryptoPP22AdditiveCipherTemplateINS_20AbstractPolicyHolderINS_28AdditiveCipherAbstractPolicyENS_15SymmetricCipherEEEED2Ev, symObjAddr: 0xA04, symBinAddr: 0x100034BD4, symSize: 0x68 }
  - { offsetInCU: 0x6B71D, offset: 0x128EB4, size: 0x8, addend: 0x0, symName: __ZN8CryptoPP22AdditiveCipherTemplateINS_20AbstractPolicyHolderINS_28AdditiveCipherAbstractPolicyENS_15SymmetricCipherEEEED1Ev, symObjAddr: 0xA78, symBinAddr: 0x1000C7794, symSize: 0x4 }
  - { offsetInCU: 0x6B75D, offset: 0x128EF4, size: 0x8, addend: 0x0, symName: __ZThn8_N8CryptoPP22AdditiveCipherTemplateINS_20AbstractPolicyHolderINS_28AdditiveCipherAbstractPolicyENS_15SymmetricCipherEEEED1Ev, symObjAddr: 0xA7C, symBinAddr: 0x1000C7798, symSize: 0x4 }
  - { offsetInCU: 0x6B778, offset: 0x128F0F, size: 0x8, addend: 0x0, symName: __ZThn8_N8CryptoPP22AdditiveCipherTemplateINS_20AbstractPolicyHolderINS_28AdditiveCipherAbstractPolicyENS_15SymmetricCipherEEEED1Ev, symObjAddr: 0xA7C, symBinAddr: 0x1000C7798, symSize: 0x4 }
  - { offsetInCU: 0x6B794, offset: 0x128F2B, size: 0x8, addend: 0x0, symName: __ZThn16_N8CryptoPP22AdditiveCipherTemplateINS_20AbstractPolicyHolderINS_28AdditiveCipherAbstractPolicyENS_15SymmetricCipherEEEED1Ev, symObjAddr: 0xA80, symBinAddr: 0x1000C779C, symSize: 0x4 }
  - { offsetInCU: 0x6B7AF, offset: 0x128F46, size: 0x8, addend: 0x0, symName: __ZThn16_N8CryptoPP22AdditiveCipherTemplateINS_20AbstractPolicyHolderINS_28AdditiveCipherAbstractPolicyENS_15SymmetricCipherEEEED1Ev, symObjAddr: 0xA80, symBinAddr: 0x1000C779C, symSize: 0x4 }
  - { offsetInCU: 0x6B7CB, offset: 0x128F62, size: 0x8, addend: 0x0, symName: __ZN8CryptoPP22AdditiveCipherTemplateINS_20AbstractPolicyHolderINS_28AdditiveCipherAbstractPolicyENS_15SymmetricCipherEEEED0Ev, symObjAddr: 0xA84, symBinAddr: 0x1000C77A0, symSize: 0x4 }
  - { offsetInCU: 0x6B806, offset: 0x128F9D, size: 0x8, addend: 0x0, symName: __ZThn8_N8CryptoPP22AdditiveCipherTemplateINS_20AbstractPolicyHolderINS_28AdditiveCipherAbstractPolicyENS_15SymmetricCipherEEEED0Ev, symObjAddr: 0xA88, symBinAddr: 0x1000C77A4, symSize: 0x4 }
  - { offsetInCU: 0x6B821, offset: 0x128FB8, size: 0x8, addend: 0x0, symName: __ZThn8_N8CryptoPP22AdditiveCipherTemplateINS_20AbstractPolicyHolderINS_28AdditiveCipherAbstractPolicyENS_15SymmetricCipherEEEED0Ev, symObjAddr: 0xA88, symBinAddr: 0x1000C77A4, symSize: 0x4 }
  - { offsetInCU: 0x6B83D, offset: 0x128FD4, size: 0x8, addend: 0x0, symName: __ZThn16_N8CryptoPP22AdditiveCipherTemplateINS_20AbstractPolicyHolderINS_28AdditiveCipherAbstractPolicyENS_15SymmetricCipherEEEED0Ev, symObjAddr: 0xA8C, symBinAddr: 0x1000C77A8, symSize: 0x4 }
  - { offsetInCU: 0x6B858, offset: 0x128FEF, size: 0x8, addend: 0x0, symName: __ZThn16_N8CryptoPP22AdditiveCipherTemplateINS_20AbstractPolicyHolderINS_28AdditiveCipherAbstractPolicyENS_15SymmetricCipherEEEED0Ev, symObjAddr: 0xA8C, symBinAddr: 0x1000C77A8, symSize: 0x4 }
  - { offsetInCU: 0x6B967, offset: 0x1290FE, size: 0x8, addend: 0x0, symName: __ZN8CryptoPP22AdditiveCipherTemplateINS_20AbstractPolicyHolderINS_28AdditiveCipherAbstractPolicyENS_15SymmetricCipherEEEEC2Ev, symObjAddr: 0xA90, symBinAddr: 0x100034C3C, symSize: 0x80 }
  - { offsetInCU: 0x6BCF3, offset: 0x12948A, size: 0x8, addend: 0x0, symName: __ZN8CryptoPP22AdditiveCipherTemplateINS_20AbstractPolicyHolderINS_28AdditiveCipherAbstractPolicyENS_15SymmetricCipherEEEE13GenerateBlockEPhm, symObjAddr: 0xB10, symBinAddr: 0x100034CBC, symSize: 0x22C }
  - { offsetInCU: 0x6C4CE, offset: 0x129C65, size: 0x8, addend: 0x0, symName: __ZN8CryptoPP22AdditiveCipherTemplateINS_20AbstractPolicyHolderINS_28AdditiveCipherAbstractPolicyENS_15SymmetricCipherEEEE18KeystreamBufferEndEv, symObjAddr: 0xD3C, symBinAddr: 0x100034EE8, symSize: 0xC }
  - { offsetInCU: 0x6C4F3, offset: 0x129C8A, size: 0x8, addend: 0x0, symName: __ZN8CryptoPP22AdditiveCipherTemplateINS_20AbstractPolicyHolderINS_28AdditiveCipherAbstractPolicyENS_15SymmetricCipherEEEE18KeystreamBufferEndEv, symObjAddr: 0xD3C, symBinAddr: 0x100034EE8, symSize: 0xC }
  - { offsetInCU: 0x6C539, offset: 0x129CD0, size: 0x8, addend: 0x0, symName: __ZThn16_N8CryptoPP22AdditiveCipherTemplateINS_20AbstractPolicyHolderINS_28AdditiveCipherAbstractPolicyENS_15SymmetricCipherEEEE13GenerateBlockEPhm, symObjAddr: 0xD48, symBinAddr: 0x100034EF4, symSize: 0x8 }
  - { offsetInCU: 0x6C5BC, offset: 0x129D53, size: 0x8, addend: 0x0, symName: __ZN8CryptoPP22AdditiveCipherTemplateINS_20AbstractPolicyHolderINS_28AdditiveCipherAbstractPolicyENS_15SymmetricCipherEEEE11ProcessDataEPhPKhm, symObjAddr: 0xD50, symBinAddr: 0x100034EFC, symSize: 0x31C }
  - { offsetInCU: 0x6CCB4, offset: 0x12A44B, size: 0x8, addend: 0x0, symName: __ZN8CryptoPP22AdditiveCipherTemplateINS_20AbstractPolicyHolderINS_28AdditiveCipherAbstractPolicyENS_15SymmetricCipherEEEE20KeystreamBufferBeginEv, symObjAddr: 0x106C, symBinAddr: 0x100035218, symSize: 0x8 }
  - { offsetInCU: 0x6CCD9, offset: 0x12A470, size: 0x8, addend: 0x0, symName: __ZN8CryptoPP22AdditiveCipherTemplateINS_20AbstractPolicyHolderINS_28AdditiveCipherAbstractPolicyENS_15SymmetricCipherEEEE20KeystreamBufferBeginEv, symObjAddr: 0x106C, symBinAddr: 0x100035218, symSize: 0x8 }
  - { offsetInCU: 0x6CCF8, offset: 0x12A48F, size: 0x8, addend: 0x0, symName: __ZThn8_N8CryptoPP22AdditiveCipherTemplateINS_20AbstractPolicyHolderINS_28AdditiveCipherAbstractPolicyENS_15SymmetricCipherEEEE11ProcessDataEPhPKhm, symObjAddr: 0x1074, symBinAddr: 0x100035220, symSize: 0x8 }
  - { offsetInCU: 0x6CE04, offset: 0x12A59B, size: 0x8, addend: 0x0, symName: __ZN8CryptoPP22AdditiveCipherTemplateINS_20AbstractPolicyHolderINS_28AdditiveCipherAbstractPolicyENS_15SymmetricCipherEEEE13ResynchronizeEPKhi, symObjAddr: 0x107C, symBinAddr: 0x100035228, symSize: 0xE0 }
  - { offsetInCU: 0x6D078, offset: 0x12A80F, size: 0x8, addend: 0x0, symName: __ZNK8CryptoPP22AdditiveCipherTemplateINS_20AbstractPolicyHolderINS_28AdditiveCipherAbstractPolicyENS_15SymmetricCipherEEEE17GetBufferByteSizeERKS2_, symObjAddr: 0x115C, symBinAddr: 0x100035308, symSize: 0x44 }
  - { offsetInCU: 0x6D0CE, offset: 0x12A865, size: 0x8, addend: 0x0, symName: __ZNK8CryptoPP22AdditiveCipherTemplateINS_20AbstractPolicyHolderINS_28AdditiveCipherAbstractPolicyENS_15SymmetricCipherEEEE16OptimalBlockSizeEv, symObjAddr: 0x11A0, symBinAddr: 0x10003534C, symSize: 0x24 }
  - { offsetInCU: 0x6D128, offset: 0x12A8BF, size: 0x8, addend: 0x0, symName: __ZThn8_NK8CryptoPP22AdditiveCipherTemplateINS_20AbstractPolicyHolderINS_28AdditiveCipherAbstractPolicyENS_15SymmetricCipherEEEE16OptimalBlockSizeEv, symObjAddr: 0x11C4, symBinAddr: 0x100035370, symSize: 0x24 }
  - { offsetInCU: 0x6D177, offset: 0x12A90E, size: 0x8, addend: 0x0, symName: __ZNK8CryptoPP22AdditiveCipherTemplateINS_20AbstractPolicyHolderINS_28AdditiveCipherAbstractPolicyENS_15SymmetricCipherEEEE23GetOptimalNextBlockSizeEv, symObjAddr: 0x11E8, symBinAddr: 0x100035394, symSize: 0x8 }
  - { offsetInCU: 0x6D19E, offset: 0x12A935, size: 0x8, addend: 0x0, symName: __ZNK8CryptoPP22AdditiveCipherTemplateINS_20AbstractPolicyHolderINS_28AdditiveCipherAbstractPolicyENS_15SymmetricCipherEEEE20OptimalDataAlignmentEv, symObjAddr: 0x11F0, symBinAddr: 0x10003539C, symSize: 0x24 }
  - { offsetInCU: 0x6D1F8, offset: 0x12A98F, size: 0x8, addend: 0x0, symName: __ZThn8_NK8CryptoPP22AdditiveCipherTemplateINS_20AbstractPolicyHolderINS_28AdditiveCipherAbstractPolicyENS_15SymmetricCipherEEEE20OptimalDataAlignmentEv, symObjAddr: 0x1214, symBinAddr: 0x1000353C0, symSize: 0x24 }
  - { offsetInCU: 0x6D247, offset: 0x12A9DE, size: 0x8, addend: 0x0, symName: __ZNK8CryptoPP22AdditiveCipherTemplateINS_20AbstractPolicyHolderINS_28AdditiveCipherAbstractPolicyENS_15SymmetricCipherEEEE15IsSelfInvertingEv, symObjAddr: 0x1238, symBinAddr: 0x1000353E4, symSize: 0x8 }
  - { offsetInCU: 0x6D26E, offset: 0x12AA05, size: 0x8, addend: 0x0, symName: __ZThn8_NK8CryptoPP22AdditiveCipherTemplateINS_20AbstractPolicyHolderINS_28AdditiveCipherAbstractPolicyENS_15SymmetricCipherEEEE15IsSelfInvertingEv, symObjAddr: 0x1240, symBinAddr: 0x1000353EC, symSize: 0x8 }
  - { offsetInCU: 0x6D285, offset: 0x12AA1C, size: 0x8, addend: 0x0, symName: __ZNK8CryptoPP22AdditiveCipherTemplateINS_20AbstractPolicyHolderINS_28AdditiveCipherAbstractPolicyENS_15SymmetricCipherEEEE23IsForwardTransformationEv, symObjAddr: 0x1248, symBinAddr: 0x1000353F4, symSize: 0x8 }
  - { offsetInCU: 0x6D2AC, offset: 0x12AA43, size: 0x8, addend: 0x0, symName: __ZThn8_NK8CryptoPP22AdditiveCipherTemplateINS_20AbstractPolicyHolderINS_28AdditiveCipherAbstractPolicyENS_15SymmetricCipherEEEE23IsForwardTransformationEv, symObjAddr: 0x1250, symBinAddr: 0x1000353FC, symSize: 0x8 }
  - { offsetInCU: 0x6D2C3, offset: 0x12AA5A, size: 0x8, addend: 0x0, symName: __ZNK8CryptoPP22AdditiveCipherTemplateINS_20AbstractPolicyHolderINS_28AdditiveCipherAbstractPolicyENS_15SymmetricCipherEEEE14IsRandomAccessEv, symObjAddr: 0x1258, symBinAddr: 0x100035404, symSize: 0x24 }
  - { offsetInCU: 0x6D31D, offset: 0x12AAB4, size: 0x8, addend: 0x0, symName: __ZThn8_NK8CryptoPP22AdditiveCipherTemplateINS_20AbstractPolicyHolderINS_28AdditiveCipherAbstractPolicyENS_15SymmetricCipherEEEE14IsRandomAccessEv, symObjAddr: 0x127C, symBinAddr: 0x100035428, symSize: 0x24 }
  - { offsetInCU: 0x6D36C, offset: 0x12AB03, size: 0x8, addend: 0x0, symName: __ZN8CryptoPP22AdditiveCipherTemplateINS_20AbstractPolicyHolderINS_28AdditiveCipherAbstractPolicyENS_15SymmetricCipherEEEE4SeekEm, symObjAddr: 0x12A0, symBinAddr: 0x10003544C, symSize: 0xB4 }
  - { offsetInCU: 0x6D4C9, offset: 0x12AC60, size: 0x8, addend: 0x0, symName: __ZThn8_N8CryptoPP22AdditiveCipherTemplateINS_20AbstractPolicyHolderINS_28AdditiveCipherAbstractPolicyENS_15SymmetricCipherEEEE4SeekEm, symObjAddr: 0x1354, symBinAddr: 0x100035500, symSize: 0xB4 }
  - { offsetInCU: 0x6D5D4, offset: 0x12AD6B, size: 0x8, addend: 0x0, symName: __ZNK8CryptoPP22AdditiveCipherTemplateINS_20AbstractPolicyHolderINS_28AdditiveCipherAbstractPolicyENS_15SymmetricCipherEEEE17AlgorithmProviderEv, symObjAddr: 0x1408, symBinAddr: 0x1000355B4, symSize: 0x34 }
  - { offsetInCU: 0x6D636, offset: 0x12ADCD, size: 0x8, addend: 0x0, symName: __ZThn8_NK8CryptoPP22AdditiveCipherTemplateINS_20AbstractPolicyHolderINS_28AdditiveCipherAbstractPolicyENS_15SymmetricCipherEEEE17AlgorithmProviderEv, symObjAddr: 0x143C, symBinAddr: 0x1000355E8, symSize: 0x34 }
  - { offsetInCU: 0x6D68D, offset: 0x12AE24, size: 0x8, addend: 0x0, symName: __ZThn16_NK8CryptoPP22AdditiveCipherTemplateINS_20AbstractPolicyHolderINS_28AdditiveCipherAbstractPolicyENS_15SymmetricCipherEEEE17AlgorithmProviderEv, symObjAddr: 0x1470, symBinAddr: 0x10003561C, symSize: 0x34 }
  - { offsetInCU: 0x6D6FF, offset: 0x12AE96, size: 0x8, addend: 0x0, symName: __ZN8CryptoPP22AdditiveCipherTemplateINS_20AbstractPolicyHolderINS_28AdditiveCipherAbstractPolicyENS_15SymmetricCipherEEEE15UncheckedSetKeyEPKhjRKNS_14NameValuePairsE, symObjAddr: 0x14A4, symBinAddr: 0x100035650, symSize: 0x264 }
  - { offsetInCU: 0x6DF1F, offset: 0x12B6B6, size: 0x8, addend: 0x0, symName: __ZN8CryptoPP18CFB_CipherTemplateINS_20AbstractPolicyHolderINS_24CFB_CipherAbstractPolicyENS_15SymmetricCipherEEEED2Ev, symObjAddr: 0x1708, symBinAddr: 0x1000358B4, symSize: 0x4 }
  - { offsetInCU: 0x6DF47, offset: 0x12B6DE, size: 0x8, addend: 0x0, symName: __ZN8CryptoPP18CFB_CipherTemplateINS_20AbstractPolicyHolderINS_24CFB_CipherAbstractPolicyENS_15SymmetricCipherEEEED1Ev, symObjAddr: 0x170C, symBinAddr: 0x1000C77AC, symSize: 0x4 }
  - { offsetInCU: 0x6DF87, offset: 0x12B71E, size: 0x8, addend: 0x0, symName: __ZThn8_N8CryptoPP18CFB_CipherTemplateINS_20AbstractPolicyHolderINS_24CFB_CipherAbstractPolicyENS_15SymmetricCipherEEEED1Ev, symObjAddr: 0x1710, symBinAddr: 0x1000C77B0, symSize: 0x4 }
  - { offsetInCU: 0x6DFA2, offset: 0x12B739, size: 0x8, addend: 0x0, symName: __ZThn8_N8CryptoPP18CFB_CipherTemplateINS_20AbstractPolicyHolderINS_24CFB_CipherAbstractPolicyENS_15SymmetricCipherEEEED1Ev, symObjAddr: 0x1710, symBinAddr: 0x1000C77B0, symSize: 0x4 }
  - { offsetInCU: 0x6DFBE, offset: 0x12B755, size: 0x8, addend: 0x0, symName: __ZN8CryptoPP18CFB_CipherTemplateINS_20AbstractPolicyHolderINS_24CFB_CipherAbstractPolicyENS_15SymmetricCipherEEEED0Ev, symObjAddr: 0x1714, symBinAddr: 0x1000C77B4, symSize: 0x4 }
  - { offsetInCU: 0x6DFF9, offset: 0x12B790, size: 0x8, addend: 0x0, symName: __ZThn8_N8CryptoPP18CFB_CipherTemplateINS_20AbstractPolicyHolderINS_24CFB_CipherAbstractPolicyENS_15SymmetricCipherEEEED0Ev, symObjAddr: 0x1718, symBinAddr: 0x1000C77B8, symSize: 0x4 }
  - { offsetInCU: 0x6E014, offset: 0x12B7AB, size: 0x8, addend: 0x0, symName: __ZThn8_N8CryptoPP18CFB_CipherTemplateINS_20AbstractPolicyHolderINS_24CFB_CipherAbstractPolicyENS_15SymmetricCipherEEEED0Ev, symObjAddr: 0x1718, symBinAddr: 0x1000C77B8, symSize: 0x4 }
  - { offsetInCU: 0x6E051, offset: 0x12B7E8, size: 0x8, addend: 0x0, symName: __ZN8CryptoPP18CFB_CipherTemplateINS_20AbstractPolicyHolderINS_24CFB_CipherAbstractPolicyENS_15SymmetricCipherEEEEC2Ev, symObjAddr: 0x171C, symBinAddr: 0x1000358B8, symSize: 0x50 }
  - { offsetInCU: 0x6E0FC, offset: 0x12B893, size: 0x8, addend: 0x0, symName: __ZN8CryptoPP18CFB_CipherTemplateINS_20AbstractPolicyHolderINS_24CFB_CipherAbstractPolicyENS_15SymmetricCipherEEEE11ProcessDataEPhPKhm, symObjAddr: 0x176C, symBinAddr: 0x100035908, symSize: 0x230 }
  - { offsetInCU: 0x6E47F, offset: 0x12BC16, size: 0x8, addend: 0x0, symName: __ZThn8_N8CryptoPP18CFB_CipherTemplateINS_20AbstractPolicyHolderINS_24CFB_CipherAbstractPolicyENS_15SymmetricCipherEEEE11ProcessDataEPhPKhm, symObjAddr: 0x199C, symBinAddr: 0x100035B38, symSize: 0x8 }
  - { offsetInCU: 0x6E4BE, offset: 0x12BC55, size: 0x8, addend: 0x0, symName: __ZN8CryptoPP18CFB_CipherTemplateINS_20AbstractPolicyHolderINS_24CFB_CipherAbstractPolicyENS_15SymmetricCipherEEEE13ResynchronizeEPKhi, symObjAddr: 0x19A4, symBinAddr: 0x100035B40, symSize: 0x78 }
  - { offsetInCU: 0x6E55D, offset: 0x12BCF4, size: 0x8, addend: 0x0, symName: __ZNK8CryptoPP18CFB_CipherTemplateINS_20AbstractPolicyHolderINS_24CFB_CipherAbstractPolicyENS_15SymmetricCipherEEEE16OptimalBlockSizeEv, symObjAddr: 0x1A1C, symBinAddr: 0x100035BB8, symSize: 0x24 }
  - { offsetInCU: 0x6E5BC, offset: 0x12BD53, size: 0x8, addend: 0x0, symName: __ZThn8_NK8CryptoPP18CFB_CipherTemplateINS_20AbstractPolicyHolderINS_24CFB_CipherAbstractPolicyENS_15SymmetricCipherEEEE16OptimalBlockSizeEv, symObjAddr: 0x1A40, symBinAddr: 0x100035BDC, symSize: 0x24 }
  - { offsetInCU: 0x6E60B, offset: 0x12BDA2, size: 0x8, addend: 0x0, symName: __ZNK8CryptoPP18CFB_CipherTemplateINS_20AbstractPolicyHolderINS_24CFB_CipherAbstractPolicyENS_15SymmetricCipherEEEE23GetOptimalNextBlockSizeEv, symObjAddr: 0x1A64, symBinAddr: 0x100035C00, symSize: 0x8 }
  - { offsetInCU: 0x6E632, offset: 0x12BDC9, size: 0x8, addend: 0x0, symName: __ZNK8CryptoPP18CFB_CipherTemplateINS_20AbstractPolicyHolderINS_24CFB_CipherAbstractPolicyENS_15SymmetricCipherEEEE20OptimalDataAlignmentEv, symObjAddr: 0x1A6C, symBinAddr: 0x100035C08, symSize: 0x24 }
  - { offsetInCU: 0x6E68C, offset: 0x12BE23, size: 0x8, addend: 0x0, symName: __ZThn8_NK8CryptoPP18CFB_CipherTemplateINS_20AbstractPolicyHolderINS_24CFB_CipherAbstractPolicyENS_15SymmetricCipherEEEE20OptimalDataAlignmentEv, symObjAddr: 0x1A90, symBinAddr: 0x100035C2C, symSize: 0x24 }
  - { offsetInCU: 0x6E6DB, offset: 0x12BE72, size: 0x8, addend: 0x0, symName: __ZNK8CryptoPP18CFB_CipherTemplateINS_20AbstractPolicyHolderINS_24CFB_CipherAbstractPolicyENS_15SymmetricCipherEEEE14IsRandomAccessEv, symObjAddr: 0x1AB4, symBinAddr: 0x100035C50, symSize: 0x8 }
  - { offsetInCU: 0x6E702, offset: 0x12BE99, size: 0x8, addend: 0x0, symName: __ZThn8_NK8CryptoPP18CFB_CipherTemplateINS_20AbstractPolicyHolderINS_24CFB_CipherAbstractPolicyENS_15SymmetricCipherEEEE14IsRandomAccessEv, symObjAddr: 0x1ABC, symBinAddr: 0x100035C58, symSize: 0x8 }
  - { offsetInCU: 0x6E719, offset: 0x12BEB0, size: 0x8, addend: 0x0, symName: __ZNK8CryptoPP18CFB_CipherTemplateINS_20AbstractPolicyHolderINS_24CFB_CipherAbstractPolicyENS_15SymmetricCipherEEEE15IsSelfInvertingEv, symObjAddr: 0x1AC4, symBinAddr: 0x100035C60, symSize: 0x8 }
  - { offsetInCU: 0x6E740, offset: 0x12BED7, size: 0x8, addend: 0x0, symName: __ZThn8_NK8CryptoPP18CFB_CipherTemplateINS_20AbstractPolicyHolderINS_24CFB_CipherAbstractPolicyENS_15SymmetricCipherEEEE15IsSelfInvertingEv, symObjAddr: 0x1ACC, symBinAddr: 0x100035C68, symSize: 0x8 }
  - { offsetInCU: 0x6E757, offset: 0x12BEEE, size: 0x8, addend: 0x0, symName: __ZNK8CryptoPP18CFB_CipherTemplateINS_20AbstractPolicyHolderINS_24CFB_CipherAbstractPolicyENS_15SymmetricCipherEEEE17AlgorithmProviderEv, symObjAddr: 0x1AD4, symBinAddr: 0x100035C70, symSize: 0x34 }
  - { offsetInCU: 0x6E7B9, offset: 0x12BF50, size: 0x8, addend: 0x0, symName: __ZThn8_NK8CryptoPP18CFB_CipherTemplateINS_20AbstractPolicyHolderINS_24CFB_CipherAbstractPolicyENS_15SymmetricCipherEEEE17AlgorithmProviderEv, symObjAddr: 0x1B08, symBinAddr: 0x100035CA4, symSize: 0x34 }
  - { offsetInCU: 0x6E810, offset: 0x12BFA7, size: 0x8, addend: 0x0, symName: __ZN8CryptoPP18CFB_CipherTemplateINS_20AbstractPolicyHolderINS_24CFB_CipherAbstractPolicyENS_15SymmetricCipherEEEE15UncheckedSetKeyEPKhjRKNS_14NameValuePairsE, symObjAddr: 0x1B3C, symBinAddr: 0x100035CD8, symSize: 0xC0 }
  - { offsetInCU: 0x6E94B, offset: 0x12C0E2, size: 0x8, addend: 0x0, symName: __ZNK8CryptoPP22CFB_EncryptionTemplateINS_20AbstractPolicyHolderINS_24CFB_CipherAbstractPolicyENS_15SymmetricCipherEEEE23IsForwardTransformationEv, symObjAddr: 0x1BFC, symBinAddr: 0x100035D98, symSize: 0x8 }
  - { offsetInCU: 0x6E972, offset: 0x12C109, size: 0x8, addend: 0x0, symName: __ZThn8_NK8CryptoPP22CFB_EncryptionTemplateINS_20AbstractPolicyHolderINS_24CFB_CipherAbstractPolicyENS_15SymmetricCipherEEEE23IsForwardTransformationEv, symObjAddr: 0x1C04, symBinAddr: 0x100035DA0, symSize: 0x8 }
  - { offsetInCU: 0x6E989, offset: 0x12C120, size: 0x8, addend: 0x0, symName: __ZN8CryptoPP22CFB_EncryptionTemplateINS_20AbstractPolicyHolderINS_24CFB_CipherAbstractPolicyENS_15SymmetricCipherEEEE30CombineMessageAndShiftRegisterEPhS6_PKhm, symObjAddr: 0x1C0C, symBinAddr: 0x100035DA8, symSize: 0x48 }
  - { offsetInCU: 0x6EA2C, offset: 0x12C1C3, size: 0x8, addend: 0x0, symName: __ZNK8CryptoPP22CFB_DecryptionTemplateINS_20AbstractPolicyHolderINS_24CFB_CipherAbstractPolicyENS_15SymmetricCipherEEEE23IsForwardTransformationEv, symObjAddr: 0x1C54, symBinAddr: 0x100035DF0, symSize: 0x8 }
  - { offsetInCU: 0x6EA53, offset: 0x12C1EA, size: 0x8, addend: 0x0, symName: __ZThn8_NK8CryptoPP22CFB_DecryptionTemplateINS_20AbstractPolicyHolderINS_24CFB_CipherAbstractPolicyENS_15SymmetricCipherEEEE23IsForwardTransformationEv, symObjAddr: 0x1C5C, symBinAddr: 0x100035DF8, symSize: 0x8 }
  - { offsetInCU: 0x6EA6A, offset: 0x12C201, size: 0x8, addend: 0x0, symName: __ZN8CryptoPP22CFB_DecryptionTemplateINS_20AbstractPolicyHolderINS_24CFB_CipherAbstractPolicyENS_15SymmetricCipherEEEE30CombineMessageAndShiftRegisterEPhS6_PKhm, symObjAddr: 0x1C64, symBinAddr: 0x100035E00, symSize: 0x11C }
  - { offsetInCU: 0x6EAC7, offset: 0x12C25E, size: 0x8, addend: 0x0, symName: __ZN8CryptoPP22CFB_DecryptionTemplateINS_20AbstractPolicyHolderINS_24CFB_CipherAbstractPolicyENS_15SymmetricCipherEEEE30CombineMessageAndShiftRegisterEPhS6_PKhm, symObjAddr: 0x1C64, symBinAddr: 0x100035E00, symSize: 0x11C }
  - { offsetInCU: 0x6EB96, offset: 0x12C32D, size: 0x8, addend: 0x0, symName: __ZN8CryptoPP27AlgorithmParametersTemplateIbEC2EPKcRKbb, symObjAddr: 0x1D80, symBinAddr: 0x100035F1C, symSize: 0x28 }
  - { offsetInCU: 0x6EC88, offset: 0x12C41F, size: 0x8, addend: 0x0, symName: __ZN8CryptoPP27AlgorithmParametersTemplateIbEC1EPKcRKbb, symObjAddr: 0x1DA8, symBinAddr: 0x100035F44, symSize: 0x28 }
  - { offsetInCU: 0x6ECE1, offset: 0x12C478, size: 0x8, addend: 0x0, symName: __ZN8CryptoPP27AlgorithmParametersTemplateIbEC1EPKcRKbb, symObjAddr: 0x1DA8, symBinAddr: 0x100035F44, symSize: 0x28 }
  - { offsetInCU: 0x6EDE7, offset: 0x12C57E, size: 0x8, addend: 0x0, symName: __ZNK8CryptoPP27AlgorithmParametersTemplateIbE11AssignValueEPKcRKSt9type_infoPv, symObjAddr: 0x1DD0, symBinAddr: 0x100035F6C, symSize: 0xA8 }
  - { offsetInCU: 0x70D3A, offset: 0x12E4D1, size: 0x8, addend: 0x0, symName: __ZNK8CryptoPP27AlgorithmParametersTemplateIbE8MoveIntoEPv, symObjAddr: 0x1F5C, symBinAddr: 0x100036014, symSize: 0xAC }
  - { offsetInCU: 0x70EE3, offset: 0x12E67A, size: 0x8, addend: 0x0, symName: __ZN8CryptoPP27AlgorithmParametersTemplateIiEC2EPKcRKib, symObjAddr: 0x2008, symBinAddr: 0x1000360C0, symSize: 0x28 }
  - { offsetInCU: 0x70FD5, offset: 0x12E76C, size: 0x8, addend: 0x0, symName: __ZN8CryptoPP27AlgorithmParametersTemplateIiEC1EPKcRKib, symObjAddr: 0x2030, symBinAddr: 0x1000360E8, symSize: 0x28 }
  - { offsetInCU: 0x71015, offset: 0x12E7AC, size: 0x8, addend: 0x0, symName: __ZN8CryptoPP27AlgorithmParametersTemplateIiEC1EPKcRKib, symObjAddr: 0x2030, symBinAddr: 0x1000360E8, symSize: 0x28 }
  - { offsetInCU: 0x710BD, offset: 0x12E854, size: 0x8, addend: 0x0, symName: __ZNK8CryptoPP27AlgorithmParametersTemplateIiE11AssignValueEPKcRKSt9type_infoPv, symObjAddr: 0x2058, symBinAddr: 0x100036110, symSize: 0x60 }
  - { offsetInCU: 0x711A3, offset: 0x12E93A, size: 0x8, addend: 0x0, symName: __ZNK8CryptoPP27AlgorithmParametersTemplateIiE8MoveIntoEPv, symObjAddr: 0x20B8, symBinAddr: 0x100036170, symSize: 0xAC }
  - { offsetInCU: 0x713BA, offset: 0x12EB51, size: 0x8, addend: 0x0, symName: __ZN8CryptoPP27AlgorithmParametersTemplateINS_23ConstByteArrayParameterEEC2EPKcRKS1_b, symObjAddr: 0x2164, symBinAddr: 0x10003621C, symSize: 0x70 }
  - { offsetInCU: 0x726E2, offset: 0x12FE79, size: 0x8, addend: 0x0, symName: __ZN8CryptoPP27AlgorithmParametersTemplateINS_23ConstByteArrayParameterEEC1EPKcRKS1_b, symObjAddr: 0x229C, symBinAddr: 0x10003628C, symSize: 0x70 }
  - { offsetInCU: 0x728A8, offset: 0x13003F, size: 0x8, addend: 0x0, symName: __ZNK8CryptoPP27AlgorithmParametersTemplateINS_23ConstByteArrayParameterEE11AssignValueEPKcRKSt9type_infoPv, symObjAddr: 0x230C, symBinAddr: 0x1000362FC, symSize: 0xC8 }
  - { offsetInCU: 0x72A03, offset: 0x13019A, size: 0x8, addend: 0x0, symName: __ZN8CryptoPP8SecBlockIhNS_20AllocatorWithCleanupIhLb0EEEE6AssignERKS3_, symObjAddr: 0x44654, symBinAddr: 0x100074488, symSize: 0x18C }
  - { offsetInCU: 0x730EA, offset: 0x130881, size: 0x8, addend: 0x0, symName: __ZNK8CryptoPP27AlgorithmParametersTemplateINS_23ConstByteArrayParameterEE8MoveIntoEPv, symObjAddr: 0x23D4, symBinAddr: 0x1000363C4, symSize: 0xD4 }
  - { offsetInCU: 0x733A1, offset: 0x130B38, size: 0x8, addend: 0x0, symName: __ZN8CryptoPP18CFB_CipherTemplateINS_20AbstractPolicyHolderINS_24CFB_CipherAbstractPolicyENS_14CFB_ModePolicyEEEED2Ev, symObjAddr: 0x24A8, symBinAddr: 0x100036498, symSize: 0x4 }
  - { offsetInCU: 0x733CB, offset: 0x130B62, size: 0x8, addend: 0x0, symName: __ZN8CryptoPP18CFB_CipherTemplateINS_20AbstractPolicyHolderINS_24CFB_CipherAbstractPolicyENS_14CFB_ModePolicyEEEED2Ev, symObjAddr: 0x24A8, symBinAddr: 0x100036498, symSize: 0x4 }
  - { offsetInCU: 0x733EB, offset: 0x130B82, size: 0x8, addend: 0x0, symName: __ZN8CryptoPP18CFB_CipherTemplateINS_20AbstractPolicyHolderINS_24CFB_CipherAbstractPolicyENS_14CFB_ModePolicyEEEED2Ev, symObjAddr: 0x24A8, symBinAddr: 0x100036498, symSize: 0x4 }
  - { offsetInCU: 0x733FF, offset: 0x130B96, size: 0x8, addend: 0x0, symName: __ZN8CryptoPP14CFB_ModePolicyD2Ev, symObjAddr: 0x447E0, symBinAddr: 0x100074614, symSize: 0xC0 }
  - { offsetInCU: 0x73691, offset: 0x130E28, size: 0x8, addend: 0x0, symName: __ZN8CryptoPP18CFB_CipherTemplateINS_20AbstractPolicyHolderINS_24CFB_CipherAbstractPolicyENS_14CFB_ModePolicyEEEED1Ev, symObjAddr: 0x24AC, symBinAddr: 0x1000C77BC, symSize: 0x4 }
  - { offsetInCU: 0x736D1, offset: 0x130E68, size: 0x8, addend: 0x0, symName: __ZThn8_N8CryptoPP18CFB_CipherTemplateINS_20AbstractPolicyHolderINS_24CFB_CipherAbstractPolicyENS_14CFB_ModePolicyEEEED1Ev, symObjAddr: 0x24B0, symBinAddr: 0x1000C77C0, symSize: 0x4 }
  - { offsetInCU: 0x736EC, offset: 0x130E83, size: 0x8, addend: 0x0, symName: __ZThn8_N8CryptoPP18CFB_CipherTemplateINS_20AbstractPolicyHolderINS_24CFB_CipherAbstractPolicyENS_14CFB_ModePolicyEEEED1Ev, symObjAddr: 0x24B0, symBinAddr: 0x1000C77C0, symSize: 0x4 }
  - { offsetInCU: 0x73708, offset: 0x130E9F, size: 0x8, addend: 0x0, symName: __ZThn56_N8CryptoPP18CFB_CipherTemplateINS_20AbstractPolicyHolderINS_24CFB_CipherAbstractPolicyENS_14CFB_ModePolicyEEEED1Ev, symObjAddr: 0x24B4, symBinAddr: 0x1000C77C4, symSize: 0x4 }
  - { offsetInCU: 0x73723, offset: 0x130EBA, size: 0x8, addend: 0x0, symName: __ZThn56_N8CryptoPP18CFB_CipherTemplateINS_20AbstractPolicyHolderINS_24CFB_CipherAbstractPolicyENS_14CFB_ModePolicyEEEED1Ev, symObjAddr: 0x24B4, symBinAddr: 0x1000C77C4, symSize: 0x4 }
  - { offsetInCU: 0x7373F, offset: 0x130ED6, size: 0x8, addend: 0x0, symName: __ZN8CryptoPP18CFB_CipherTemplateINS_20AbstractPolicyHolderINS_24CFB_CipherAbstractPolicyENS_14CFB_ModePolicyEEEED0Ev, symObjAddr: 0x24B8, symBinAddr: 0x1000C77C8, symSize: 0x4 }
  - { offsetInCU: 0x7377A, offset: 0x130F11, size: 0x8, addend: 0x0, symName: __ZThn8_N8CryptoPP18CFB_CipherTemplateINS_20AbstractPolicyHolderINS_24CFB_CipherAbstractPolicyENS_14CFB_ModePolicyEEEED0Ev, symObjAddr: 0x24BC, symBinAddr: 0x1000C77CC, symSize: 0x4 }
  - { offsetInCU: 0x73795, offset: 0x130F2C, size: 0x8, addend: 0x0, symName: __ZThn8_N8CryptoPP18CFB_CipherTemplateINS_20AbstractPolicyHolderINS_24CFB_CipherAbstractPolicyENS_14CFB_ModePolicyEEEED0Ev, symObjAddr: 0x24BC, symBinAddr: 0x1000C77CC, symSize: 0x4 }
  - { offsetInCU: 0x737B1, offset: 0x130F48, size: 0x8, addend: 0x0, symName: __ZThn56_N8CryptoPP18CFB_CipherTemplateINS_20AbstractPolicyHolderINS_24CFB_CipherAbstractPolicyENS_14CFB_ModePolicyEEEED0Ev, symObjAddr: 0x24C0, symBinAddr: 0x1000C77D0, symSize: 0x4 }
  - { offsetInCU: 0x737CC, offset: 0x130F63, size: 0x8, addend: 0x0, symName: __ZThn56_N8CryptoPP18CFB_CipherTemplateINS_20AbstractPolicyHolderINS_24CFB_CipherAbstractPolicyENS_14CFB_ModePolicyEEEED0Ev, symObjAddr: 0x24C0, symBinAddr: 0x1000C77D0, symSize: 0x4 }
  - { offsetInCU: 0x738B1, offset: 0x131048, size: 0x8, addend: 0x0, symName: __ZN8CryptoPP18CFB_CipherTemplateINS_20AbstractPolicyHolderINS_24CFB_CipherAbstractPolicyENS_14CFB_ModePolicyEEEEC2Ev, symObjAddr: 0x24C4, symBinAddr: 0x10003649C, symSize: 0x70 }
  - { offsetInCU: 0x73A26, offset: 0x1311BD, size: 0x8, addend: 0x0, symName: __ZN8CryptoPP18CFB_CipherTemplateINS_20AbstractPolicyHolderINS_24CFB_CipherAbstractPolicyENS_14CFB_ModePolicyEEEE11ProcessDataEPhPKhm, symObjAddr: 0x2534, symBinAddr: 0x10003650C, symSize: 0x230 }
  - { offsetInCU: 0x73DA9, offset: 0x131540, size: 0x8, addend: 0x0, symName: __ZThn8_N8CryptoPP18CFB_CipherTemplateINS_20AbstractPolicyHolderINS_24CFB_CipherAbstractPolicyENS_14CFB_ModePolicyEEEE11ProcessDataEPhPKhm, symObjAddr: 0x2764, symBinAddr: 0x10003673C, symSize: 0x8 }
  - { offsetInCU: 0x73DE8, offset: 0x13157F, size: 0x8, addend: 0x0, symName: __ZN8CryptoPP18CFB_CipherTemplateINS_20AbstractPolicyHolderINS_24CFB_CipherAbstractPolicyENS_14CFB_ModePolicyEEEE13ResynchronizeEPKhi, symObjAddr: 0x276C, symBinAddr: 0x100036744, symSize: 0x78 }
  - { offsetInCU: 0x73E87, offset: 0x13161E, size: 0x8, addend: 0x0, symName: __ZNK8CryptoPP18CFB_CipherTemplateINS_20AbstractPolicyHolderINS_24CFB_CipherAbstractPolicyENS_14CFB_ModePolicyEEEE16OptimalBlockSizeEv, symObjAddr: 0x27E4, symBinAddr: 0x1000367BC, symSize: 0x24 }
  - { offsetInCU: 0x73EE6, offset: 0x13167D, size: 0x8, addend: 0x0, symName: __ZThn8_NK8CryptoPP18CFB_CipherTemplateINS_20AbstractPolicyHolderINS_24CFB_CipherAbstractPolicyENS_14CFB_ModePolicyEEEE16OptimalBlockSizeEv, symObjAddr: 0x2808, symBinAddr: 0x1000367E0, symSize: 0x24 }
  - { offsetInCU: 0x73F35, offset: 0x1316CC, size: 0x8, addend: 0x0, symName: __ZNK8CryptoPP18CFB_CipherTemplateINS_20AbstractPolicyHolderINS_24CFB_CipherAbstractPolicyENS_14CFB_ModePolicyEEEE23GetOptimalNextBlockSizeEv, symObjAddr: 0x282C, symBinAddr: 0x100036804, symSize: 0x8 }
  - { offsetInCU: 0x73F5C, offset: 0x1316F3, size: 0x8, addend: 0x0, symName: __ZNK8CryptoPP18CFB_CipherTemplateINS_20AbstractPolicyHolderINS_24CFB_CipherAbstractPolicyENS_14CFB_ModePolicyEEEE20OptimalDataAlignmentEv, symObjAddr: 0x2834, symBinAddr: 0x10003680C, symSize: 0x24 }
  - { offsetInCU: 0x73FB6, offset: 0x13174D, size: 0x8, addend: 0x0, symName: __ZThn8_NK8CryptoPP18CFB_CipherTemplateINS_20AbstractPolicyHolderINS_24CFB_CipherAbstractPolicyENS_14CFB_ModePolicyEEEE20OptimalDataAlignmentEv, symObjAddr: 0x2858, symBinAddr: 0x100036830, symSize: 0x24 }
  - { offsetInCU: 0x74005, offset: 0x13179C, size: 0x8, addend: 0x0, symName: __ZNK8CryptoPP18CFB_CipherTemplateINS_20AbstractPolicyHolderINS_24CFB_CipherAbstractPolicyENS_14CFB_ModePolicyEEEE14IsRandomAccessEv, symObjAddr: 0x287C, symBinAddr: 0x100036854, symSize: 0x8 }
  - { offsetInCU: 0x7402C, offset: 0x1317C3, size: 0x8, addend: 0x0, symName: __ZThn8_NK8CryptoPP18CFB_CipherTemplateINS_20AbstractPolicyHolderINS_24CFB_CipherAbstractPolicyENS_14CFB_ModePolicyEEEE14IsRandomAccessEv, symObjAddr: 0x2884, symBinAddr: 0x10003685C, symSize: 0x8 }
  - { offsetInCU: 0x74043, offset: 0x1317DA, size: 0x8, addend: 0x0, symName: __ZNK8CryptoPP18CFB_CipherTemplateINS_20AbstractPolicyHolderINS_24CFB_CipherAbstractPolicyENS_14CFB_ModePolicyEEEE15IsSelfInvertingEv, symObjAddr: 0x288C, symBinAddr: 0x100036864, symSize: 0x8 }
  - { offsetInCU: 0x7406A, offset: 0x131801, size: 0x8, addend: 0x0, symName: __ZThn8_NK8CryptoPP18CFB_CipherTemplateINS_20AbstractPolicyHolderINS_24CFB_CipherAbstractPolicyENS_14CFB_ModePolicyEEEE15IsSelfInvertingEv, symObjAddr: 0x2894, symBinAddr: 0x10003686C, symSize: 0x8 }
  - { offsetInCU: 0x74081, offset: 0x131818, size: 0x8, addend: 0x0, symName: __ZNK8CryptoPP18CFB_CipherTemplateINS_20AbstractPolicyHolderINS_24CFB_CipherAbstractPolicyENS_14CFB_ModePolicyEEEE17AlgorithmProviderEv, symObjAddr: 0x289C, symBinAddr: 0x100036874, symSize: 0x34 }
  - { offsetInCU: 0x740E3, offset: 0x13187A, size: 0x8, addend: 0x0, symName: __ZThn8_NK8CryptoPP18CFB_CipherTemplateINS_20AbstractPolicyHolderINS_24CFB_CipherAbstractPolicyENS_14CFB_ModePolicyEEEE17AlgorithmProviderEv, symObjAddr: 0x28D0, symBinAddr: 0x1000368A8, symSize: 0x34 }
  - { offsetInCU: 0x7413A, offset: 0x1318D1, size: 0x8, addend: 0x0, symName: __ZThn56_NK8CryptoPP18CFB_CipherTemplateINS_20AbstractPolicyHolderINS_24CFB_CipherAbstractPolicyENS_14CFB_ModePolicyEEEE17AlgorithmProviderEv, symObjAddr: 0x2904, symBinAddr: 0x1000368DC, symSize: 0x34 }
  - { offsetInCU: 0x74191, offset: 0x131928, size: 0x8, addend: 0x0, symName: __ZN8CryptoPP18CFB_CipherTemplateINS_20AbstractPolicyHolderINS_24CFB_CipherAbstractPolicyENS_14CFB_ModePolicyEEEE15UncheckedSetKeyEPKhjRKNS_14NameValuePairsE, symObjAddr: 0x2938, symBinAddr: 0x100036910, symSize: 0xC0 }
  - { offsetInCU: 0x742CC, offset: 0x131A63, size: 0x8, addend: 0x0, symName: __ZNK8CryptoPP22CFB_EncryptionTemplateINS_20AbstractPolicyHolderINS_24CFB_CipherAbstractPolicyENS_14CFB_ModePolicyEEEE23IsForwardTransformationEv, symObjAddr: 0x29F8, symBinAddr: 0x1000369D0, symSize: 0x8 }
  - { offsetInCU: 0x742F3, offset: 0x131A8A, size: 0x8, addend: 0x0, symName: __ZThn8_NK8CryptoPP22CFB_EncryptionTemplateINS_20AbstractPolicyHolderINS_24CFB_CipherAbstractPolicyENS_14CFB_ModePolicyEEEE23IsForwardTransformationEv, symObjAddr: 0x2A00, symBinAddr: 0x1000369D8, symSize: 0x8 }
  - { offsetInCU: 0x7430A, offset: 0x131AA1, size: 0x8, addend: 0x0, symName: __ZN8CryptoPP22CFB_EncryptionTemplateINS_20AbstractPolicyHolderINS_24CFB_CipherAbstractPolicyENS_14CFB_ModePolicyEEEE30CombineMessageAndShiftRegisterEPhS6_PKhm, symObjAddr: 0x2A08, symBinAddr: 0x1000369E0, symSize: 0x48 }
  - { offsetInCU: 0x743AD, offset: 0x131B44, size: 0x8, addend: 0x0, symName: __ZNK8CryptoPP22CFB_DecryptionTemplateINS_20AbstractPolicyHolderINS_24CFB_CipherAbstractPolicyENS_14CFB_ModePolicyEEEE23IsForwardTransformationEv, symObjAddr: 0x2A50, symBinAddr: 0x100036A28, symSize: 0x8 }
  - { offsetInCU: 0x743D4, offset: 0x131B6B, size: 0x8, addend: 0x0, symName: __ZThn8_NK8CryptoPP22CFB_DecryptionTemplateINS_20AbstractPolicyHolderINS_24CFB_CipherAbstractPolicyENS_14CFB_ModePolicyEEEE23IsForwardTransformationEv, symObjAddr: 0x2A58, symBinAddr: 0x100036A30, symSize: 0x8 }
  - { offsetInCU: 0x743EB, offset: 0x131B82, size: 0x8, addend: 0x0, symName: __ZN8CryptoPP22CFB_DecryptionTemplateINS_20AbstractPolicyHolderINS_24CFB_CipherAbstractPolicyENS_14CFB_ModePolicyEEEE30CombineMessageAndShiftRegisterEPhS6_PKhm, symObjAddr: 0x2A60, symBinAddr: 0x100036A38, symSize: 0x11C }
  - { offsetInCU: 0x74448, offset: 0x131BDF, size: 0x8, addend: 0x0, symName: __ZN8CryptoPP22CFB_DecryptionTemplateINS_20AbstractPolicyHolderINS_24CFB_CipherAbstractPolicyENS_14CFB_ModePolicyEEEE30CombineMessageAndShiftRegisterEPhS6_PKhm, symObjAddr: 0x2A60, symBinAddr: 0x100036A38, symSize: 0x11C }
  - { offsetInCU: 0x74573, offset: 0x131D0A, size: 0x8, addend: 0x0, symName: __ZN8CryptoPP22AdditiveCipherTemplateINS_20AbstractPolicyHolderINS_28AdditiveCipherAbstractPolicyENS_14OFB_ModePolicyEEEED2Ev, symObjAddr: 0x2B7C, symBinAddr: 0x100036B54, symSize: 0xC4 }
  - { offsetInCU: 0x74843, offset: 0x131FDA, size: 0x8, addend: 0x0, symName: __ZN8CryptoPP20AbstractPolicyHolderINS_28AdditiveCipherAbstractPolicyENS_14OFB_ModePolicyEED2Ev, symObjAddr: 0x2C40, symBinAddr: 0x100036C18, symSize: 0x60 }
  - { offsetInCU: 0x749C8, offset: 0x13215F, size: 0x8, addend: 0x0, symName: __ZN8CryptoPP22AdditiveCipherTemplateINS_20AbstractPolicyHolderINS_28AdditiveCipherAbstractPolicyENS_14OFB_ModePolicyEEEED1Ev, symObjAddr: 0x2CA0, symBinAddr: 0x1000C77D4, symSize: 0x4 }
  - { offsetInCU: 0x74A08, offset: 0x13219F, size: 0x8, addend: 0x0, symName: __ZThn8_N8CryptoPP22AdditiveCipherTemplateINS_20AbstractPolicyHolderINS_28AdditiveCipherAbstractPolicyENS_14OFB_ModePolicyEEEED1Ev, symObjAddr: 0x2CA4, symBinAddr: 0x1000C77D8, symSize: 0x4 }
  - { offsetInCU: 0x74A23, offset: 0x1321BA, size: 0x8, addend: 0x0, symName: __ZThn8_N8CryptoPP22AdditiveCipherTemplateINS_20AbstractPolicyHolderINS_28AdditiveCipherAbstractPolicyENS_14OFB_ModePolicyEEEED1Ev, symObjAddr: 0x2CA4, symBinAddr: 0x1000C77D8, symSize: 0x4 }
  - { offsetInCU: 0x74A3F, offset: 0x1321D6, size: 0x8, addend: 0x0, symName: __ZThn56_N8CryptoPP22AdditiveCipherTemplateINS_20AbstractPolicyHolderINS_28AdditiveCipherAbstractPolicyENS_14OFB_ModePolicyEEEED1Ev, symObjAddr: 0x2CA8, symBinAddr: 0x1000C77DC, symSize: 0x4 }
  - { offsetInCU: 0x74A5A, offset: 0x1321F1, size: 0x8, addend: 0x0, symName: __ZThn56_N8CryptoPP22AdditiveCipherTemplateINS_20AbstractPolicyHolderINS_28AdditiveCipherAbstractPolicyENS_14OFB_ModePolicyEEEED1Ev, symObjAddr: 0x2CA8, symBinAddr: 0x1000C77DC, symSize: 0x4 }
  - { offsetInCU: 0x74A76, offset: 0x13220D, size: 0x8, addend: 0x0, symName: __ZThn64_N8CryptoPP22AdditiveCipherTemplateINS_20AbstractPolicyHolderINS_28AdditiveCipherAbstractPolicyENS_14OFB_ModePolicyEEEED1Ev, symObjAddr: 0x2CAC, symBinAddr: 0x1000C77E0, symSize: 0x4 }
  - { offsetInCU: 0x74A91, offset: 0x132228, size: 0x8, addend: 0x0, symName: __ZThn64_N8CryptoPP22AdditiveCipherTemplateINS_20AbstractPolicyHolderINS_28AdditiveCipherAbstractPolicyENS_14OFB_ModePolicyEEEED1Ev, symObjAddr: 0x2CAC, symBinAddr: 0x1000C77E0, symSize: 0x4 }
  - { offsetInCU: 0x74AAD, offset: 0x132244, size: 0x8, addend: 0x0, symName: __ZN8CryptoPP22AdditiveCipherTemplateINS_20AbstractPolicyHolderINS_28AdditiveCipherAbstractPolicyENS_14OFB_ModePolicyEEEED0Ev, symObjAddr: 0x2CB0, symBinAddr: 0x1000C77E4, symSize: 0x4 }
  - { offsetInCU: 0x74AE8, offset: 0x13227F, size: 0x8, addend: 0x0, symName: __ZThn8_N8CryptoPP22AdditiveCipherTemplateINS_20AbstractPolicyHolderINS_28AdditiveCipherAbstractPolicyENS_14OFB_ModePolicyEEEED0Ev, symObjAddr: 0x2CB4, symBinAddr: 0x1000C77E8, symSize: 0x4 }
  - { offsetInCU: 0x74B03, offset: 0x13229A, size: 0x8, addend: 0x0, symName: __ZThn8_N8CryptoPP22AdditiveCipherTemplateINS_20AbstractPolicyHolderINS_28AdditiveCipherAbstractPolicyENS_14OFB_ModePolicyEEEED0Ev, symObjAddr: 0x2CB4, symBinAddr: 0x1000C77E8, symSize: 0x4 }
  - { offsetInCU: 0x74B1F, offset: 0x1322B6, size: 0x8, addend: 0x0, symName: __ZThn56_N8CryptoPP22AdditiveCipherTemplateINS_20AbstractPolicyHolderINS_28AdditiveCipherAbstractPolicyENS_14OFB_ModePolicyEEEED0Ev, symObjAddr: 0x2CB8, symBinAddr: 0x1000C77EC, symSize: 0x4 }
  - { offsetInCU: 0x74B3A, offset: 0x1322D1, size: 0x8, addend: 0x0, symName: __ZThn56_N8CryptoPP22AdditiveCipherTemplateINS_20AbstractPolicyHolderINS_28AdditiveCipherAbstractPolicyENS_14OFB_ModePolicyEEEED0Ev, symObjAddr: 0x2CB8, symBinAddr: 0x1000C77EC, symSize: 0x4 }
  - { offsetInCU: 0x74B56, offset: 0x1322ED, size: 0x8, addend: 0x0, symName: __ZThn64_N8CryptoPP22AdditiveCipherTemplateINS_20AbstractPolicyHolderINS_28AdditiveCipherAbstractPolicyENS_14OFB_ModePolicyEEEED0Ev, symObjAddr: 0x2CBC, symBinAddr: 0x1000C77F0, symSize: 0x4 }
  - { offsetInCU: 0x74B71, offset: 0x132308, size: 0x8, addend: 0x0, symName: __ZThn64_N8CryptoPP22AdditiveCipherTemplateINS_20AbstractPolicyHolderINS_28AdditiveCipherAbstractPolicyENS_14OFB_ModePolicyEEEED0Ev, symObjAddr: 0x2CBC, symBinAddr: 0x1000C77F0, symSize: 0x4 }
  - { offsetInCU: 0x74BE1, offset: 0x132378, size: 0x8, addend: 0x0, symName: __ZN8CryptoPP22AdditiveCipherTemplateINS_20AbstractPolicyHolderINS_28AdditiveCipherAbstractPolicyENS_14OFB_ModePolicyEEEEC2Ev, symObjAddr: 0x2CC0, symBinAddr: 0x100036C78, symSize: 0xAC }
  - { offsetInCU: 0x74DA5, offset: 0x13253C, size: 0x8, addend: 0x0, symName: __ZN8CryptoPP22AdditiveCipherTemplateINS_20AbstractPolicyHolderINS_28AdditiveCipherAbstractPolicyENS_14OFB_ModePolicyEEEE13GenerateBlockEPhm, symObjAddr: 0x2D6C, symBinAddr: 0x100036D24, symSize: 0x22C }
  - { offsetInCU: 0x7556C, offset: 0x132D03, size: 0x8, addend: 0x0, symName: __ZN8CryptoPP22AdditiveCipherTemplateINS_20AbstractPolicyHolderINS_28AdditiveCipherAbstractPolicyENS_14OFB_ModePolicyEEEE18KeystreamBufferEndEv, symObjAddr: 0x2F98, symBinAddr: 0x100036F50, symSize: 0xC }
  - { offsetInCU: 0x75591, offset: 0x132D28, size: 0x8, addend: 0x0, symName: __ZN8CryptoPP22AdditiveCipherTemplateINS_20AbstractPolicyHolderINS_28AdditiveCipherAbstractPolicyENS_14OFB_ModePolicyEEEE18KeystreamBufferEndEv, symObjAddr: 0x2F98, symBinAddr: 0x100036F50, symSize: 0xC }
  - { offsetInCU: 0x755D8, offset: 0x132D6F, size: 0x8, addend: 0x0, symName: __ZThn64_N8CryptoPP22AdditiveCipherTemplateINS_20AbstractPolicyHolderINS_28AdditiveCipherAbstractPolicyENS_14OFB_ModePolicyEEEE13GenerateBlockEPhm, symObjAddr: 0x2FA4, symBinAddr: 0x100036F5C, symSize: 0x8 }
  - { offsetInCU: 0x75625, offset: 0x132DBC, size: 0x8, addend: 0x0, symName: __ZN8CryptoPP22AdditiveCipherTemplateINS_20AbstractPolicyHolderINS_28AdditiveCipherAbstractPolicyENS_14OFB_ModePolicyEEEE11ProcessDataEPhPKhm, symObjAddr: 0x2FAC, symBinAddr: 0x100036F64, symSize: 0x31C }
  - { offsetInCU: 0x75D21, offset: 0x1334B8, size: 0x8, addend: 0x0, symName: __ZN8CryptoPP22AdditiveCipherTemplateINS_20AbstractPolicyHolderINS_28AdditiveCipherAbstractPolicyENS_14OFB_ModePolicyEEEE20KeystreamBufferBeginEv, symObjAddr: 0x32C8, symBinAddr: 0x100037280, symSize: 0x8 }
  - { offsetInCU: 0x75D46, offset: 0x1334DD, size: 0x8, addend: 0x0, symName: __ZN8CryptoPP22AdditiveCipherTemplateINS_20AbstractPolicyHolderINS_28AdditiveCipherAbstractPolicyENS_14OFB_ModePolicyEEEE20KeystreamBufferBeginEv, symObjAddr: 0x32C8, symBinAddr: 0x100037280, symSize: 0x8 }
  - { offsetInCU: 0x75D66, offset: 0x1334FD, size: 0x8, addend: 0x0, symName: __ZThn8_N8CryptoPP22AdditiveCipherTemplateINS_20AbstractPolicyHolderINS_28AdditiveCipherAbstractPolicyENS_14OFB_ModePolicyEEEE11ProcessDataEPhPKhm, symObjAddr: 0x32D0, symBinAddr: 0x100037288, symSize: 0x8 }
  - { offsetInCU: 0x75DCD, offset: 0x133564, size: 0x8, addend: 0x0, symName: __ZN8CryptoPP22AdditiveCipherTemplateINS_20AbstractPolicyHolderINS_28AdditiveCipherAbstractPolicyENS_14OFB_ModePolicyEEEE13ResynchronizeEPKhi, symObjAddr: 0x32D8, symBinAddr: 0x100037290, symSize: 0xE0 }
  - { offsetInCU: 0x76046, offset: 0x1337DD, size: 0x8, addend: 0x0, symName: __ZNK8CryptoPP22AdditiveCipherTemplateINS_20AbstractPolicyHolderINS_28AdditiveCipherAbstractPolicyENS_14OFB_ModePolicyEEEE17GetBufferByteSizeERKS2_, symObjAddr: 0x33B8, symBinAddr: 0x100037370, symSize: 0x44 }
  - { offsetInCU: 0x7609C, offset: 0x133833, size: 0x8, addend: 0x0, symName: __ZNK8CryptoPP22AdditiveCipherTemplateINS_20AbstractPolicyHolderINS_28AdditiveCipherAbstractPolicyENS_14OFB_ModePolicyEEEE16OptimalBlockSizeEv, symObjAddr: 0x33FC, symBinAddr: 0x1000373B4, symSize: 0x24 }
  - { offsetInCU: 0x760F6, offset: 0x13388D, size: 0x8, addend: 0x0, symName: __ZThn8_NK8CryptoPP22AdditiveCipherTemplateINS_20AbstractPolicyHolderINS_28AdditiveCipherAbstractPolicyENS_14OFB_ModePolicyEEEE16OptimalBlockSizeEv, symObjAddr: 0x3420, symBinAddr: 0x1000373D8, symSize: 0x24 }
  - { offsetInCU: 0x76145, offset: 0x1338DC, size: 0x8, addend: 0x0, symName: __ZNK8CryptoPP22AdditiveCipherTemplateINS_20AbstractPolicyHolderINS_28AdditiveCipherAbstractPolicyENS_14OFB_ModePolicyEEEE23GetOptimalNextBlockSizeEv, symObjAddr: 0x3444, symBinAddr: 0x1000373FC, symSize: 0x8 }
  - { offsetInCU: 0x7616C, offset: 0x133903, size: 0x8, addend: 0x0, symName: __ZNK8CryptoPP22AdditiveCipherTemplateINS_20AbstractPolicyHolderINS_28AdditiveCipherAbstractPolicyENS_14OFB_ModePolicyEEEE20OptimalDataAlignmentEv, symObjAddr: 0x344C, symBinAddr: 0x100037404, symSize: 0x24 }
  - { offsetInCU: 0x761C6, offset: 0x13395D, size: 0x8, addend: 0x0, symName: __ZThn8_NK8CryptoPP22AdditiveCipherTemplateINS_20AbstractPolicyHolderINS_28AdditiveCipherAbstractPolicyENS_14OFB_ModePolicyEEEE20OptimalDataAlignmentEv, symObjAddr: 0x3470, symBinAddr: 0x100037428, symSize: 0x24 }
  - { offsetInCU: 0x76215, offset: 0x1339AC, size: 0x8, addend: 0x0, symName: __ZNK8CryptoPP22AdditiveCipherTemplateINS_20AbstractPolicyHolderINS_28AdditiveCipherAbstractPolicyENS_14OFB_ModePolicyEEEE15IsSelfInvertingEv, symObjAddr: 0x3494, symBinAddr: 0x10003744C, symSize: 0x8 }
  - { offsetInCU: 0x7623C, offset: 0x1339D3, size: 0x8, addend: 0x0, symName: __ZThn8_NK8CryptoPP22AdditiveCipherTemplateINS_20AbstractPolicyHolderINS_28AdditiveCipherAbstractPolicyENS_14OFB_ModePolicyEEEE15IsSelfInvertingEv, symObjAddr: 0x349C, symBinAddr: 0x100037454, symSize: 0x8 }
  - { offsetInCU: 0x76253, offset: 0x1339EA, size: 0x8, addend: 0x0, symName: __ZNK8CryptoPP22AdditiveCipherTemplateINS_20AbstractPolicyHolderINS_28AdditiveCipherAbstractPolicyENS_14OFB_ModePolicyEEEE23IsForwardTransformationEv, symObjAddr: 0x34A4, symBinAddr: 0x10003745C, symSize: 0x8 }
  - { offsetInCU: 0x7627A, offset: 0x133A11, size: 0x8, addend: 0x0, symName: __ZThn8_NK8CryptoPP22AdditiveCipherTemplateINS_20AbstractPolicyHolderINS_28AdditiveCipherAbstractPolicyENS_14OFB_ModePolicyEEEE23IsForwardTransformationEv, symObjAddr: 0x34AC, symBinAddr: 0x100037464, symSize: 0x8 }
  - { offsetInCU: 0x76291, offset: 0x133A28, size: 0x8, addend: 0x0, symName: __ZNK8CryptoPP22AdditiveCipherTemplateINS_20AbstractPolicyHolderINS_28AdditiveCipherAbstractPolicyENS_14OFB_ModePolicyEEEE14IsRandomAccessEv, symObjAddr: 0x34B4, symBinAddr: 0x10003746C, symSize: 0x24 }
  - { offsetInCU: 0x762EB, offset: 0x133A82, size: 0x8, addend: 0x0, symName: __ZThn8_NK8CryptoPP22AdditiveCipherTemplateINS_20AbstractPolicyHolderINS_28AdditiveCipherAbstractPolicyENS_14OFB_ModePolicyEEEE14IsRandomAccessEv, symObjAddr: 0x34D8, symBinAddr: 0x100037490, symSize: 0x24 }
  - { offsetInCU: 0x7633A, offset: 0x133AD1, size: 0x8, addend: 0x0, symName: __ZN8CryptoPP22AdditiveCipherTemplateINS_20AbstractPolicyHolderINS_28AdditiveCipherAbstractPolicyENS_14OFB_ModePolicyEEEE4SeekEm, symObjAddr: 0x34FC, symBinAddr: 0x1000374B4, symSize: 0xB4 }
  - { offsetInCU: 0x76498, offset: 0x133C2F, size: 0x8, addend: 0x0, symName: __ZThn8_N8CryptoPP22AdditiveCipherTemplateINS_20AbstractPolicyHolderINS_28AdditiveCipherAbstractPolicyENS_14OFB_ModePolicyEEEE4SeekEm, symObjAddr: 0x35B0, symBinAddr: 0x100037568, symSize: 0xB4 }
  - { offsetInCU: 0x765A3, offset: 0x133D3A, size: 0x8, addend: 0x0, symName: __ZNK8CryptoPP22AdditiveCipherTemplateINS_20AbstractPolicyHolderINS_28AdditiveCipherAbstractPolicyENS_14OFB_ModePolicyEEEE17AlgorithmProviderEv, symObjAddr: 0x3664, symBinAddr: 0x10003761C, symSize: 0x34 }
  - { offsetInCU: 0x76605, offset: 0x133D9C, size: 0x8, addend: 0x0, symName: __ZThn8_NK8CryptoPP22AdditiveCipherTemplateINS_20AbstractPolicyHolderINS_28AdditiveCipherAbstractPolicyENS_14OFB_ModePolicyEEEE17AlgorithmProviderEv, symObjAddr: 0x3698, symBinAddr: 0x100037650, symSize: 0x34 }
  - { offsetInCU: 0x7665C, offset: 0x133DF3, size: 0x8, addend: 0x0, symName: __ZThn56_NK8CryptoPP22AdditiveCipherTemplateINS_20AbstractPolicyHolderINS_28AdditiveCipherAbstractPolicyENS_14OFB_ModePolicyEEEE17AlgorithmProviderEv, symObjAddr: 0x36CC, symBinAddr: 0x100037684, symSize: 0x34 }
  - { offsetInCU: 0x766B3, offset: 0x133E4A, size: 0x8, addend: 0x0, symName: __ZThn64_NK8CryptoPP22AdditiveCipherTemplateINS_20AbstractPolicyHolderINS_28AdditiveCipherAbstractPolicyENS_14OFB_ModePolicyEEEE17AlgorithmProviderEv, symObjAddr: 0x3700, symBinAddr: 0x1000376B8, symSize: 0x34 }
  - { offsetInCU: 0x7670A, offset: 0x133EA1, size: 0x8, addend: 0x0, symName: __ZN8CryptoPP22AdditiveCipherTemplateINS_20AbstractPolicyHolderINS_28AdditiveCipherAbstractPolicyENS_14OFB_ModePolicyEEEE15UncheckedSetKeyEPKhjRKNS_14NameValuePairsE, symObjAddr: 0x3734, symBinAddr: 0x1000376EC, symSize: 0x264 }
  - { offsetInCU: 0x76F4C, offset: 0x1346E3, size: 0x8, addend: 0x0, symName: __ZN8CryptoPP22AdditiveCipherTemplateINS_20AbstractPolicyHolderINS_28AdditiveCipherAbstractPolicyENS_14CTR_ModePolicyEEEED2Ev, symObjAddr: 0x3998, symBinAddr: 0x100037950, symSize: 0x88 }
  - { offsetInCU: 0x770E9, offset: 0x134880, size: 0x8, addend: 0x0, symName: __ZN8CryptoPP14CTR_ModePolicyD2Ev, symObjAddr: 0x448A0, symBinAddr: 0x1000746D4, symSize: 0xC0 }
  - { offsetInCU: 0x7737B, offset: 0x134B12, size: 0x8, addend: 0x0, symName: __ZN8CryptoPP22AdditiveCipherTemplateINS_20AbstractPolicyHolderINS_28AdditiveCipherAbstractPolicyENS_14CTR_ModePolicyEEEED1Ev, symObjAddr: 0x3A20, symBinAddr: 0x1000C77F4, symSize: 0x4 }
  - { offsetInCU: 0x773BB, offset: 0x134B52, size: 0x8, addend: 0x0, symName: __ZThn8_N8CryptoPP22AdditiveCipherTemplateINS_20AbstractPolicyHolderINS_28AdditiveCipherAbstractPolicyENS_14CTR_ModePolicyEEEED1Ev, symObjAddr: 0x3A24, symBinAddr: 0x1000C77F8, symSize: 0x4 }
  - { offsetInCU: 0x773D6, offset: 0x134B6D, size: 0x8, addend: 0x0, symName: __ZThn8_N8CryptoPP22AdditiveCipherTemplateINS_20AbstractPolicyHolderINS_28AdditiveCipherAbstractPolicyENS_14CTR_ModePolicyEEEED1Ev, symObjAddr: 0x3A24, symBinAddr: 0x1000C77F8, symSize: 0x4 }
  - { offsetInCU: 0x773F2, offset: 0x134B89, size: 0x8, addend: 0x0, symName: __ZThn56_N8CryptoPP22AdditiveCipherTemplateINS_20AbstractPolicyHolderINS_28AdditiveCipherAbstractPolicyENS_14CTR_ModePolicyEEEED1Ev, symObjAddr: 0x3A28, symBinAddr: 0x1000C77FC, symSize: 0x4 }
  - { offsetInCU: 0x7740D, offset: 0x134BA4, size: 0x8, addend: 0x0, symName: __ZThn56_N8CryptoPP22AdditiveCipherTemplateINS_20AbstractPolicyHolderINS_28AdditiveCipherAbstractPolicyENS_14CTR_ModePolicyEEEED1Ev, symObjAddr: 0x3A28, symBinAddr: 0x1000C77FC, symSize: 0x4 }
  - { offsetInCU: 0x77429, offset: 0x134BC0, size: 0x8, addend: 0x0, symName: __ZThn96_N8CryptoPP22AdditiveCipherTemplateINS_20AbstractPolicyHolderINS_28AdditiveCipherAbstractPolicyENS_14CTR_ModePolicyEEEED1Ev, symObjAddr: 0x3A2C, symBinAddr: 0x1000C7800, symSize: 0x4 }
  - { offsetInCU: 0x77444, offset: 0x134BDB, size: 0x8, addend: 0x0, symName: __ZThn96_N8CryptoPP22AdditiveCipherTemplateINS_20AbstractPolicyHolderINS_28AdditiveCipherAbstractPolicyENS_14CTR_ModePolicyEEEED1Ev, symObjAddr: 0x3A2C, symBinAddr: 0x1000C7800, symSize: 0x4 }
  - { offsetInCU: 0x77461, offset: 0x134BF8, size: 0x8, addend: 0x0, symName: __ZN8CryptoPP22AdditiveCipherTemplateINS_20AbstractPolicyHolderINS_28AdditiveCipherAbstractPolicyENS_14CTR_ModePolicyEEEED0Ev, symObjAddr: 0x3A30, symBinAddr: 0x1000C7804, symSize: 0x4 }
  - { offsetInCU: 0x7749C, offset: 0x134C33, size: 0x8, addend: 0x0, symName: __ZThn8_N8CryptoPP22AdditiveCipherTemplateINS_20AbstractPolicyHolderINS_28AdditiveCipherAbstractPolicyENS_14CTR_ModePolicyEEEED0Ev, symObjAddr: 0x3A34, symBinAddr: 0x1000C7808, symSize: 0x4 }
  - { offsetInCU: 0x774B7, offset: 0x134C4E, size: 0x8, addend: 0x0, symName: __ZThn8_N8CryptoPP22AdditiveCipherTemplateINS_20AbstractPolicyHolderINS_28AdditiveCipherAbstractPolicyENS_14CTR_ModePolicyEEEED0Ev, symObjAddr: 0x3A34, symBinAddr: 0x1000C7808, symSize: 0x4 }
  - { offsetInCU: 0x774D3, offset: 0x134C6A, size: 0x8, addend: 0x0, symName: __ZThn56_N8CryptoPP22AdditiveCipherTemplateINS_20AbstractPolicyHolderINS_28AdditiveCipherAbstractPolicyENS_14CTR_ModePolicyEEEED0Ev, symObjAddr: 0x3A38, symBinAddr: 0x1000C780C, symSize: 0x4 }
  - { offsetInCU: 0x774EE, offset: 0x134C85, size: 0x8, addend: 0x0, symName: __ZThn56_N8CryptoPP22AdditiveCipherTemplateINS_20AbstractPolicyHolderINS_28AdditiveCipherAbstractPolicyENS_14CTR_ModePolicyEEEED0Ev, symObjAddr: 0x3A38, symBinAddr: 0x1000C780C, symSize: 0x4 }
  - { offsetInCU: 0x7750A, offset: 0x134CA1, size: 0x8, addend: 0x0, symName: __ZThn96_N8CryptoPP22AdditiveCipherTemplateINS_20AbstractPolicyHolderINS_28AdditiveCipherAbstractPolicyENS_14CTR_ModePolicyEEEED0Ev, symObjAddr: 0x3A3C, symBinAddr: 0x1000C7810, symSize: 0x4 }
  - { offsetInCU: 0x77525, offset: 0x134CBC, size: 0x8, addend: 0x0, symName: __ZThn96_N8CryptoPP22AdditiveCipherTemplateINS_20AbstractPolicyHolderINS_28AdditiveCipherAbstractPolicyENS_14CTR_ModePolicyEEEED0Ev, symObjAddr: 0x3A3C, symBinAddr: 0x1000C7810, symSize: 0x4 }
  - { offsetInCU: 0x7757F, offset: 0x134D16, size: 0x8, addend: 0x0, symName: __ZN8CryptoPP22AdditiveCipherTemplateINS_20AbstractPolicyHolderINS_28AdditiveCipherAbstractPolicyENS_14CTR_ModePolicyEEEEC2Ev, symObjAddr: 0x3A40, symBinAddr: 0x1000379D8, symSize: 0xB8 }
  - { offsetInCU: 0x777AB, offset: 0x134F42, size: 0x8, addend: 0x0, symName: __ZN8CryptoPP22AdditiveCipherTemplateINS_20AbstractPolicyHolderINS_28AdditiveCipherAbstractPolicyENS_14CTR_ModePolicyEEEE13GenerateBlockEPhm, symObjAddr: 0x3AF8, symBinAddr: 0x100037A90, symSize: 0x22C }
  - { offsetInCU: 0x77F72, offset: 0x135709, size: 0x8, addend: 0x0, symName: __ZN8CryptoPP22AdditiveCipherTemplateINS_20AbstractPolicyHolderINS_28AdditiveCipherAbstractPolicyENS_14CTR_ModePolicyEEEE18KeystreamBufferEndEv, symObjAddr: 0x3D24, symBinAddr: 0x100037CBC, symSize: 0xC }
  - { offsetInCU: 0x77F97, offset: 0x13572E, size: 0x8, addend: 0x0, symName: __ZN8CryptoPP22AdditiveCipherTemplateINS_20AbstractPolicyHolderINS_28AdditiveCipherAbstractPolicyENS_14CTR_ModePolicyEEEE18KeystreamBufferEndEv, symObjAddr: 0x3D24, symBinAddr: 0x100037CBC, symSize: 0xC }
  - { offsetInCU: 0x77FDE, offset: 0x135775, size: 0x8, addend: 0x0, symName: __ZThn96_N8CryptoPP22AdditiveCipherTemplateINS_20AbstractPolicyHolderINS_28AdditiveCipherAbstractPolicyENS_14CTR_ModePolicyEEEE13GenerateBlockEPhm, symObjAddr: 0x3D30, symBinAddr: 0x100037CC8, symSize: 0x8 }
  - { offsetInCU: 0x7802B, offset: 0x1357C2, size: 0x8, addend: 0x0, symName: __ZN8CryptoPP22AdditiveCipherTemplateINS_20AbstractPolicyHolderINS_28AdditiveCipherAbstractPolicyENS_14CTR_ModePolicyEEEE11ProcessDataEPhPKhm, symObjAddr: 0x3D38, symBinAddr: 0x100037CD0, symSize: 0x31C }
  - { offsetInCU: 0x78727, offset: 0x135EBE, size: 0x8, addend: 0x0, symName: __ZN8CryptoPP22AdditiveCipherTemplateINS_20AbstractPolicyHolderINS_28AdditiveCipherAbstractPolicyENS_14CTR_ModePolicyEEEE20KeystreamBufferBeginEv, symObjAddr: 0x4054, symBinAddr: 0x100037FEC, symSize: 0x8 }
  - { offsetInCU: 0x7874C, offset: 0x135EE3, size: 0x8, addend: 0x0, symName: __ZN8CryptoPP22AdditiveCipherTemplateINS_20AbstractPolicyHolderINS_28AdditiveCipherAbstractPolicyENS_14CTR_ModePolicyEEEE20KeystreamBufferBeginEv, symObjAddr: 0x4054, symBinAddr: 0x100037FEC, symSize: 0x8 }
  - { offsetInCU: 0x7876C, offset: 0x135F03, size: 0x8, addend: 0x0, symName: __ZThn8_N8CryptoPP22AdditiveCipherTemplateINS_20AbstractPolicyHolderINS_28AdditiveCipherAbstractPolicyENS_14CTR_ModePolicyEEEE11ProcessDataEPhPKhm, symObjAddr: 0x405C, symBinAddr: 0x100037FF4, symSize: 0x8 }
  - { offsetInCU: 0x787D3, offset: 0x135F6A, size: 0x8, addend: 0x0, symName: __ZN8CryptoPP22AdditiveCipherTemplateINS_20AbstractPolicyHolderINS_28AdditiveCipherAbstractPolicyENS_14CTR_ModePolicyEEEE13ResynchronizeEPKhi, symObjAddr: 0x4064, symBinAddr: 0x100037FFC, symSize: 0xE0 }
  - { offsetInCU: 0x78A4C, offset: 0x1361E3, size: 0x8, addend: 0x0, symName: __ZNK8CryptoPP22AdditiveCipherTemplateINS_20AbstractPolicyHolderINS_28AdditiveCipherAbstractPolicyENS_14CTR_ModePolicyEEEE17GetBufferByteSizeERKS2_, symObjAddr: 0x4144, symBinAddr: 0x1000380DC, symSize: 0x44 }
  - { offsetInCU: 0x78AA2, offset: 0x136239, size: 0x8, addend: 0x0, symName: __ZNK8CryptoPP22AdditiveCipherTemplateINS_20AbstractPolicyHolderINS_28AdditiveCipherAbstractPolicyENS_14CTR_ModePolicyEEEE16OptimalBlockSizeEv, symObjAddr: 0x4188, symBinAddr: 0x100038120, symSize: 0x24 }
  - { offsetInCU: 0x78AFC, offset: 0x136293, size: 0x8, addend: 0x0, symName: __ZThn8_NK8CryptoPP22AdditiveCipherTemplateINS_20AbstractPolicyHolderINS_28AdditiveCipherAbstractPolicyENS_14CTR_ModePolicyEEEE16OptimalBlockSizeEv, symObjAddr: 0x41AC, symBinAddr: 0x100038144, symSize: 0x24 }
  - { offsetInCU: 0x78B4B, offset: 0x1362E2, size: 0x8, addend: 0x0, symName: __ZNK8CryptoPP22AdditiveCipherTemplateINS_20AbstractPolicyHolderINS_28AdditiveCipherAbstractPolicyENS_14CTR_ModePolicyEEEE23GetOptimalNextBlockSizeEv, symObjAddr: 0x41D0, symBinAddr: 0x100038168, symSize: 0x8 }
  - { offsetInCU: 0x78B72, offset: 0x136309, size: 0x8, addend: 0x0, symName: __ZNK8CryptoPP22AdditiveCipherTemplateINS_20AbstractPolicyHolderINS_28AdditiveCipherAbstractPolicyENS_14CTR_ModePolicyEEEE20OptimalDataAlignmentEv, symObjAddr: 0x41D8, symBinAddr: 0x100038170, symSize: 0x24 }
  - { offsetInCU: 0x78BCC, offset: 0x136363, size: 0x8, addend: 0x0, symName: __ZThn8_NK8CryptoPP22AdditiveCipherTemplateINS_20AbstractPolicyHolderINS_28AdditiveCipherAbstractPolicyENS_14CTR_ModePolicyEEEE20OptimalDataAlignmentEv, symObjAddr: 0x41FC, symBinAddr: 0x100038194, symSize: 0x24 }
  - { offsetInCU: 0x78C1B, offset: 0x1363B2, size: 0x8, addend: 0x0, symName: __ZNK8CryptoPP22AdditiveCipherTemplateINS_20AbstractPolicyHolderINS_28AdditiveCipherAbstractPolicyENS_14CTR_ModePolicyEEEE15IsSelfInvertingEv, symObjAddr: 0x4220, symBinAddr: 0x1000381B8, symSize: 0x8 }
  - { offsetInCU: 0x78C42, offset: 0x1363D9, size: 0x8, addend: 0x0, symName: __ZThn8_NK8CryptoPP22AdditiveCipherTemplateINS_20AbstractPolicyHolderINS_28AdditiveCipherAbstractPolicyENS_14CTR_ModePolicyEEEE15IsSelfInvertingEv, symObjAddr: 0x4228, symBinAddr: 0x1000381C0, symSize: 0x8 }
  - { offsetInCU: 0x78C59, offset: 0x1363F0, size: 0x8, addend: 0x0, symName: __ZNK8CryptoPP22AdditiveCipherTemplateINS_20AbstractPolicyHolderINS_28AdditiveCipherAbstractPolicyENS_14CTR_ModePolicyEEEE23IsForwardTransformationEv, symObjAddr: 0x4230, symBinAddr: 0x1000381C8, symSize: 0x8 }
  - { offsetInCU: 0x78C80, offset: 0x136417, size: 0x8, addend: 0x0, symName: __ZThn8_NK8CryptoPP22AdditiveCipherTemplateINS_20AbstractPolicyHolderINS_28AdditiveCipherAbstractPolicyENS_14CTR_ModePolicyEEEE23IsForwardTransformationEv, symObjAddr: 0x4238, symBinAddr: 0x1000381D0, symSize: 0x8 }
  - { offsetInCU: 0x78C97, offset: 0x13642E, size: 0x8, addend: 0x0, symName: __ZNK8CryptoPP22AdditiveCipherTemplateINS_20AbstractPolicyHolderINS_28AdditiveCipherAbstractPolicyENS_14CTR_ModePolicyEEEE14IsRandomAccessEv, symObjAddr: 0x4240, symBinAddr: 0x1000381D8, symSize: 0x24 }
  - { offsetInCU: 0x78CF1, offset: 0x136488, size: 0x8, addend: 0x0, symName: __ZThn8_NK8CryptoPP22AdditiveCipherTemplateINS_20AbstractPolicyHolderINS_28AdditiveCipherAbstractPolicyENS_14CTR_ModePolicyEEEE14IsRandomAccessEv, symObjAddr: 0x4264, symBinAddr: 0x1000381FC, symSize: 0x24 }
  - { offsetInCU: 0x78D40, offset: 0x1364D7, size: 0x8, addend: 0x0, symName: __ZN8CryptoPP22AdditiveCipherTemplateINS_20AbstractPolicyHolderINS_28AdditiveCipherAbstractPolicyENS_14CTR_ModePolicyEEEE4SeekEm, symObjAddr: 0x4288, symBinAddr: 0x100038220, symSize: 0xB4 }
  - { offsetInCU: 0x78E9E, offset: 0x136635, size: 0x8, addend: 0x0, symName: __ZThn8_N8CryptoPP22AdditiveCipherTemplateINS_20AbstractPolicyHolderINS_28AdditiveCipherAbstractPolicyENS_14CTR_ModePolicyEEEE4SeekEm, symObjAddr: 0x433C, symBinAddr: 0x1000382D4, symSize: 0xB4 }
  - { offsetInCU: 0x78FA9, offset: 0x136740, size: 0x8, addend: 0x0, symName: __ZNK8CryptoPP22AdditiveCipherTemplateINS_20AbstractPolicyHolderINS_28AdditiveCipherAbstractPolicyENS_14CTR_ModePolicyEEEE17AlgorithmProviderEv, symObjAddr: 0x43F0, symBinAddr: 0x100038388, symSize: 0x34 }
  - { offsetInCU: 0x7900B, offset: 0x1367A2, size: 0x8, addend: 0x0, symName: __ZThn8_NK8CryptoPP22AdditiveCipherTemplateINS_20AbstractPolicyHolderINS_28AdditiveCipherAbstractPolicyENS_14CTR_ModePolicyEEEE17AlgorithmProviderEv, symObjAddr: 0x4424, symBinAddr: 0x1000383BC, symSize: 0x34 }
  - { offsetInCU: 0x79062, offset: 0x1367F9, size: 0x8, addend: 0x0, symName: __ZThn56_NK8CryptoPP22AdditiveCipherTemplateINS_20AbstractPolicyHolderINS_28AdditiveCipherAbstractPolicyENS_14CTR_ModePolicyEEEE17AlgorithmProviderEv, symObjAddr: 0x4458, symBinAddr: 0x1000383F0, symSize: 0x34 }
  - { offsetInCU: 0x790B9, offset: 0x136850, size: 0x8, addend: 0x0, symName: __ZThn96_NK8CryptoPP22AdditiveCipherTemplateINS_20AbstractPolicyHolderINS_28AdditiveCipherAbstractPolicyENS_14CTR_ModePolicyEEEE17AlgorithmProviderEv, symObjAddr: 0x448C, symBinAddr: 0x100038424, symSize: 0x34 }
  - { offsetInCU: 0x79110, offset: 0x1368A7, size: 0x8, addend: 0x0, symName: __ZN8CryptoPP22AdditiveCipherTemplateINS_20AbstractPolicyHolderINS_28AdditiveCipherAbstractPolicyENS_14CTR_ModePolicyEEEE15UncheckedSetKeyEPKhjRKNS_14NameValuePairsE, symObjAddr: 0x44C0, symBinAddr: 0x100038458, symSize: 0x264 }
  - { offsetInCU: 0x79955, offset: 0x1370EC, size: 0x8, addend: 0x0, symName: __ZN8CryptoPP38CipherModeFinalTemplate_ExternalCipherINS_20ConcretePolicyHolderINS_5EmptyENS_22AdditiveCipherTemplateINS_20AbstractPolicyHolderINS_28AdditiveCipherAbstractPolicyENS_14CTR_ModePolicyEEEEES5_EEEC2Ev, symObjAddr: 0x4724, symBinAddr: 0x1000386BC, symSize: 0xB8 }
  - { offsetInCU: 0x79BBB, offset: 0x137352, size: 0x8, addend: 0x0, symName: __ZN8CryptoPP38CipherModeFinalTemplate_ExternalCipherINS_20ConcretePolicyHolderINS_5EmptyENS_22AdditiveCipherTemplateINS_20AbstractPolicyHolderINS_28AdditiveCipherAbstractPolicyENS_14CTR_ModePolicyEEEEES5_EEEC1Ev, symObjAddr: 0x47DC, symBinAddr: 0x100038774, symSize: 0xB8 }
  - { offsetInCU: 0x79E45, offset: 0x1375DC, size: 0x8, addend: 0x0, symName: __ZN8CryptoPP38CipherModeFinalTemplate_ExternalCipherINS_20ConcretePolicyHolderINS_5EmptyENS_22AdditiveCipherTemplateINS_20AbstractPolicyHolderINS_28AdditiveCipherAbstractPolicyENS_14CTR_ModePolicyEEEEES5_EEEC2ERNS_11BlockCipherE, symObjAddr: 0x4894, symBinAddr: 0x10003882C, symSize: 0xF4 }
  - { offsetInCU: 0x7A0F6, offset: 0x13788D, size: 0x8, addend: 0x0, symName: __ZN8CryptoPP20ConcretePolicyHolderINS_5EmptyENS_22AdditiveCipherTemplateINS_20AbstractPolicyHolderINS_28AdditiveCipherAbstractPolicyENS_14CTR_ModePolicyEEEEES4_ED2Ev, symObjAddr: 0x4988, symBinAddr: 0x100038920, symSize: 0x88 }
  - { offsetInCU: 0x7A2CD, offset: 0x137A64, size: 0x8, addend: 0x0, symName: __ZN8CryptoPP38CipherModeFinalTemplate_ExternalCipherINS_20ConcretePolicyHolderINS_5EmptyENS_22AdditiveCipherTemplateINS_20AbstractPolicyHolderINS_28AdditiveCipherAbstractPolicyENS_14CTR_ModePolicyEEEEES5_EEEC1ERNS_11BlockCipherE, symObjAddr: 0x4A10, symBinAddr: 0x1000389A8, symSize: 0x4 }
  - { offsetInCU: 0x7A306, offset: 0x137A9D, size: 0x8, addend: 0x0, symName: __ZN8CryptoPP38CipherModeFinalTemplate_ExternalCipherINS_20ConcretePolicyHolderINS_5EmptyENS_22AdditiveCipherTemplateINS_20AbstractPolicyHolderINS_28AdditiveCipherAbstractPolicyENS_14CTR_ModePolicyEEEEES5_EEEC1ERNS_11BlockCipherE, symObjAddr: 0x4A10, symBinAddr: 0x1000389A8, symSize: 0x4 }
  - { offsetInCU: 0x7A35C, offset: 0x137AF3, size: 0x8, addend: 0x0, symName: __ZN8CryptoPP38CipherModeFinalTemplate_ExternalCipherINS_20ConcretePolicyHolderINS_5EmptyENS_22AdditiveCipherTemplateINS_20AbstractPolicyHolderINS_28AdditiveCipherAbstractPolicyENS_14CTR_ModePolicyEEEEES5_EEEC2ERNS_11BlockCipherEPKhi, symObjAddr: 0x4A14, symBinAddr: 0x1000389AC, symSize: 0x14C }
  - { offsetInCU: 0x7A6A7, offset: 0x137E3E, size: 0x8, addend: 0x0, symName: __ZN8CryptoPP38CipherModeFinalTemplate_ExternalCipherINS_20ConcretePolicyHolderINS_5EmptyENS_22AdditiveCipherTemplateINS_20AbstractPolicyHolderINS_28AdditiveCipherAbstractPolicyENS_14CTR_ModePolicyEEEEES5_EEEC1ERNS_11BlockCipherEPKhi, symObjAddr: 0x4B60, symBinAddr: 0x100038AF8, symSize: 0x4 }
  - { offsetInCU: 0x7A6FC, offset: 0x137E93, size: 0x8, addend: 0x0, symName: __ZN8CryptoPP38CipherModeFinalTemplate_ExternalCipherINS_20ConcretePolicyHolderINS_5EmptyENS_22AdditiveCipherTemplateINS_20AbstractPolicyHolderINS_28AdditiveCipherAbstractPolicyENS_14CTR_ModePolicyEEEEES5_EEEC1ERNS_11BlockCipherEPKhi, symObjAddr: 0x4B60, symBinAddr: 0x100038AF8, symSize: 0x4 }
  - { offsetInCU: 0x7A88B, offset: 0x138022, size: 0x8, addend: 0x0, symName: __ZNK8CryptoPP38CipherModeFinalTemplate_ExternalCipherINS_20ConcretePolicyHolderINS_5EmptyENS_22AdditiveCipherTemplateINS_20AbstractPolicyHolderINS_28AdditiveCipherAbstractPolicyENS_14CTR_ModePolicyEEEEES5_EEE13AlgorithmNameEv, symObjAddr: 0x4B64, symBinAddr: 0x100038AFC, symSize: 0x1E4 }
  - { offsetInCU: 0x7B8FA, offset: 0x139091, size: 0x8, addend: 0x0, symName: __ZThn8_NK8CryptoPP38CipherModeFinalTemplate_ExternalCipherINS_20ConcretePolicyHolderINS_5EmptyENS_22AdditiveCipherTemplateINS_20AbstractPolicyHolderINS_28AdditiveCipherAbstractPolicyENS_14CTR_ModePolicyEEEEES5_EEE13AlgorithmNameEv, symObjAddr: 0x4EC0, symBinAddr: 0x100038CE0, symSize: 0x8 }
  - { offsetInCU: 0x7B929, offset: 0x1390C0, size: 0x8, addend: 0x0, symName: __ZThn96_NK8CryptoPP38CipherModeFinalTemplate_ExternalCipherINS_20ConcretePolicyHolderINS_5EmptyENS_22AdditiveCipherTemplateINS_20AbstractPolicyHolderINS_28AdditiveCipherAbstractPolicyENS_14CTR_ModePolicyEEEEES5_EEE13AlgorithmNameEv, symObjAddr: 0x4EC8, symBinAddr: 0x100038CE8, symSize: 0x8 }
  - { offsetInCU: 0x7B958, offset: 0x1390EF, size: 0x8, addend: 0x0, symName: __ZNK8CryptoPP38CipherModeFinalTemplate_ExternalCipherINS_20ConcretePolicyHolderINS_5EmptyENS_22AdditiveCipherTemplateINS_20AbstractPolicyHolderINS_28AdditiveCipherAbstractPolicyENS_14CTR_ModePolicyEEEEES5_EEE17AlgorithmProviderEv, symObjAddr: 0x4ED0, symBinAddr: 0x100038CF0, symSize: 0x10 }
  - { offsetInCU: 0x7B9AB, offset: 0x139142, size: 0x8, addend: 0x0, symName: __ZThn8_NK8CryptoPP38CipherModeFinalTemplate_ExternalCipherINS_20ConcretePolicyHolderINS_5EmptyENS_22AdditiveCipherTemplateINS_20AbstractPolicyHolderINS_28AdditiveCipherAbstractPolicyENS_14CTR_ModePolicyEEEEES5_EEE17AlgorithmProviderEv, symObjAddr: 0x4EE0, symBinAddr: 0x100038D00, symSize: 0x10 }
  - { offsetInCU: 0x7B9C6, offset: 0x13915D, size: 0x8, addend: 0x0, symName: __ZThn8_NK8CryptoPP38CipherModeFinalTemplate_ExternalCipherINS_20ConcretePolicyHolderINS_5EmptyENS_22AdditiveCipherTemplateINS_20AbstractPolicyHolderINS_28AdditiveCipherAbstractPolicyENS_14CTR_ModePolicyEEEEES5_EEE17AlgorithmProviderEv, symObjAddr: 0x4EE0, symBinAddr: 0x100038D00, symSize: 0x10 }
  - { offsetInCU: 0x7B9F7, offset: 0x13918E, size: 0x8, addend: 0x0, symName: __ZThn56_NK8CryptoPP38CipherModeFinalTemplate_ExternalCipherINS_20ConcretePolicyHolderINS_5EmptyENS_22AdditiveCipherTemplateINS_20AbstractPolicyHolderINS_28AdditiveCipherAbstractPolicyENS_14CTR_ModePolicyEEEEES5_EEE17AlgorithmProviderEv, symObjAddr: 0x4EF0, symBinAddr: 0x100038D10, symSize: 0x10 }
  - { offsetInCU: 0x7BA12, offset: 0x1391A9, size: 0x8, addend: 0x0, symName: __ZThn56_NK8CryptoPP38CipherModeFinalTemplate_ExternalCipherINS_20ConcretePolicyHolderINS_5EmptyENS_22AdditiveCipherTemplateINS_20AbstractPolicyHolderINS_28AdditiveCipherAbstractPolicyENS_14CTR_ModePolicyEEEEES5_EEE17AlgorithmProviderEv, symObjAddr: 0x4EF0, symBinAddr: 0x100038D10, symSize: 0x10 }
  - { offsetInCU: 0x7BA43, offset: 0x1391DA, size: 0x8, addend: 0x0, symName: __ZThn96_NK8CryptoPP38CipherModeFinalTemplate_ExternalCipherINS_20ConcretePolicyHolderINS_5EmptyENS_22AdditiveCipherTemplateINS_20AbstractPolicyHolderINS_28AdditiveCipherAbstractPolicyENS_14CTR_ModePolicyEEEEES5_EEE17AlgorithmProviderEv, symObjAddr: 0x4F00, symBinAddr: 0x100038D20, symSize: 0x10 }
  - { offsetInCU: 0x7BA5E, offset: 0x1391F5, size: 0x8, addend: 0x0, symName: __ZThn96_NK8CryptoPP38CipherModeFinalTemplate_ExternalCipherINS_20ConcretePolicyHolderINS_5EmptyENS_22AdditiveCipherTemplateINS_20AbstractPolicyHolderINS_28AdditiveCipherAbstractPolicyENS_14CTR_ModePolicyEEEEES5_EEE17AlgorithmProviderEv, symObjAddr: 0x4F00, symBinAddr: 0x100038D20, symSize: 0x10 }
  - { offsetInCU: 0x7BAFF, offset: 0x139296, size: 0x8, addend: 0x0, symName: __ZN8CryptoPP38CipherModeFinalTemplate_ExternalCipherINS_10ECB_OneWayEEC2Ev, symObjAddr: 0x4F10, symBinAddr: 0x100038D30, symSize: 0x64 }
  - { offsetInCU: 0x7BC77, offset: 0x13940E, size: 0x8, addend: 0x0, symName: __ZN8CryptoPP38CipherModeFinalTemplate_ExternalCipherINS_10ECB_OneWayEEC1Ev, symObjAddr: 0x4F74, symBinAddr: 0x100038D94, symSize: 0x64 }
  - { offsetInCU: 0x7BE14, offset: 0x1395AB, size: 0x8, addend: 0x0, symName: __ZN8CryptoPP38CipherModeFinalTemplate_ExternalCipherINS_10ECB_OneWayEEC2ERNS_11BlockCipherE, symObjAddr: 0x4FD8, symBinAddr: 0x100038DF8, symSize: 0x9C }
  - { offsetInCU: 0x7BFFF, offset: 0x139796, size: 0x8, addend: 0x0, symName: __ZN8CryptoPP27BlockOrientedCipherModeBaseD2Ev, symObjAddr: 0x368FC, symBinAddr: 0x100068024, symSize: 0xB8 }
  - { offsetInCU: 0x7C297, offset: 0x139A2E, size: 0x8, addend: 0x0, symName: __ZN8CryptoPP38CipherModeFinalTemplate_ExternalCipherINS_10ECB_OneWayEEC1ERNS_11BlockCipherE, symObjAddr: 0x5074, symBinAddr: 0x100038E94, symSize: 0x9C }
  - { offsetInCU: 0x7C4B4, offset: 0x139C4B, size: 0x8, addend: 0x0, symName: __ZN8CryptoPP38CipherModeFinalTemplate_ExternalCipherINS_10ECB_OneWayEEC2ERNS_11BlockCipherEPKhi, symObjAddr: 0x5110, symBinAddr: 0x100038F30, symSize: 0xF4 }
  - { offsetInCU: 0x7C740, offset: 0x139ED7, size: 0x8, addend: 0x0, symName: __ZN8CryptoPP38CipherModeFinalTemplate_ExternalCipherINS_10ECB_OneWayEEC1ERNS_11BlockCipherEPKhi, symObjAddr: 0x5204, symBinAddr: 0x100039024, symSize: 0x4 }
  - { offsetInCU: 0x7C795, offset: 0x139F2C, size: 0x8, addend: 0x0, symName: __ZN8CryptoPP38CipherModeFinalTemplate_ExternalCipherINS_10ECB_OneWayEEC1ERNS_11BlockCipherEPKhi, symObjAddr: 0x5204, symBinAddr: 0x100039024, symSize: 0x4 }
  - { offsetInCU: 0x7C7C1, offset: 0x139F58, size: 0x8, addend: 0x0, symName: __ZNK8CryptoPP38CipherModeFinalTemplate_ExternalCipherINS_10ECB_OneWayEE13AlgorithmNameEv, symObjAddr: 0x5208, symBinAddr: 0x100039028, symSize: 0x1E4 }
  - { offsetInCU: 0x7D7CD, offset: 0x13AF64, size: 0x8, addend: 0x0, symName: __ZThn8_NK8CryptoPP38CipherModeFinalTemplate_ExternalCipherINS_10ECB_OneWayEE13AlgorithmNameEv, symObjAddr: 0x53EC, symBinAddr: 0x10003920C, symSize: 0x8 }
  - { offsetInCU: 0x7D7FC, offset: 0x13AF93, size: 0x8, addend: 0x0, symName: __ZNK8CryptoPP38CipherModeFinalTemplate_ExternalCipherINS_10ECB_OneWayEE17AlgorithmProviderEv, symObjAddr: 0x53F4, symBinAddr: 0x100039214, symSize: 0x10 }
  - { offsetInCU: 0x7D84F, offset: 0x13AFE6, size: 0x8, addend: 0x0, symName: __ZThn8_NK8CryptoPP38CipherModeFinalTemplate_ExternalCipherINS_10ECB_OneWayEE17AlgorithmProviderEv, symObjAddr: 0x5404, symBinAddr: 0x100039224, symSize: 0x10 }
  - { offsetInCU: 0x7D86A, offset: 0x13B001, size: 0x8, addend: 0x0, symName: __ZThn8_NK8CryptoPP38CipherModeFinalTemplate_ExternalCipherINS_10ECB_OneWayEE17AlgorithmProviderEv, symObjAddr: 0x5404, symBinAddr: 0x100039224, symSize: 0x10 }
  - { offsetInCU: 0x7D902, offset: 0x13B099, size: 0x8, addend: 0x0, symName: __ZN8CryptoPP38CipherModeFinalTemplate_ExternalCipherINS_14CBC_EncryptionEEC2Ev, symObjAddr: 0x5414, symBinAddr: 0x100039234, symSize: 0x64 }
  - { offsetInCU: 0x7DA91, offset: 0x13B228, size: 0x8, addend: 0x0, symName: __ZN8CryptoPP38CipherModeFinalTemplate_ExternalCipherINS_14CBC_EncryptionEEC1Ev, symObjAddr: 0x5478, symBinAddr: 0x100039298, symSize: 0x64 }
  - { offsetInCU: 0x7DC62, offset: 0x13B3F9, size: 0x8, addend: 0x0, symName: __ZN8CryptoPP38CipherModeFinalTemplate_ExternalCipherINS_14CBC_EncryptionEEC2ERNS_11BlockCipherE, symObjAddr: 0x54DC, symBinAddr: 0x1000392FC, symSize: 0x9C }
  - { offsetInCU: 0x7DEB2, offset: 0x13B649, size: 0x8, addend: 0x0, symName: __ZN8CryptoPP38CipherModeFinalTemplate_ExternalCipherINS_14CBC_EncryptionEEC1ERNS_11BlockCipherE, symObjAddr: 0x5578, symBinAddr: 0x100039398, symSize: 0x9C }
  - { offsetInCU: 0x7E10D, offset: 0x13B8A4, size: 0x8, addend: 0x0, symName: __ZN8CryptoPP38CipherModeFinalTemplate_ExternalCipherINS_14CBC_EncryptionEEC2ERNS_11BlockCipherEPKhi, symObjAddr: 0x5614, symBinAddr: 0x100039434, symSize: 0xF4 }
  - { offsetInCU: 0x7E3D7, offset: 0x13BB6E, size: 0x8, addend: 0x0, symName: __ZN8CryptoPP38CipherModeFinalTemplate_ExternalCipherINS_14CBC_EncryptionEEC1ERNS_11BlockCipherEPKhi, symObjAddr: 0x5708, symBinAddr: 0x100039528, symSize: 0x4 }
  - { offsetInCU: 0x7E42C, offset: 0x13BBC3, size: 0x8, addend: 0x0, symName: __ZN8CryptoPP38CipherModeFinalTemplate_ExternalCipherINS_14CBC_EncryptionEEC1ERNS_11BlockCipherEPKhi, symObjAddr: 0x5708, symBinAddr: 0x100039528, symSize: 0x4 }
  - { offsetInCU: 0x7E458, offset: 0x13BBEF, size: 0x8, addend: 0x0, symName: __ZNK8CryptoPP38CipherModeFinalTemplate_ExternalCipherINS_14CBC_EncryptionEE13AlgorithmNameEv, symObjAddr: 0x570C, symBinAddr: 0x10003952C, symSize: 0x1E4 }
  - { offsetInCU: 0x7F464, offset: 0x13CBFB, size: 0x8, addend: 0x0, symName: __ZThn8_NK8CryptoPP38CipherModeFinalTemplate_ExternalCipherINS_14CBC_EncryptionEE13AlgorithmNameEv, symObjAddr: 0x58F0, symBinAddr: 0x100039710, symSize: 0x8 }
  - { offsetInCU: 0x7F493, offset: 0x13CC2A, size: 0x8, addend: 0x0, symName: __ZNK8CryptoPP38CipherModeFinalTemplate_ExternalCipherINS_14CBC_EncryptionEE17AlgorithmProviderEv, symObjAddr: 0x58F8, symBinAddr: 0x100039718, symSize: 0x10 }
  - { offsetInCU: 0x7F4E6, offset: 0x13CC7D, size: 0x8, addend: 0x0, symName: __ZThn8_NK8CryptoPP38CipherModeFinalTemplate_ExternalCipherINS_14CBC_EncryptionEE17AlgorithmProviderEv, symObjAddr: 0x5908, symBinAddr: 0x100039728, symSize: 0x10 }
  - { offsetInCU: 0x7F501, offset: 0x13CC98, size: 0x8, addend: 0x0, symName: __ZThn8_NK8CryptoPP38CipherModeFinalTemplate_ExternalCipherINS_14CBC_EncryptionEE17AlgorithmProviderEv, symObjAddr: 0x5908, symBinAddr: 0x100039728, symSize: 0x10 }
  - { offsetInCU: 0x7F568, offset: 0x13CCFF, size: 0x8, addend: 0x0, symName: __ZN8CryptoPP38CipherModeFinalTemplate_ExternalCipherINS_14CBC_DecryptionEEC2Ev, symObjAddr: 0x5918, symBinAddr: 0x100039738, symSize: 0x6C }
  - { offsetInCU: 0x7F759, offset: 0x13CEF0, size: 0x8, addend: 0x0, symName: __ZN8CryptoPP38CipherModeFinalTemplate_ExternalCipherINS_14CBC_DecryptionEEC1Ev, symObjAddr: 0x5984, symBinAddr: 0x1000397A4, symSize: 0x6C }
  - { offsetInCU: 0x7F952, offset: 0x13D0E9, size: 0x8, addend: 0x0, symName: __ZN8CryptoPP38CipherModeFinalTemplate_ExternalCipherINS_14CBC_DecryptionEEC2ERNS_11BlockCipherE, symObjAddr: 0x59F0, symBinAddr: 0x100039810, symSize: 0xA4 }
  - { offsetInCU: 0x7FB8F, offset: 0x13D326, size: 0x8, addend: 0x0, symName: __ZN8CryptoPP14CBC_DecryptionD2Ev, symObjAddr: 0x5A94, symBinAddr: 0x1000398B4, symSize: 0x78 }
  - { offsetInCU: 0x7FD6D, offset: 0x13D504, size: 0x8, addend: 0x0, symName: __ZN8CryptoPP38CipherModeFinalTemplate_ExternalCipherINS_14CBC_DecryptionEEC1ERNS_11BlockCipherE, symObjAddr: 0x5B0C, symBinAddr: 0x10003992C, symSize: 0x100 }
  - { offsetInCU: 0x80146, offset: 0x13D8DD, size: 0x8, addend: 0x0, symName: __ZN8CryptoPP38CipherModeFinalTemplate_ExternalCipherINS_14CBC_DecryptionEEC2ERNS_11BlockCipherEPKhi, symObjAddr: 0x5C0C, symBinAddr: 0x100039A2C, symSize: 0xFC }
  - { offsetInCU: 0x80424, offset: 0x13DBBB, size: 0x8, addend: 0x0, symName: __ZN8CryptoPP38CipherModeFinalTemplate_ExternalCipherINS_14CBC_DecryptionEEC1ERNS_11BlockCipherEPKhi, symObjAddr: 0x5D08, symBinAddr: 0x100039B28, symSize: 0x4 }
  - { offsetInCU: 0x80479, offset: 0x13DC10, size: 0x8, addend: 0x0, symName: __ZN8CryptoPP38CipherModeFinalTemplate_ExternalCipherINS_14CBC_DecryptionEEC1ERNS_11BlockCipherEPKhi, symObjAddr: 0x5D08, symBinAddr: 0x100039B28, symSize: 0x4 }
  - { offsetInCU: 0x804A5, offset: 0x13DC3C, size: 0x8, addend: 0x0, symName: __ZNK8CryptoPP38CipherModeFinalTemplate_ExternalCipherINS_14CBC_DecryptionEE13AlgorithmNameEv, symObjAddr: 0x5D0C, symBinAddr: 0x100039B2C, symSize: 0x1E4 }
  - { offsetInCU: 0x814B1, offset: 0x13EC48, size: 0x8, addend: 0x0, symName: __ZThn8_NK8CryptoPP38CipherModeFinalTemplate_ExternalCipherINS_14CBC_DecryptionEE13AlgorithmNameEv, symObjAddr: 0x5EF0, symBinAddr: 0x100039D10, symSize: 0x8 }
  - { offsetInCU: 0x814E0, offset: 0x13EC77, size: 0x8, addend: 0x0, symName: __ZNK8CryptoPP38CipherModeFinalTemplate_ExternalCipherINS_14CBC_DecryptionEE17AlgorithmProviderEv, symObjAddr: 0x5EF8, symBinAddr: 0x100039D18, symSize: 0x10 }
  - { offsetInCU: 0x81533, offset: 0x13ECCA, size: 0x8, addend: 0x0, symName: __ZThn8_NK8CryptoPP38CipherModeFinalTemplate_ExternalCipherINS_14CBC_DecryptionEE17AlgorithmProviderEv, symObjAddr: 0x5F08, symBinAddr: 0x100039D28, symSize: 0x10 }
  - { offsetInCU: 0x8154E, offset: 0x13ECE5, size: 0x8, addend: 0x0, symName: __ZThn8_NK8CryptoPP38CipherModeFinalTemplate_ExternalCipherINS_14CBC_DecryptionEE17AlgorithmProviderEv, symObjAddr: 0x5F08, symBinAddr: 0x100039D28, symSize: 0x10 }
  - { offsetInCU: 0x815BF, offset: 0x13ED56, size: 0x8, addend: 0x0, symName: __ZN8CryptoPP38CipherModeFinalTemplate_ExternalCipherINS_18CBC_CTS_EncryptionEEC2Ev, symObjAddr: 0x5F18, symBinAddr: 0x100039D38, symSize: 0x64 }
  - { offsetInCU: 0x81765, offset: 0x13EEFC, size: 0x8, addend: 0x0, symName: __ZN8CryptoPP38CipherModeFinalTemplate_ExternalCipherINS_18CBC_CTS_EncryptionEEC1Ev, symObjAddr: 0x5F7C, symBinAddr: 0x100039D9C, symSize: 0x64 }
  - { offsetInCU: 0x81930, offset: 0x13F0C7, size: 0x8, addend: 0x0, symName: __ZN8CryptoPP38CipherModeFinalTemplate_ExternalCipherINS_18CBC_CTS_EncryptionEEC2ERNS_11BlockCipherE, symObjAddr: 0x5FE0, symBinAddr: 0x100039E00, symSize: 0x9C }
  - { offsetInCU: 0x81BBE, offset: 0x13F355, size: 0x8, addend: 0x0, symName: __ZN8CryptoPP38CipherModeFinalTemplate_ExternalCipherINS_18CBC_CTS_EncryptionEEC1ERNS_11BlockCipherE, symObjAddr: 0x607C, symBinAddr: 0x100039E9C, symSize: 0x9C }
  - { offsetInCU: 0x81E57, offset: 0x13F5EE, size: 0x8, addend: 0x0, symName: __ZN8CryptoPP38CipherModeFinalTemplate_ExternalCipherINS_18CBC_CTS_EncryptionEEC2ERNS_11BlockCipherEPKhi, symObjAddr: 0x6118, symBinAddr: 0x100039F38, symSize: 0xF4 }
  - { offsetInCU: 0x8215F, offset: 0x13F8F6, size: 0x8, addend: 0x0, symName: __ZN8CryptoPP38CipherModeFinalTemplate_ExternalCipherINS_18CBC_CTS_EncryptionEEC1ERNS_11BlockCipherEPKhi, symObjAddr: 0x620C, symBinAddr: 0x10003A02C, symSize: 0x4 }
  - { offsetInCU: 0x821B4, offset: 0x13F94B, size: 0x8, addend: 0x0, symName: __ZN8CryptoPP38CipherModeFinalTemplate_ExternalCipherINS_18CBC_CTS_EncryptionEEC1ERNS_11BlockCipherEPKhi, symObjAddr: 0x620C, symBinAddr: 0x10003A02C, symSize: 0x4 }
  - { offsetInCU: 0x821E0, offset: 0x13F977, size: 0x8, addend: 0x0, symName: __ZNK8CryptoPP38CipherModeFinalTemplate_ExternalCipherINS_18CBC_CTS_EncryptionEE13AlgorithmNameEv, symObjAddr: 0x6210, symBinAddr: 0x10003A030, symSize: 0x1F8 }
  - { offsetInCU: 0x832AC, offset: 0x140A43, size: 0x8, addend: 0x0, symName: __ZThn8_NK8CryptoPP38CipherModeFinalTemplate_ExternalCipherINS_18CBC_CTS_EncryptionEE13AlgorithmNameEv, symObjAddr: 0x6408, symBinAddr: 0x10003A228, symSize: 0x8 }
  - { offsetInCU: 0x832DB, offset: 0x140A72, size: 0x8, addend: 0x0, symName: __ZNK8CryptoPP38CipherModeFinalTemplate_ExternalCipherINS_18CBC_CTS_EncryptionEE17AlgorithmProviderEv, symObjAddr: 0x6410, symBinAddr: 0x10003A230, symSize: 0x10 }
  - { offsetInCU: 0x8332E, offset: 0x140AC5, size: 0x8, addend: 0x0, symName: __ZThn8_NK8CryptoPP38CipherModeFinalTemplate_ExternalCipherINS_18CBC_CTS_EncryptionEE17AlgorithmProviderEv, symObjAddr: 0x6420, symBinAddr: 0x10003A240, symSize: 0x10 }
  - { offsetInCU: 0x83349, offset: 0x140AE0, size: 0x8, addend: 0x0, symName: __ZThn8_NK8CryptoPP38CipherModeFinalTemplate_ExternalCipherINS_18CBC_CTS_EncryptionEE17AlgorithmProviderEv, symObjAddr: 0x6420, symBinAddr: 0x10003A240, symSize: 0x10 }
  - { offsetInCU: 0x833BA, offset: 0x140B51, size: 0x8, addend: 0x0, symName: __ZN8CryptoPP38CipherModeFinalTemplate_ExternalCipherINS_18CBC_CTS_DecryptionEEC2Ev, symObjAddr: 0x6430, symBinAddr: 0x10003A250, symSize: 0x6C }
  - { offsetInCU: 0x835C2, offset: 0x140D59, size: 0x8, addend: 0x0, symName: __ZN8CryptoPP38CipherModeFinalTemplate_ExternalCipherINS_18CBC_CTS_DecryptionEEC1Ev, symObjAddr: 0x649C, symBinAddr: 0x10003A2BC, symSize: 0x6C }
  - { offsetInCU: 0x837D2, offset: 0x140F69, size: 0x8, addend: 0x0, symName: __ZN8CryptoPP38CipherModeFinalTemplate_ExternalCipherINS_18CBC_CTS_DecryptionEEC2ERNS_11BlockCipherE, symObjAddr: 0x6508, symBinAddr: 0x10003A328, symSize: 0xA4 }
  - { offsetInCU: 0x83A2E, offset: 0x1411C5, size: 0x8, addend: 0x0, symName: __ZN8CryptoPP18CBC_CTS_DecryptionD2Ev, symObjAddr: 0x65AC, symBinAddr: 0x10003A3CC, symSize: 0x78 }
  - { offsetInCU: 0x83C30, offset: 0x1413C7, size: 0x8, addend: 0x0, symName: __ZN8CryptoPP38CipherModeFinalTemplate_ExternalCipherINS_18CBC_CTS_DecryptionEEC1ERNS_11BlockCipherE, symObjAddr: 0x6624, symBinAddr: 0x10003A444, symSize: 0x100 }
  - { offsetInCU: 0x84047, offset: 0x1417DE, size: 0x8, addend: 0x0, symName: __ZN8CryptoPP38CipherModeFinalTemplate_ExternalCipherINS_18CBC_CTS_DecryptionEEC2ERNS_11BlockCipherEPKhi, symObjAddr: 0x6724, symBinAddr: 0x10003A544, symSize: 0xFC }
  - { offsetInCU: 0x84344, offset: 0x141ADB, size: 0x8, addend: 0x0, symName: __ZN8CryptoPP38CipherModeFinalTemplate_ExternalCipherINS_18CBC_CTS_DecryptionEEC1ERNS_11BlockCipherEPKhi, symObjAddr: 0x6820, symBinAddr: 0x10003A640, symSize: 0x4 }
  - { offsetInCU: 0x84399, offset: 0x141B30, size: 0x8, addend: 0x0, symName: __ZN8CryptoPP38CipherModeFinalTemplate_ExternalCipherINS_18CBC_CTS_DecryptionEEC1ERNS_11BlockCipherEPKhi, symObjAddr: 0x6820, symBinAddr: 0x10003A640, symSize: 0x4 }
  - { offsetInCU: 0x843C5, offset: 0x141B5C, size: 0x8, addend: 0x0, symName: __ZNK8CryptoPP38CipherModeFinalTemplate_ExternalCipherINS_18CBC_CTS_DecryptionEE13AlgorithmNameEv, symObjAddr: 0x6824, symBinAddr: 0x10003A644, symSize: 0x1E4 }
  - { offsetInCU: 0x853D1, offset: 0x142B68, size: 0x8, addend: 0x0, symName: __ZThn8_NK8CryptoPP38CipherModeFinalTemplate_ExternalCipherINS_18CBC_CTS_DecryptionEE13AlgorithmNameEv, symObjAddr: 0x6A08, symBinAddr: 0x10003A828, symSize: 0x8 }
  - { offsetInCU: 0x85400, offset: 0x142B97, size: 0x8, addend: 0x0, symName: __ZNK8CryptoPP38CipherModeFinalTemplate_ExternalCipherINS_18CBC_CTS_DecryptionEE17AlgorithmProviderEv, symObjAddr: 0x6A10, symBinAddr: 0x10003A830, symSize: 0x10 }
  - { offsetInCU: 0x85453, offset: 0x142BEA, size: 0x8, addend: 0x0, symName: __ZThn8_NK8CryptoPP38CipherModeFinalTemplate_ExternalCipherINS_18CBC_CTS_DecryptionEE17AlgorithmProviderEv, symObjAddr: 0x6A20, symBinAddr: 0x10003A840, symSize: 0x10 }
  - { offsetInCU: 0x8546E, offset: 0x142C05, size: 0x8, addend: 0x0, symName: __ZThn8_NK8CryptoPP38CipherModeFinalTemplate_ExternalCipherINS_18CBC_CTS_DecryptionEE17AlgorithmProviderEv, symObjAddr: 0x6A20, symBinAddr: 0x10003A840, symSize: 0x10 }
  - { offsetInCU: 0x8549F, offset: 0x142C36, size: 0x8, addend: 0x0, symName: __ZN8CryptoPP13AbstractGroupINS_7IntegerEED2Ev, symObjAddr: 0x6A30, symBinAddr: 0x10003A850, symSize: 0x4 }
  - { offsetInCU: 0x854C7, offset: 0x142C5E, size: 0x8, addend: 0x0, symName: __ZN8CryptoPP13AbstractGroupINS_7IntegerEED1Ev, symObjAddr: 0x6A34, symBinAddr: 0x1000C7814, symSize: 0x4 }
  - { offsetInCU: 0x854EF, offset: 0x142C86, size: 0x8, addend: 0x0, symName: __ZN8CryptoPP13AbstractGroupINS_7IntegerEED0Ev, symObjAddr: 0x6A38, symBinAddr: 0x1000C7818, symSize: 0x4 }
  - { offsetInCU: 0x85517, offset: 0x142CAE, size: 0x8, addend: 0x0, symName: __ZNK8CryptoPP13AbstractGroupINS_7IntegerEE15InversionIsFastEv, symObjAddr: 0x6A3C, symBinAddr: 0x10003A854, symSize: 0x8 }
  - { offsetInCU: 0x8553E, offset: 0x142CD5, size: 0x8, addend: 0x0, symName: __ZNK8CryptoPP13AbstractGroupINS_7IntegerEE6DoubleERKS1_, symObjAddr: 0x6A44, symBinAddr: 0x10003A85C, symSize: 0x10 }
  - { offsetInCU: 0x8563A, offset: 0x142DD1, size: 0x8, addend: 0x0, symName: __ZNK8CryptoPP13AbstractGroupINS_7IntegerEE8SubtractERKS1_S4_, symObjAddr: 0x6A54, symBinAddr: 0x10003A86C, symSize: 0xB8 }
  - { offsetInCU: 0x858C4, offset: 0x14305B, size: 0x8, addend: 0x0, symName: __ZNK8CryptoPP13AbstractGroupINS_7IntegerEE10AccumulateERS1_RKS1_, symObjAddr: 0x6B68, symBinAddr: 0x10003A924, symSize: 0x30 }
  - { offsetInCU: 0x85932, offset: 0x1430C9, size: 0x8, addend: 0x0, symName: __ZNK8CryptoPP13AbstractGroupINS_7IntegerEE6ReduceERS1_RKS1_, symObjAddr: 0x6B98, symBinAddr: 0x10003A954, symSize: 0x30 }
  - { offsetInCU: 0x859A0, offset: 0x143137, size: 0x8, addend: 0x0, symName: __ZNK8CryptoPP13AbstractGroupINS_7IntegerEE14ScalarMultiplyERKS1_S4_, symObjAddr: 0x6BC8, symBinAddr: 0x10003A984, symSize: 0x70 }
  - { offsetInCU: 0x85BA9, offset: 0x143340, size: 0x8, addend: 0x0, symName: __ZNK8CryptoPP13AbstractGroupINS_7IntegerEE21CascadeScalarMultiplyERKS1_S4_S4_S4_, symObjAddr: 0x6C38, symBinAddr: 0x10003A9F4, symSize: 0x68C }
  - { offsetInCU: 0x862FC, offset: 0x143A93, size: 0x8, addend: 0x0, symName: __ZNSt3__16vectorIN8CryptoPP7IntegerENS_9allocatorIS2_EEEC1Em, symObjAddr: 0x72C4, symBinAddr: 0x10003B080, symSize: 0xE8 }
  - { offsetInCU: 0x866FD, offset: 0x143E94, size: 0x8, addend: 0x0, symName: __ZNSt3__16vectorIN8CryptoPP7IntegerENS_9allocatorIS2_EEED1B7v160006Ev, symObjAddr: 0x73AC, symBinAddr: 0x10003B168, symSize: 0x6C }
  - { offsetInCU: 0x86A94, offset: 0x14422B, size: 0x8, addend: 0x0, symName: __ZNKSt3__16vectorIN8CryptoPP7IntegerENS_9allocatorIS2_EEE20__throw_length_errorB7v160006Ev, symObjAddr: 0x3A10C, symBinAddr: 0x10006AAD4, symSize: 0x14 }
  - { offsetInCU: 0x87067, offset: 0x1447FE, size: 0x8, addend: 0x0, symName: __ZNK8CryptoPP13AbstractGroupINS_7IntegerEE20SimultaneousMultiplyEPS1_RKS1_PS4_j, symObjAddr: 0x7418, symBinAddr: 0x10003B1D4, symSize: 0x794 }
  - { offsetInCU: 0x884F8, offset: 0x145C8F, size: 0x8, addend: 0x0, symName: __ZNSt3__16vectorINS0_IN8CryptoPP7IntegerENS_9allocatorIS2_EEEENS3_IS5_EEEC1Em, symObjAddr: 0x7BAC, symBinAddr: 0x10003B968, symSize: 0x148 }
  - { offsetInCU: 0x88A6B, offset: 0x146202, size: 0x8, addend: 0x0, symName: __ZNSt3__16vectorIN8CryptoPP12WindowSliderENS_9allocatorIS2_EEE7reserveEm, symObjAddr: 0x7CF4, symBinAddr: 0x10003BAB0, symSize: 0x120 }
  - { offsetInCU: 0x88EE6, offset: 0x14667D, size: 0x8, addend: 0x0, symName: __ZNSt3__16vectorIN8CryptoPP7IntegerENS_9allocatorIS2_EEE8__appendEmRKS2_, symObjAddr: 0x44E18, symBinAddr: 0x100074C4C, symSize: 0x238 }
  - { offsetInCU: 0x8976B, offset: 0x146F02, size: 0x8, addend: 0x0, symName: __ZN8CryptoPP12WindowSliderC2ERKNS_7IntegerEbj, symObjAddr: 0x369B4, symBinAddr: 0x1000680DC, symSize: 0xF0 }
  - { offsetInCU: 0x8980D, offset: 0x146FA4, size: 0x8, addend: 0x0, symName: __ZNSt3__16vectorIN8CryptoPP12WindowSliderENS_9allocatorIS2_EEE21__push_back_slow_pathIS2_EEvOT_, symObjAddr: 0x44C24, symBinAddr: 0x100074A58, symSize: 0x1F4 }
  - { offsetInCU: 0x89EBE, offset: 0x147655, size: 0x8, addend: 0x0, symName: __ZN8CryptoPP12WindowSlider14FindNextWindowEv, symObjAddr: 0x7EF0, symBinAddr: 0x10003BCAC, symSize: 0x134 }
  - { offsetInCU: 0x89F1B, offset: 0x1476B2, size: 0x8, addend: 0x0, symName: __ZNSt3__19allocatorIN8CryptoPP12WindowSliderEE7destroyB7v160006EPS2_, symObjAddr: 0x44974, symBinAddr: 0x1000747A8, symSize: 0xE4 }
  - { offsetInCU: 0x8A34A, offset: 0x147AE1, size: 0x8, addend: 0x0, symName: __ZN8CryptoPP12WindowSliderD1Ev, symObjAddr: 0x7E14, symBinAddr: 0x10003BBD0, symSize: 0xDC }
  - { offsetInCU: 0x8A753, offset: 0x147EEA, size: 0x8, addend: 0x0, symName: __ZNSt3__16vectorIN8CryptoPP12WindowSliderENS_9allocatorIS2_EEED1B7v160006Ev, symObjAddr: 0x8024, symBinAddr: 0x10003BDE0, symSize: 0x64 }
  - { offsetInCU: 0x8A903, offset: 0x14809A, size: 0x8, addend: 0x0, symName: __ZNSt3__16vectorINS0_IN8CryptoPP7IntegerENS_9allocatorIS2_EEEENS3_IS5_EEED1B7v160006Ev, symObjAddr: 0x8088, symBinAddr: 0x10003BE44, symSize: 0xAC }
  - { offsetInCU: 0x8AE4D, offset: 0x1485E4, size: 0x8, addend: 0x0, symName: __ZNKSt3__16vectorINS0_IN8CryptoPP7IntegerENS_9allocatorIS2_EEEENS3_IS5_EEE20__throw_length_errorB7v160006Ev, symObjAddr: 0x44960, symBinAddr: 0x100074794, symSize: 0x14 }
  - { offsetInCU: 0x8AE76, offset: 0x14860D, size: 0x8, addend: 0x0, symName: __ZNSt3__19allocatorIN8CryptoPP12WindowSliderEE7destroyB7v160006EPS2_, symObjAddr: 0x44974, symBinAddr: 0x1000747A8, symSize: 0xE4 }
  - { offsetInCU: 0x8B0E9, offset: 0x148880, size: 0x8, addend: 0x0, symName: __ZNKSt3__16vectorIN8CryptoPP12WindowSliderENS_9allocatorIS2_EEE20__throw_length_errorB7v160006Ev, symObjAddr: 0x44A58, symBinAddr: 0x10007488C, symSize: 0x14 }
  - { offsetInCU: 0x8B112, offset: 0x1488A9, size: 0x8, addend: 0x0, symName: __ZNSt3__114__split_bufferIN8CryptoPP12WindowSliderERNS_9allocatorIS2_EEED1Ev, symObjAddr: 0x44A6C, symBinAddr: 0x1000748A0, symSize: 0x54 }
  - { offsetInCU: 0x8B11E, offset: 0x1488B5, size: 0x8, addend: 0x0, symName: __ZNSt3__114__split_bufferIN8CryptoPP12WindowSliderERNS_9allocatorIS2_EEED1Ev, symObjAddr: 0x44A6C, symBinAddr: 0x1000748A0, symSize: 0x54 }
  - { offsetInCU: 0x8B358, offset: 0x148AEF, size: 0x8, addend: 0x0, symName: __ZN8CryptoPP12AbstractRingINS_7IntegerEEC2Ev, symObjAddr: 0x8134, symBinAddr: 0x10003BEF0, symSize: 0x24 }
  - { offsetInCU: 0x8B394, offset: 0x148B2B, size: 0x8, addend: 0x0, symName: __ZN8CryptoPP12AbstractRingINS_7IntegerEEC2ERKS2_, symObjAddr: 0x8158, symBinAddr: 0x10003BF14, symSize: 0x24 }
  - { offsetInCU: 0x8B3D8, offset: 0x148B6F, size: 0x8, addend: 0x0, symName: __ZN8CryptoPP12AbstractRingINS_7IntegerEEaSERKS2_, symObjAddr: 0x817C, symBinAddr: 0x10003BF38, symSize: 0x4 }
  - { offsetInCU: 0x8B409, offset: 0x148BA0, size: 0x8, addend: 0x0, symName: __ZNK8CryptoPP12AbstractRingINS_7IntegerEE6SquareERKS1_, symObjAddr: 0x8180, symBinAddr: 0x10003BF3C, symSize: 0x10 }
  - { offsetInCU: 0x8B461, offset: 0x148BF8, size: 0x8, addend: 0x0, symName: __ZNK8CryptoPP12AbstractRingINS_7IntegerEE6DivideERKS1_S4_, symObjAddr: 0x8190, symBinAddr: 0x10003BF4C, symSize: 0xB8 }
  - { offsetInCU: 0x8B634, offset: 0x148DCB, size: 0x8, addend: 0x0, symName: __ZNK8CryptoPP12AbstractRingINS_7IntegerEE12ExponentiateERKS1_S4_, symObjAddr: 0x8248, symBinAddr: 0x10003C004, symSize: 0x70 }
  - { offsetInCU: 0x8B6D4, offset: 0x148E6B, size: 0x8, addend: 0x0, symName: __ZNK8CryptoPP12AbstractRingINS_7IntegerEE19CascadeExponentiateERKS1_S4_S4_S4_, symObjAddr: 0x82B8, symBinAddr: 0x10003C074, symSize: 0x5C }
  - { offsetInCU: 0x8B785, offset: 0x148F1C, size: 0x8, addend: 0x0, symName: __ZNK8CryptoPP12AbstractRingINS_7IntegerEE24SimultaneousExponentiateEPS1_RKS1_PS4_j, symObjAddr: 0x8314, symBinAddr: 0x10003C0D0, symSize: 0x4C }
  - { offsetInCU: 0x8B82F, offset: 0x148FC6, size: 0x8, addend: 0x0, symName: __ZNK8CryptoPP12AbstractRingINS_7IntegerEE19MultiplicativeGroupEv, symObjAddr: 0x8360, symBinAddr: 0x10003C11C, symSize: 0x8 }
  - { offsetInCU: 0x8B856, offset: 0x148FED, size: 0x8, addend: 0x0, symName: __ZNK8CryptoPP12AbstractRingINS_7IntegerEE20MultiplicativeGroupT7GetRingEv, symObjAddr: 0x8368, symBinAddr: 0x10003C124, symSize: 0x8 }
  - { offsetInCU: 0x8B894, offset: 0x14902B, size: 0x8, addend: 0x0, symName: __ZNK8CryptoPP12AbstractRingINS_7IntegerEE20MultiplicativeGroupT5EqualERKS1_S5_, symObjAddr: 0x8370, symBinAddr: 0x10003C12C, symSize: 0x10 }
  - { offsetInCU: 0x8B8D7, offset: 0x14906E, size: 0x8, addend: 0x0, symName: __ZNK8CryptoPP12AbstractRingINS_7IntegerEE20MultiplicativeGroupT5EqualERKS1_S5_, symObjAddr: 0x8370, symBinAddr: 0x10003C12C, symSize: 0x10 }
  - { offsetInCU: 0x8B910, offset: 0x1490A7, size: 0x8, addend: 0x0, symName: __ZNK8CryptoPP12AbstractRingINS_7IntegerEE20MultiplicativeGroupT8IdentityEv, symObjAddr: 0x8380, symBinAddr: 0x10003C13C, symSize: 0x10 }
  - { offsetInCU: 0x8B939, offset: 0x1490D0, size: 0x8, addend: 0x0, symName: __ZNK8CryptoPP12AbstractRingINS_7IntegerEE20MultiplicativeGroupT8IdentityEv, symObjAddr: 0x8380, symBinAddr: 0x10003C13C, symSize: 0x10 }
  - { offsetInCU: 0x8B961, offset: 0x1490F8, size: 0x8, addend: 0x0, symName: __ZNK8CryptoPP12AbstractRingINS_7IntegerEE20MultiplicativeGroupT3AddERKS1_S5_, symObjAddr: 0x8390, symBinAddr: 0x10003C14C, symSize: 0x10 }
  - { offsetInCU: 0x8B9A4, offset: 0x14913B, size: 0x8, addend: 0x0, symName: __ZNK8CryptoPP12AbstractRingINS_7IntegerEE20MultiplicativeGroupT3AddERKS1_S5_, symObjAddr: 0x8390, symBinAddr: 0x10003C14C, symSize: 0x10 }
  - { offsetInCU: 0x8B9DD, offset: 0x149174, size: 0x8, addend: 0x0, symName: __ZNK8CryptoPP12AbstractRingINS_7IntegerEE20MultiplicativeGroupT10AccumulateERS1_RKS1_, symObjAddr: 0x83A0, symBinAddr: 0x10003C15C, symSize: 0x34 }
  - { offsetInCU: 0x8BA5F, offset: 0x1491F6, size: 0x8, addend: 0x0, symName: __ZNK8CryptoPP12AbstractRingINS_7IntegerEE20MultiplicativeGroupT7InverseERKS1_, symObjAddr: 0x83D4, symBinAddr: 0x10003C190, symSize: 0x10 }
  - { offsetInCU: 0x8BA95, offset: 0x14922C, size: 0x8, addend: 0x0, symName: __ZNK8CryptoPP12AbstractRingINS_7IntegerEE20MultiplicativeGroupT7InverseERKS1_, symObjAddr: 0x83D4, symBinAddr: 0x10003C190, symSize: 0x10 }
  - { offsetInCU: 0x8BAC6, offset: 0x14925D, size: 0x8, addend: 0x0, symName: __ZNK8CryptoPP12AbstractRingINS_7IntegerEE20MultiplicativeGroupT8SubtractERKS1_S5_, symObjAddr: 0x83E4, symBinAddr: 0x10003C1A0, symSize: 0x10 }
  - { offsetInCU: 0x8BB09, offset: 0x1492A0, size: 0x8, addend: 0x0, symName: __ZNK8CryptoPP12AbstractRingINS_7IntegerEE20MultiplicativeGroupT8SubtractERKS1_S5_, symObjAddr: 0x83E4, symBinAddr: 0x10003C1A0, symSize: 0x10 }
  - { offsetInCU: 0x8BB42, offset: 0x1492D9, size: 0x8, addend: 0x0, symName: __ZNK8CryptoPP12AbstractRingINS_7IntegerEE20MultiplicativeGroupT6ReduceERS1_RKS1_, symObjAddr: 0x83F4, symBinAddr: 0x10003C1B0, symSize: 0x34 }
  - { offsetInCU: 0x8BBC4, offset: 0x14935B, size: 0x8, addend: 0x0, symName: __ZNK8CryptoPP12AbstractRingINS_7IntegerEE20MultiplicativeGroupT6DoubleERKS1_, symObjAddr: 0x8428, symBinAddr: 0x10003C1E4, symSize: 0x10 }
  - { offsetInCU: 0x8BBFA, offset: 0x149391, size: 0x8, addend: 0x0, symName: __ZNK8CryptoPP12AbstractRingINS_7IntegerEE20MultiplicativeGroupT6DoubleERKS1_, symObjAddr: 0x8428, symBinAddr: 0x10003C1E4, symSize: 0x10 }
  - { offsetInCU: 0x8BC2B, offset: 0x1493C2, size: 0x8, addend: 0x0, symName: __ZNK8CryptoPP12AbstractRingINS_7IntegerEE20MultiplicativeGroupT14ScalarMultiplyERKS1_S5_, symObjAddr: 0x8438, symBinAddr: 0x10003C1F4, symSize: 0x10 }
  - { offsetInCU: 0x8BC6E, offset: 0x149405, size: 0x8, addend: 0x0, symName: __ZNK8CryptoPP12AbstractRingINS_7IntegerEE20MultiplicativeGroupT14ScalarMultiplyERKS1_S5_, symObjAddr: 0x8438, symBinAddr: 0x10003C1F4, symSize: 0x10 }
  - { offsetInCU: 0x8BCAF, offset: 0x149446, size: 0x8, addend: 0x0, symName: __ZNK8CryptoPP12AbstractRingINS_7IntegerEE20MultiplicativeGroupT21CascadeScalarMultiplyERKS1_S5_S5_S5_, symObjAddr: 0x8448, symBinAddr: 0x10003C204, symSize: 0x10 }
  - { offsetInCU: 0x8BD0C, offset: 0x1494A3, size: 0x8, addend: 0x0, symName: __ZNK8CryptoPP12AbstractRingINS_7IntegerEE20MultiplicativeGroupT21CascadeScalarMultiplyERKS1_S5_S5_S5_, symObjAddr: 0x8448, symBinAddr: 0x10003C204, symSize: 0x10 }
  - { offsetInCU: 0x8BD5D, offset: 0x1494F4, size: 0x8, addend: 0x0, symName: __ZNK8CryptoPP12AbstractRingINS_7IntegerEE20MultiplicativeGroupT20SimultaneousMultiplyEPS1_RKS1_PS5_j, symObjAddr: 0x8458, symBinAddr: 0x10003C214, symSize: 0x10 }
  - { offsetInCU: 0x8BDBA, offset: 0x149551, size: 0x8, addend: 0x0, symName: __ZNK8CryptoPP12AbstractRingINS_7IntegerEE20MultiplicativeGroupT20SimultaneousMultiplyEPS1_RKS1_PS5_j, symObjAddr: 0x8458, symBinAddr: 0x10003C214, symSize: 0x10 }
  - { offsetInCU: 0x8BE1C, offset: 0x1495B3, size: 0x8, addend: 0x0, symName: __ZNK8CryptoPP23AbstractEuclideanDomainINS_7IntegerEE3ModERKS1_S4_, symObjAddr: 0x8468, symBinAddr: 0x10003C224, symSize: 0xB8 }
  - { offsetInCU: 0x8BFEB, offset: 0x149782, size: 0x8, addend: 0x0, symName: __ZNK8CryptoPP23AbstractEuclideanDomainINS_7IntegerEE3GcdERKS1_S4_, symObjAddr: 0x8520, symBinAddr: 0x10003C2DC, symSize: 0x250 }
  - { offsetInCU: 0x8C26D, offset: 0x149A04, size: 0x8, addend: 0x0, symName: __ZN8CryptoPP18StringSinkTemplateINSt3__112basic_stringIcNS1_11char_traitsIcEENS1_9allocatorIcEEEEED2Ev, symObjAddr: 0x8770, symBinAddr: 0x10003C52C, symSize: 0x4 }
  - { offsetInCU: 0x8C295, offset: 0x149A2C, size: 0x8, addend: 0x0, symName: __ZN8CryptoPP18StringSinkTemplateINSt3__112basic_stringIcNS1_11char_traitsIcEENS1_9allocatorIcEEEEED1Ev, symObjAddr: 0x8774, symBinAddr: 0x10003C530, symSize: 0x4 }
  - { offsetInCU: 0x8C2BD, offset: 0x149A54, size: 0x8, addend: 0x0, symName: __ZThn8_N8CryptoPP18StringSinkTemplateINSt3__112basic_stringIcNS1_11char_traitsIcEENS1_9allocatorIcEEEEED1Ev, symObjAddr: 0x8778, symBinAddr: 0x10003C534, symSize: 0x4 }
  - { offsetInCU: 0x8C2D4, offset: 0x149A6B, size: 0x8, addend: 0x0, symName: __ZN8CryptoPP18StringSinkTemplateINSt3__112basic_stringIcNS1_11char_traitsIcEENS1_9allocatorIcEEEEED0Ev, symObjAddr: 0x877C, symBinAddr: 0x10003C538, symSize: 0x4 }
  - { offsetInCU: 0x8C2F8, offset: 0x149A8F, size: 0x8, addend: 0x0, symName: __ZN8CryptoPP18StringSinkTemplateINSt3__112basic_stringIcNS1_11char_traitsIcEENS1_9allocatorIcEEEEED0Ev, symObjAddr: 0x877C, symBinAddr: 0x10003C538, symSize: 0x4 }
  - { offsetInCU: 0x8C32B, offset: 0x149AC2, size: 0x8, addend: 0x0, symName: __ZThn8_N8CryptoPP18StringSinkTemplateINSt3__112basic_stringIcNS1_11char_traitsIcEENS1_9allocatorIcEEEEED0Ev, symObjAddr: 0x8780, symBinAddr: 0x10003C53C, symSize: 0x8 }
  - { offsetInCU: 0x8C3CB, offset: 0x149B62, size: 0x8, addend: 0x0, symName: __ZN8CryptoPP18StringSinkTemplateINSt3__112basic_stringIcNS1_11char_traitsIcEENS1_9allocatorIcEEEEEC2ERS7_, symObjAddr: 0x8788, symBinAddr: 0x10003C544, symSize: 0x3C }
  - { offsetInCU: 0x8C479, offset: 0x149C10, size: 0x8, addend: 0x0, symName: __ZN8CryptoPP18StringSinkTemplateINSt3__112basic_stringIcNS1_11char_traitsIcEENS1_9allocatorIcEEEEEC1ERS7_, symObjAddr: 0x87C4, symBinAddr: 0x10003C580, symSize: 0x3C }
  - { offsetInCU: 0x8C578, offset: 0x149D0F, size: 0x8, addend: 0x0, symName: __ZN8CryptoPP18StringSinkTemplateINSt3__112basic_stringIcNS1_11char_traitsIcEENS1_9allocatorIcEEEEE18IsolatedInitializeERKNS_14NameValuePairsE, symObjAddr: 0x8800, symBinAddr: 0x10003C5BC, symSize: 0xD8 }
  - { offsetInCU: 0x8C82A, offset: 0x149FC1, size: 0x8, addend: 0x0, symName: __ZN8CryptoPP18StringSinkTemplateINSt3__112basic_stringIcNS1_11char_traitsIcEENS1_9allocatorIcEEEEE4Put2EPKhmib, symObjAddr: 0x898C, symBinAddr: 0x10003C694, symSize: 0xBC }
  - { offsetInCU: 0x8CA01, offset: 0x14A198, size: 0x8, addend: 0x0, symName: __ZNSt3__112basic_stringIcNS_11char_traitsIcEENS_9allocatorIcEEE6insertIPKcEENS_9enable_ifIXsr27__is_cpp17_forward_iteratorIT_EE5valueENS_11__wrap_iterIPcEEE4typeENSB_IS8_EESA_SA_, symObjAddr: 0x8A48, symBinAddr: 0x10003C750, symSize: 0x4A0 }
  - { offsetInCU: 0x8D8F1, offset: 0x14B088, size: 0x8, addend: 0x0, symName: __ZN8CryptoPP18StringSinkTemplateINSt3__16vectorIhNS1_9allocatorIhEEEEED2Ev, symObjAddr: 0x8EE8, symBinAddr: 0x10003CBF0, symSize: 0x4 }
  - { offsetInCU: 0x8D919, offset: 0x14B0B0, size: 0x8, addend: 0x0, symName: __ZN8CryptoPP18StringSinkTemplateINSt3__16vectorIhNS1_9allocatorIhEEEEED1Ev, symObjAddr: 0x8EEC, symBinAddr: 0x10003CBF4, symSize: 0x4 }
  - { offsetInCU: 0x8D941, offset: 0x14B0D8, size: 0x8, addend: 0x0, symName: __ZThn8_N8CryptoPP18StringSinkTemplateINSt3__16vectorIhNS1_9allocatorIhEEEEED1Ev, symObjAddr: 0x8EF0, symBinAddr: 0x10003CBF8, symSize: 0x4 }
  - { offsetInCU: 0x8D958, offset: 0x14B0EF, size: 0x8, addend: 0x0, symName: __ZN8CryptoPP18StringSinkTemplateINSt3__16vectorIhNS1_9allocatorIhEEEEED0Ev, symObjAddr: 0x8EF4, symBinAddr: 0x10003CBFC, symSize: 0x4 }
  - { offsetInCU: 0x8D97C, offset: 0x14B113, size: 0x8, addend: 0x0, symName: __ZN8CryptoPP18StringSinkTemplateINSt3__16vectorIhNS1_9allocatorIhEEEEED0Ev, symObjAddr: 0x8EF4, symBinAddr: 0x10003CBFC, symSize: 0x4 }
  - { offsetInCU: 0x8D9AF, offset: 0x14B146, size: 0x8, addend: 0x0, symName: __ZThn8_N8CryptoPP18StringSinkTemplateINSt3__16vectorIhNS1_9allocatorIhEEEEED0Ev, symObjAddr: 0x8EF8, symBinAddr: 0x10003CC00, symSize: 0x8 }
  - { offsetInCU: 0x8D9F2, offset: 0x14B189, size: 0x8, addend: 0x0, symName: __ZN8CryptoPP18StringSinkTemplateINSt3__16vectorIhNS1_9allocatorIhEEEEEC2ERS5_, symObjAddr: 0x8F00, symBinAddr: 0x10003CC08, symSize: 0x3C }
  - { offsetInCU: 0x8DAA0, offset: 0x14B237, size: 0x8, addend: 0x0, symName: __ZN8CryptoPP18StringSinkTemplateINSt3__16vectorIhNS1_9allocatorIhEEEEEC1ERS5_, symObjAddr: 0x8F3C, symBinAddr: 0x10003CC44, symSize: 0x3C }
  - { offsetInCU: 0x8DB9A, offset: 0x14B331, size: 0x8, addend: 0x0, symName: __ZN8CryptoPP18StringSinkTemplateINSt3__16vectorIhNS1_9allocatorIhEEEEE18IsolatedInitializeERKNS_14NameValuePairsE, symObjAddr: 0x8F78, symBinAddr: 0x10003CC80, symSize: 0xD8 }
  - { offsetInCU: 0x8E015, offset: 0x14B7AC, size: 0x8, addend: 0x0, symName: __ZN8CryptoPP18StringSinkTemplateINSt3__16vectorIhNS1_9allocatorIhEEEEE4Put2EPKhmib, symObjAddr: 0x9050, symBinAddr: 0x10003CD58, symSize: 0x1A4 }
  - { offsetInCU: 0x8E471, offset: 0x14BC08, size: 0x8, addend: 0x0, symName: __ZNSt3__16vectorIhNS_9allocatorIhEEE6insertIPKhLi0EEENS_11__wrap_iterIPhEENS7_IS6_EET_SB_, symObjAddr: 0x91F4, symBinAddr: 0x10003CEFC, symSize: 0x354 }
  - { offsetInCU: 0x8E485, offset: 0x14BC1C, size: 0x8, addend: 0x0, symName: __ZNSt3__16vectorIhNS_9allocatorIhEEE6insertIPKhLi0EEENS_11__wrap_iterIPhEENS7_IS6_EET_SB_, symObjAddr: 0x91F4, symBinAddr: 0x10003CEFC, symSize: 0x354 }
  - { offsetInCU: 0x8EFAA, offset: 0x14C741, size: 0x8, addend: 0x0, symName: __ZN8CryptoPP30DL_FixedBasePrecomputationImplINS_7IntegerEED2Ev, symObjAddr: 0x9548, symBinAddr: 0x10003D250, symSize: 0x100 }
  - { offsetInCU: 0x8EFCE, offset: 0x14C765, size: 0x8, addend: 0x0, symName: __ZNKSt3__16vectorIhNS_9allocatorIhEEE20__throw_length_errorB7v160006Ev, symObjAddr: 0x450A4, symBinAddr: 0x100074ED8, symSize: 0x14 }
  - { offsetInCU: 0x8EFF7, offset: 0x14C78E, size: 0x8, addend: 0x0, symName: __ZNSt3__16vectorIN8CryptoPP7IntegerENS_9allocatorIS2_EEE8__appendEm, symObjAddr: 0x450B8, symBinAddr: 0x100074EEC, symSize: 0x22C }
  - { offsetInCU: 0x8F4F1, offset: 0x14CC88, size: 0x8, addend: 0x0, symName: __ZN8CryptoPP30DL_FixedBasePrecomputationImplINS_7IntegerEED2Ev, symObjAddr: 0x9548, symBinAddr: 0x10003D250, symSize: 0x100 }
  - { offsetInCU: 0x8F99E, offset: 0x14D135, size: 0x8, addend: 0x0, symName: __ZN8CryptoPP30DL_FixedBasePrecomputationImplINS_7IntegerEED1Ev, symObjAddr: 0x9648, symBinAddr: 0x10003D350, symSize: 0x4 }
  - { offsetInCU: 0x8F9C2, offset: 0x14D159, size: 0x8, addend: 0x0, symName: __ZN8CryptoPP30DL_FixedBasePrecomputationImplINS_7IntegerEED1Ev, symObjAddr: 0x9648, symBinAddr: 0x10003D350, symSize: 0x4 }
  - { offsetInCU: 0x8F9F5, offset: 0x14D18C, size: 0x8, addend: 0x0, symName: __ZN8CryptoPP30DL_FixedBasePrecomputationImplINS_7IntegerEED0Ev, symObjAddr: 0x964C, symBinAddr: 0x10003D354, symSize: 0x38 }
  - { offsetInCU: 0x8FA81, offset: 0x14D218, size: 0x8, addend: 0x0, symName: __ZN8CryptoPP30DL_FixedBasePrecomputationImplINS_7IntegerEEC2Ev, symObjAddr: 0x9684, symBinAddr: 0x10003D38C, symSize: 0x68 }
  - { offsetInCU: 0x8FB17, offset: 0x14D2AE, size: 0x8, addend: 0x0, symName: __ZN8CryptoPP30DL_FixedBasePrecomputationImplINS_7IntegerEEC1Ev, symObjAddr: 0x96EC, symBinAddr: 0x10003D3F4, symSize: 0x98 }
  - { offsetInCU: 0x8FCD5, offset: 0x14D46C, size: 0x8, addend: 0x0, symName: __ZNK8CryptoPP30DL_FixedBasePrecomputationImplINS_7IntegerEE13IsInitializedEv, symObjAddr: 0x9784, symBinAddr: 0x10003D48C, symSize: 0x10 }
  - { offsetInCU: 0x8FCFE, offset: 0x14D495, size: 0x8, addend: 0x0, symName: __ZNK8CryptoPP30DL_FixedBasePrecomputationImplINS_7IntegerEE13IsInitializedEv, symObjAddr: 0x9784, symBinAddr: 0x10003D48C, symSize: 0x10 }
  - { offsetInCU: 0x8FD4F, offset: 0x14D4E6, size: 0x8, addend: 0x0, symName: __ZN8CryptoPP30DL_FixedBasePrecomputationImplINS_7IntegerEE7SetBaseERKNS_22DL_GroupPrecomputationIS1_EERKS1_, symObjAddr: 0x9794, symBinAddr: 0x10003D49C, symSize: 0x19C }
  - { offsetInCU: 0x900A3, offset: 0x14D83A, size: 0x8, addend: 0x0, symName: __ZNSt3__16vectorIN8CryptoPP7IntegerENS_9allocatorIS2_EEE8__appendEm, symObjAddr: 0x450B8, symBinAddr: 0x100074EEC, symSize: 0x22C }
  - { offsetInCU: 0x9090C, offset: 0x14E0A3, size: 0x8, addend: 0x0, symName: __ZNK8CryptoPP30DL_FixedBasePrecomputationImplINS_7IntegerEE7GetBaseERKNS_22DL_GroupPrecomputationIS1_EE, symObjAddr: 0x9930, symBinAddr: 0x10003D638, symSize: 0x44 }
  - { offsetInCU: 0x90976, offset: 0x14E10D, size: 0x8, addend: 0x0, symName: __ZN8CryptoPP30DL_FixedBasePrecomputationImplINS_7IntegerEE10PrecomputeERKNS_22DL_GroupPrecomputationIS1_EEjj, symObjAddr: 0x9974, symBinAddr: 0x10003D67C, symSize: 0x1F0 }
  - { offsetInCU: 0x90F91, offset: 0x14E728, size: 0x8, addend: 0x0, symName: __ZN8CryptoPP30DL_FixedBasePrecomputationImplINS_7IntegerEE4LoadERKNS_22DL_GroupPrecomputationIS1_EERNS_22BufferedTransformationE, symObjAddr: 0x9B64, symBinAddr: 0x10003D86C, symSize: 0x26C }
  - { offsetInCU: 0x91632, offset: 0x14EDC9, size: 0x8, addend: 0x0, symName: __ZNSt3__16vectorIN8CryptoPP7IntegerENS_9allocatorIS2_EEE21__push_back_slow_pathIS2_EEvOT_, symObjAddr: 0x452E4, symBinAddr: 0x100075118, symSize: 0x1CC }
  - { offsetInCU: 0x921E5, offset: 0x14F97C, size: 0x8, addend: 0x0, symName: __ZNK8CryptoPP30DL_FixedBasePrecomputationImplINS_7IntegerEE4SaveERKNS_22DL_GroupPrecomputationIS1_EERNS_22BufferedTransformationE, symObjAddr: 0xA1E8, symBinAddr: 0x10003DAD8, symSize: 0x16C }
  - { offsetInCU: 0x9263B, offset: 0x14FDD2, size: 0x8, addend: 0x0, symName: __ZNK8CryptoPP30DL_FixedBasePrecomputationImplINS_7IntegerEE12ExponentiateERKNS_22DL_GroupPrecomputationIS1_EERKS1_, symObjAddr: 0xA358, symBinAddr: 0x10003DC44, symSize: 0x150 }
  - { offsetInCU: 0x92AB0, offset: 0x150247, size: 0x8, addend: 0x0, symName: __ZNSt3__16vectorIN8CryptoPP15BaseAndExponentINS1_7IntegerES3_EENS_9allocatorIS4_EEE7reserveEm, symObjAddr: 0xA4A8, symBinAddr: 0x10003DD94, symSize: 0x114 }
  - { offsetInCU: 0x92F2B, offset: 0x1506C2, size: 0x8, addend: 0x0, symName: __ZNK8CryptoPP30DL_FixedBasePrecomputationImplINS_7IntegerEE14PrepareCascadeERKNS_22DL_GroupPrecomputationIS1_EERNSt3__16vectorINS_15BaseAndExponentIS1_S1_EENS7_9allocatorISA_EEEERKS1_, symObjAddr: 0xA5BC, symBinAddr: 0x10003DEA8, symSize: 0x79C }
  - { offsetInCU: 0x94F19, offset: 0x1526B0, size: 0x8, addend: 0x0, symName: __ZNSt3__19allocatorIN8CryptoPP15BaseAndExponentINS1_7IntegerES3_EEE7destroyB7v160006EPS4_, symObjAddr: 0x454B0, symBinAddr: 0x1000752E4, symSize: 0xE4 }
  - { offsetInCU: 0x95348, offset: 0x152ADF, size: 0x8, addend: 0x0, symName: __ZNSt3__16vectorIN8CryptoPP15BaseAndExponentINS1_7IntegerES3_EENS_9allocatorIS4_EEED1B7v160006Ev, symObjAddr: 0xB068, symBinAddr: 0x10003E954, symSize: 0x64 }
  - { offsetInCU: 0x9575A, offset: 0x152EF1, size: 0x8, addend: 0x0, symName: __ZNKSt3__16vectorIN8CryptoPP15BaseAndExponentINS1_7IntegerES3_EENS_9allocatorIS4_EEE20__throw_length_errorB7v160006Ev, symObjAddr: 0x45594, symBinAddr: 0x1000753C8, symSize: 0x14 }
  - { offsetInCU: 0x95783, offset: 0x152F1A, size: 0x8, addend: 0x0, symName: __ZNSt3__114__split_bufferIN8CryptoPP15BaseAndExponentINS1_7IntegerES3_EERNS_9allocatorIS4_EEED1Ev, symObjAddr: 0x455A8, symBinAddr: 0x1000753DC, symSize: 0x54 }
  - { offsetInCU: 0x9578F, offset: 0x152F26, size: 0x8, addend: 0x0, symName: __ZNSt3__114__split_bufferIN8CryptoPP15BaseAndExponentINS1_7IntegerES3_EERNS_9allocatorIS4_EEED1Ev, symObjAddr: 0x455A8, symBinAddr: 0x1000753DC, symSize: 0x54 }
  - { offsetInCU: 0x95BA6, offset: 0x15333D, size: 0x8, addend: 0x0, symName: __ZNSt3__16vectorIN8CryptoPP15BaseAndExponentINS1_7IntegerES3_EENS_9allocatorIS4_EEE21__push_back_slow_pathIS4_EEvOT_, symObjAddr: 0x45E74, symBinAddr: 0x100075CA8, symSize: 0x1D4 }
  - { offsetInCU: 0x96257, offset: 0x1539EE, size: 0x8, addend: 0x0, symName: __ZN8CryptoPP15BaseAndExponentINS_7IntegerES1_ED1Ev, symObjAddr: 0xB250, symBinAddr: 0x10003EB3C, symSize: 0xDC }
  - { offsetInCU: 0x966CE, offset: 0x153E65, size: 0x8, addend: 0x0, symName: __ZNK8CryptoPP30DL_FixedBasePrecomputationImplINS_7IntegerEE19CascadeExponentiateERKNS_22DL_GroupPrecomputationIS1_EERKS1_RKNS_26DL_FixedBasePrecomputationIS1_EES8_, symObjAddr: 0xB0CC, symBinAddr: 0x10003E9B8, symSize: 0x184 }
  - { offsetInCU: 0x96BBF, offset: 0x154356, size: 0x8, addend: 0x0, symName: __ZN8CryptoPP18DL_GroupParametersINS_7IntegerEED2Ev, symObjAddr: 0xB32C, symBinAddr: 0x10003EC18, symSize: 0x4 }
  - { offsetInCU: 0x96BF2, offset: 0x154389, size: 0x8, addend: 0x0, symName: __ZN8CryptoPP18DL_GroupParametersINS_7IntegerEED1Ev, symObjAddr: 0xB330, symBinAddr: 0x1000C781C, symSize: 0x4 }
  - { offsetInCU: 0x96C32, offset: 0x1543C9, size: 0x8, addend: 0x0, symName: __ZTv0_n24_N8CryptoPP18DL_GroupParametersINS_7IntegerEED1Ev, symObjAddr: 0xB334, symBinAddr: 0x1000C7820, symSize: 0x4 }
  - { offsetInCU: 0x96C4D, offset: 0x1543E4, size: 0x8, addend: 0x0, symName: __ZTv0_n24_N8CryptoPP18DL_GroupParametersINS_7IntegerEED1Ev, symObjAddr: 0xB334, symBinAddr: 0x1000C7820, symSize: 0x4 }
  - { offsetInCU: 0x96C5E, offset: 0x1543F5, size: 0x8, addend: 0x0, symName: __ZN8CryptoPP18DL_GroupParametersINS_7IntegerEED0Ev, symObjAddr: 0xB338, symBinAddr: 0x1000C7824, symSize: 0x4 }
  - { offsetInCU: 0x96C99, offset: 0x154430, size: 0x8, addend: 0x0, symName: __ZTv0_n24_N8CryptoPP18DL_GroupParametersINS_7IntegerEED0Ev, symObjAddr: 0xB33C, symBinAddr: 0x1000C7828, symSize: 0x4 }
  - { offsetInCU: 0x96CB4, offset: 0x15444B, size: 0x8, addend: 0x0, symName: __ZTv0_n24_N8CryptoPP18DL_GroupParametersINS_7IntegerEED0Ev, symObjAddr: 0xB33C, symBinAddr: 0x1000C7828, symSize: 0x4 }
  - { offsetInCU: 0x96D27, offset: 0x1544BE, size: 0x8, addend: 0x0, symName: __ZN8CryptoPP18DL_GroupParametersINS_7IntegerEEC2Ev, symObjAddr: 0xB340, symBinAddr: 0x10003EC1C, symSize: 0x44 }
  - { offsetInCU: 0x96D52, offset: 0x1544E9, size: 0x8, addend: 0x0, symName: __ZN8CryptoPP18DL_GroupParametersINS_7IntegerEEC2Ev, symObjAddr: 0xB340, symBinAddr: 0x10003EC1C, symSize: 0x44 }
  - { offsetInCU: 0x96D7A, offset: 0x154511, size: 0x8, addend: 0x0, symName: __ZN8CryptoPP18DL_GroupParametersINS_7IntegerEEC2Ev, symObjAddr: 0xB340, symBinAddr: 0x10003EC1C, symSize: 0x44 }
  - { offsetInCU: 0x96DA2, offset: 0x154539, size: 0x8, addend: 0x0, symName: __ZNK8CryptoPP18DL_GroupParametersINS_7IntegerEE8ValidateERNS_21RandomNumberGeneratorEj, symObjAddr: 0xB384, symBinAddr: 0x10003EC60, symSize: 0xF4 }
  - { offsetInCU: 0x96EA9, offset: 0x154640, size: 0x8, addend: 0x0, symName: __ZTv0_n48_NK8CryptoPP18DL_GroupParametersINS_7IntegerEE8ValidateERNS_21RandomNumberGeneratorEj, symObjAddr: 0xB478, symBinAddr: 0x10003ED54, symSize: 0x100 }
  - { offsetInCU: 0x97042, offset: 0x1547D9, size: 0x8, addend: 0x0, symName: __ZNK8CryptoPP18DL_GroupParametersINS_7IntegerEE12GetVoidValueEPKcRKSt9type_infoPv, symObjAddr: 0xB578, symBinAddr: 0x10003EE54, symSize: 0x168 }
  - { offsetInCU: 0x97277, offset: 0x154A0E, size: 0x8, addend: 0x0, symName: __ZN8CryptoPP19GetValueHelperClassINS_18DL_GroupParametersINS_7IntegerEEES3_EC2EPKS3_PKcRKSt9type_infoPvPKNS_14NameValuePairsE, symObjAddr: 0x46048, symBinAddr: 0x100075E7C, symSize: 0x188 }
  - { offsetInCU: 0x973DB, offset: 0x154B72, size: 0x8, addend: 0x0, symName: __ZTv0_n32_NK8CryptoPP18DL_GroupParametersINS_7IntegerEE12GetVoidValueEPKcRKSt9type_infoPv, symObjAddr: 0xB6E0, symBinAddr: 0x10003EFBC, symSize: 0x10 }
  - { offsetInCU: 0x9741A, offset: 0x154BB1, size: 0x8, addend: 0x0, symName: __ZNK8CryptoPP18DL_GroupParametersINS_7IntegerEE22SupportsPrecomputationEv, symObjAddr: 0xB6F0, symBinAddr: 0x10003EFCC, symSize: 0x8 }
  - { offsetInCU: 0x97441, offset: 0x154BD8, size: 0x8, addend: 0x0, symName: __ZTv0_n80_NK8CryptoPP18DL_GroupParametersINS_7IntegerEE22SupportsPrecomputationEv, symObjAddr: 0xB6F8, symBinAddr: 0x10003EFD4, symSize: 0x8 }
  - { offsetInCU: 0x97458, offset: 0x154BEF, size: 0x8, addend: 0x0, symName: __ZN8CryptoPP18DL_GroupParametersINS_7IntegerEE10PrecomputeEj, symObjAddr: 0xB700, symBinAddr: 0x10003EFDC, symSize: 0x78 }
  - { offsetInCU: 0x97507, offset: 0x154C9E, size: 0x8, addend: 0x0, symName: __ZTv0_n88_N8CryptoPP18DL_GroupParametersINS_7IntegerEE10PrecomputeEj, symObjAddr: 0xB778, symBinAddr: 0x10003F054, symSize: 0x84 }
  - { offsetInCU: 0x975A6, offset: 0x154D3D, size: 0x8, addend: 0x0, symName: __ZN8CryptoPP18DL_GroupParametersINS_7IntegerEE18LoadPrecomputationERNS_22BufferedTransformationE, symObjAddr: 0xB7FC, symBinAddr: 0x10003F0D8, symSize: 0x64 }
  - { offsetInCU: 0x9763A, offset: 0x154DD1, size: 0x8, addend: 0x0, symName: __ZTv0_n96_N8CryptoPP18DL_GroupParametersINS_7IntegerEE18LoadPrecomputationERNS_22BufferedTransformationE, symObjAddr: 0xB860, symBinAddr: 0x10003F13C, symSize: 0x70 }
  - { offsetInCU: 0x976BA, offset: 0x154E51, size: 0x8, addend: 0x0, symName: __ZNK8CryptoPP18DL_GroupParametersINS_7IntegerEE18SavePrecomputationERNS_22BufferedTransformationE, symObjAddr: 0xB8D0, symBinAddr: 0x10003F1AC, symSize: 0x5C }
  - { offsetInCU: 0x9774E, offset: 0x154EE5, size: 0x8, addend: 0x0, symName: __ZTv0_n104_NK8CryptoPP18DL_GroupParametersINS_7IntegerEE18SavePrecomputationERNS_22BufferedTransformationE, symObjAddr: 0xB92C, symBinAddr: 0x10003F208, symSize: 0x68 }
  - { offsetInCU: 0x977D2, offset: 0x154F69, size: 0x8, addend: 0x0, symName: __ZNK8CryptoPP18DL_GroupParametersINS_7IntegerEE20GetSubgroupGeneratorEv, symObjAddr: 0xB994, symBinAddr: 0x10003F270, symSize: 0x4C }
  - { offsetInCU: 0x97836, offset: 0x154FCD, size: 0x8, addend: 0x0, symName: __ZN8CryptoPP18DL_GroupParametersINS_7IntegerEE20SetSubgroupGeneratorERKS1_, symObjAddr: 0xB9E0, symBinAddr: 0x10003F2BC, symSize: 0x5C }
  - { offsetInCU: 0x978B2, offset: 0x155049, size: 0x8, addend: 0x0, symName: __ZNK8CryptoPP18DL_GroupParametersINS_7IntegerEE16ExponentiateBaseERKS1_, symObjAddr: 0xBA3C, symBinAddr: 0x10003F318, symSize: 0x64 }
  - { offsetInCU: 0x97935, offset: 0x1550CC, size: 0x8, addend: 0x0, symName: __ZNK8CryptoPP18DL_GroupParametersINS_7IntegerEE19ExponentiateElementERKS1_S4_, symObjAddr: 0xBAA0, symBinAddr: 0x10003F37C, symSize: 0x70 }
  - { offsetInCU: 0x979D4, offset: 0x15516B, size: 0x8, addend: 0x0, symName: __ZNK8CryptoPP18DL_GroupParametersINS_7IntegerEE13GetGroupOrderEv, symObjAddr: 0xBB10, symBinAddr: 0x10003F3EC, symSize: 0xB8 }
  - { offsetInCU: 0x97B98, offset: 0x15532F, size: 0x8, addend: 0x0, symName: __ZNK8CryptoPP18DL_GroupParametersINS_7IntegerEE11GetCofactorEv, symObjAddr: 0xBBC8, symBinAddr: 0x10003F4A4, symSize: 0xAC }
  - { offsetInCU: 0x97D5C, offset: 0x1554F3, size: 0x8, addend: 0x0, symName: __ZN8CryptoPP18DL_GroupParametersINS_7IntegerEE17ParametersChangedEv, symObjAddr: 0xBC74, symBinAddr: 0x10003F550, symSize: 0x8 }
  - { offsetInCU: 0x97D7D, offset: 0x155514, size: 0x8, addend: 0x0, symName: __ZN8CryptoPP35DL_GroupParameters_IntegerBasedImplINS_20ModExpPrecomputationENS_30DL_FixedBasePrecomputationImplINS_7IntegerEEEED2Ev, symObjAddr: 0xBC7C, symBinAddr: 0x10003F558, symSize: 0x8 }
  - { offsetInCU: 0x97DBF, offset: 0x155556, size: 0x8, addend: 0x0, symName: __ZN8CryptoPP22DL_GroupParametersImplINS_20ModExpPrecomputationENS_30DL_FixedBasePrecomputationImplINS_7IntegerEEENS_31DL_GroupParameters_IntegerBasedEED2Ev, symObjAddr: 0xBC84, symBinAddr: 0x10003F560, symSize: 0x114 }
  - { offsetInCU: 0x981DC, offset: 0x155973, size: 0x8, addend: 0x0, symName: __ZN8CryptoPP31DL_GroupParameters_IntegerBasedD2Ev, symObjAddr: 0x3A39C, symBinAddr: 0x10006ACC8, symSize: 0x78 }
  - { offsetInCU: 0x98357, offset: 0x155AEE, size: 0x8, addend: 0x0, symName: __ZN8CryptoPP35DL_GroupParameters_IntegerBasedImplINS_20ModExpPrecomputationENS_30DL_FixedBasePrecomputationImplINS_7IntegerEEEED1Ev, symObjAddr: 0xBD98, symBinAddr: 0x1000C782C, symSize: 0x4 }
  - { offsetInCU: 0x98392, offset: 0x155B29, size: 0x8, addend: 0x0, symName: __ZTv0_n24_N8CryptoPP35DL_GroupParameters_IntegerBasedImplINS_20ModExpPrecomputationENS_30DL_FixedBasePrecomputationImplINS_7IntegerEEEED1Ev, symObjAddr: 0xBD9C, symBinAddr: 0x1000C7830, symSize: 0x4 }
  - { offsetInCU: 0x983AC, offset: 0x155B43, size: 0x8, addend: 0x0, symName: __ZTv0_n24_N8CryptoPP35DL_GroupParameters_IntegerBasedImplINS_20ModExpPrecomputationENS_30DL_FixedBasePrecomputationImplINS_7IntegerEEEED1Ev, symObjAddr: 0xBD9C, symBinAddr: 0x1000C7830, symSize: 0x4 }
  - { offsetInCU: 0x983BD, offset: 0x155B54, size: 0x8, addend: 0x0, symName: __ZThn8_N8CryptoPP35DL_GroupParameters_IntegerBasedImplINS_20ModExpPrecomputationENS_30DL_FixedBasePrecomputationImplINS_7IntegerEEEED1Ev, symObjAddr: 0xBDA0, symBinAddr: 0x1000C7834, symSize: 0x4 }
  - { offsetInCU: 0x983D7, offset: 0x155B6E, size: 0x8, addend: 0x0, symName: __ZThn8_N8CryptoPP35DL_GroupParameters_IntegerBasedImplINS_20ModExpPrecomputationENS_30DL_FixedBasePrecomputationImplINS_7IntegerEEEED1Ev, symObjAddr: 0xBDA0, symBinAddr: 0x1000C7834, symSize: 0x4 }
  - { offsetInCU: 0x983F3, offset: 0x155B8A, size: 0x8, addend: 0x0, symName: __ZN8CryptoPP35DL_GroupParameters_IntegerBasedImplINS_20ModExpPrecomputationENS_30DL_FixedBasePrecomputationImplINS_7IntegerEEEED0Ev, symObjAddr: 0xBDA4, symBinAddr: 0x1000C7838, symSize: 0x4 }
  - { offsetInCU: 0x9842E, offset: 0x155BC5, size: 0x8, addend: 0x0, symName: __ZTv0_n24_N8CryptoPP35DL_GroupParameters_IntegerBasedImplINS_20ModExpPrecomputationENS_30DL_FixedBasePrecomputationImplINS_7IntegerEEEED0Ev, symObjAddr: 0xBDA8, symBinAddr: 0x1000C783C, symSize: 0x4 }
  - { offsetInCU: 0x98448, offset: 0x155BDF, size: 0x8, addend: 0x0, symName: __ZTv0_n24_N8CryptoPP35DL_GroupParameters_IntegerBasedImplINS_20ModExpPrecomputationENS_30DL_FixedBasePrecomputationImplINS_7IntegerEEEED0Ev, symObjAddr: 0xBDA8, symBinAddr: 0x1000C783C, symSize: 0x4 }
  - { offsetInCU: 0x98459, offset: 0x155BF0, size: 0x8, addend: 0x0, symName: __ZThn8_N8CryptoPP35DL_GroupParameters_IntegerBasedImplINS_20ModExpPrecomputationENS_30DL_FixedBasePrecomputationImplINS_7IntegerEEEED0Ev, symObjAddr: 0xBDAC, symBinAddr: 0x1000C7840, symSize: 0x4 }
  - { offsetInCU: 0x98473, offset: 0x155C0A, size: 0x8, addend: 0x0, symName: __ZThn8_N8CryptoPP35DL_GroupParameters_IntegerBasedImplINS_20ModExpPrecomputationENS_30DL_FixedBasePrecomputationImplINS_7IntegerEEEED0Ev, symObjAddr: 0xBDAC, symBinAddr: 0x1000C7840, symSize: 0x4 }
  - { offsetInCU: 0x98519, offset: 0x155CB0, size: 0x8, addend: 0x0, symName: __ZNK8CryptoPP35DL_GroupParameters_IntegerBasedImplINS_20ModExpPrecomputationENS_30DL_FixedBasePrecomputationImplINS_7IntegerEEEE12GetVoidValueEPKcRKSt9type_infoPv, symObjAddr: 0xBDB0, symBinAddr: 0x10003F674, symSize: 0x40 }
  - { offsetInCU: 0x9864E, offset: 0x155DE5, size: 0x8, addend: 0x0, symName: __ZN8CryptoPP19GetValueHelperClassINS_35DL_GroupParameters_IntegerBasedImplINS_20ModExpPrecomputationENS_30DL_FixedBasePrecomputationImplINS_7IntegerEEEEENS_31DL_GroupParameters_IntegerBasedEEC2EPKS6_PKcRKSt9type_infoPvPKNS_14NameValuePairsE, symObjAddr: 0x461D0, symBinAddr: 0x100076004, symSize: 0x238 }
  - { offsetInCU: 0x988B6, offset: 0x15604D, size: 0x8, addend: 0x0, symName: __ZN8CryptoPP19GetValueHelperClassINS_35DL_GroupParameters_IntegerBasedImplINS_20ModExpPrecomputationENS_30DL_FixedBasePrecomputationImplINS_7IntegerEEEEENS_31DL_GroupParameters_IntegerBasedEE10AssignableEv, symObjAddr: 0xBDF0, symBinAddr: 0x10003F6B4, symSize: 0xD4 }
  - { offsetInCU: 0x989E5, offset: 0x15617C, size: 0x8, addend: 0x0, symName: __ZN8CryptoPP22DL_GroupParametersImplINS_20ModExpPrecomputationENS_30DL_FixedBasePrecomputationImplINS_7IntegerEEENS_31DL_GroupParameters_IntegerBasedEEaSERKS6_, symObjAddr: 0x39A4C, symBinAddr: 0x10006A68C, symSize: 0xD8 }
  - { offsetInCU: 0x98BFD, offset: 0x156394, size: 0x8, addend: 0x0, symName: __ZTv0_n32_NK8CryptoPP35DL_GroupParameters_IntegerBasedImplINS_20ModExpPrecomputationENS_30DL_FixedBasePrecomputationImplINS_7IntegerEEEE12GetVoidValueEPKcRKSt9type_infoPv, symObjAddr: 0xBEC4, symBinAddr: 0x10003F788, symSize: 0x48 }
  - { offsetInCU: 0x98D3D, offset: 0x1564D4, size: 0x8, addend: 0x0, symName: __ZThn8_NK8CryptoPP35DL_GroupParameters_IntegerBasedImplINS_20ModExpPrecomputationENS_30DL_FixedBasePrecomputationImplINS_7IntegerEEEE12GetVoidValueEPKcRKSt9type_infoPv, symObjAddr: 0xBF0C, symBinAddr: 0x10003F7D0, symSize: 0x40 }
  - { offsetInCU: 0x98EEB, offset: 0x156682, size: 0x8, addend: 0x0, symName: __ZN8CryptoPP35DL_GroupParameters_IntegerBasedImplINS_20ModExpPrecomputationENS_30DL_FixedBasePrecomputationImplINS_7IntegerEEEE10AssignFromERKNS_14NameValuePairsE, symObjAddr: 0xBF4C, symBinAddr: 0x10003F810, symSize: 0x8C }
  - { offsetInCU: 0x99007, offset: 0x15679E, size: 0x8, addend: 0x0, symName: __ZNK8CryptoPP14NameValuePairs13GetThisObjectINS_35DL_GroupParameters_IntegerBasedImplINS_20ModExpPrecomputationENS_30DL_FixedBasePrecomputationImplINS_7IntegerEEEEEEEbRT_, symObjAddr: 0x46408, symBinAddr: 0x10007623C, symSize: 0x1B8 }
  - { offsetInCU: 0x99DED, offset: 0x157584, size: 0x8, addend: 0x0, symName: __ZTv0_n40_N8CryptoPP35DL_GroupParameters_IntegerBasedImplINS_20ModExpPrecomputationENS_30DL_FixedBasePrecomputationImplINS_7IntegerEEEE10AssignFromERKNS_14NameValuePairsE, symObjAddr: 0xBFD8, symBinAddr: 0x10003F89C, symSize: 0x94 }
  - { offsetInCU: 0x99F14, offset: 0x1576AB, size: 0x8, addend: 0x0, symName: __ZNK8CryptoPP35DL_GroupParameters_IntegerBasedImplINS_20ModExpPrecomputationENS_30DL_FixedBasePrecomputationImplINS_7IntegerEEEE21GetBasePrecomputationEv, symObjAddr: 0xC06C, symBinAddr: 0x10003F930, symSize: 0x8 }
  - { offsetInCU: 0x99F4D, offset: 0x1576E4, size: 0x8, addend: 0x0, symName: __ZThn8_NK8CryptoPP35DL_GroupParameters_IntegerBasedImplINS_20ModExpPrecomputationENS_30DL_FixedBasePrecomputationImplINS_7IntegerEEEE21GetBasePrecomputationEv, symObjAddr: 0xC074, symBinAddr: 0x10003F938, symSize: 0x8 }
  - { offsetInCU: 0x99F67, offset: 0x1576FE, size: 0x8, addend: 0x0, symName: __ZThn8_NK8CryptoPP35DL_GroupParameters_IntegerBasedImplINS_20ModExpPrecomputationENS_30DL_FixedBasePrecomputationImplINS_7IntegerEEEE21GetBasePrecomputationEv, symObjAddr: 0xC074, symBinAddr: 0x10003F938, symSize: 0x8 }
  - { offsetInCU: 0x99F83, offset: 0x15771A, size: 0x8, addend: 0x0, symName: __ZN8CryptoPP35DL_GroupParameters_IntegerBasedImplINS_20ModExpPrecomputationENS_30DL_FixedBasePrecomputationImplINS_7IntegerEEEE24AccessBasePrecomputationEv, symObjAddr: 0xC07C, symBinAddr: 0x10003F940, symSize: 0x8 }
  - { offsetInCU: 0x99FBC, offset: 0x157753, size: 0x8, addend: 0x0, symName: __ZThn8_N8CryptoPP35DL_GroupParameters_IntegerBasedImplINS_20ModExpPrecomputationENS_30DL_FixedBasePrecomputationImplINS_7IntegerEEEE24AccessBasePrecomputationEv, symObjAddr: 0xC084, symBinAddr: 0x10003F948, symSize: 0x8 }
  - { offsetInCU: 0x99FD6, offset: 0x15776D, size: 0x8, addend: 0x0, symName: __ZThn8_N8CryptoPP35DL_GroupParameters_IntegerBasedImplINS_20ModExpPrecomputationENS_30DL_FixedBasePrecomputationImplINS_7IntegerEEEE24AccessBasePrecomputationEv, symObjAddr: 0xC084, symBinAddr: 0x10003F948, symSize: 0x8 }
  - { offsetInCU: 0x9A03E, offset: 0x1577D5, size: 0x8, addend: 0x0, symName: __ZNK8CryptoPP35DL_GroupParameters_IntegerBasedImplINS_20ModExpPrecomputationENS_30DL_FixedBasePrecomputationImplINS_7IntegerEEEE10GetModulusEv, symObjAddr: 0xC08C, symBinAddr: 0x10003F950, symSize: 0xC }
  - { offsetInCU: 0x9A067, offset: 0x1577FE, size: 0x8, addend: 0x0, symName: __ZNK8CryptoPP35DL_GroupParameters_IntegerBasedImplINS_20ModExpPrecomputationENS_30DL_FixedBasePrecomputationImplINS_7IntegerEEEE10GetModulusEv, symObjAddr: 0xC08C, symBinAddr: 0x10003F950, symSize: 0xC }
  - { offsetInCU: 0x9A087, offset: 0x15781E, size: 0x8, addend: 0x0, symName: __ZNK8CryptoPP35DL_GroupParameters_IntegerBasedImplINS_20ModExpPrecomputationENS_30DL_FixedBasePrecomputationImplINS_7IntegerEEEE10GetModulusEv, symObjAddr: 0xC08C, symBinAddr: 0x10003F950, symSize: 0xC }
  - { offsetInCU: 0x9A0EC, offset: 0x157883, size: 0x8, addend: 0x0, symName: __ZNK8CryptoPP35DL_GroupParameters_IntegerBasedImplINS_20ModExpPrecomputationENS_30DL_FixedBasePrecomputationImplINS_7IntegerEEEE12GetGeneratorEv, symObjAddr: 0xC098, symBinAddr: 0x10003F95C, symSize: 0x4C }
  - { offsetInCU: 0x9A1D5, offset: 0x15796C, size: 0x8, addend: 0x0, symName: __ZN8CryptoPP35DL_GroupParameters_IntegerBasedImplINS_20ModExpPrecomputationENS_30DL_FixedBasePrecomputationImplINS_7IntegerEEEE30SetModulusAndSubgroupGeneratorERKS3_S7_, symObjAddr: 0xC0E4, symBinAddr: 0x10003F9A8, symSize: 0x94 }
  - { offsetInCU: 0x9A307, offset: 0x157A9E, size: 0x8, addend: 0x0, symName: __ZNK8CryptoPP35DL_GroupParameters_IntegerBasedImplINS_20ModExpPrecomputationENS_30DL_FixedBasePrecomputationImplINS_7IntegerEEEEeqERKS5_, symObjAddr: 0xC178, symBinAddr: 0x10003FA3C, symSize: 0x11C }
  - { offsetInCU: 0x9A4FD, offset: 0x157C94, size: 0x8, addend: 0x0, symName: __ZNK8CryptoPP35DL_GroupParameters_IntegerBasedImplINS_20ModExpPrecomputationENS_30DL_FixedBasePrecomputationImplINS_7IntegerEEEEneERKS5_, symObjAddr: 0xC294, symBinAddr: 0x10003FB58, symSize: 0x18 }
  - { offsetInCU: 0x9A553, offset: 0x157CEA, size: 0x8, addend: 0x0, symName: __ZN8CryptoPP17DL_Algorithm_GDSAINS_7IntegerEE19StaticAlgorithmNameEv, symObjAddr: 0xC2AC, symBinAddr: 0x10003FB70, symSize: 0xC }
  - { offsetInCU: 0x9A567, offset: 0x157CFE, size: 0x8, addend: 0x0, symName: __ZN8CryptoPP17DL_Algorithm_GDSAINS_7IntegerEED2Ev, symObjAddr: 0xC2B8, symBinAddr: 0x10003FB7C, symSize: 0x4 }
  - { offsetInCU: 0x9A58F, offset: 0x157D26, size: 0x8, addend: 0x0, symName: __ZN8CryptoPP17DL_Algorithm_GDSAINS_7IntegerEED1Ev, symObjAddr: 0xC2BC, symBinAddr: 0x10003FB80, symSize: 0x4 }
  - { offsetInCU: 0x9A5B7, offset: 0x157D4E, size: 0x8, addend: 0x0, symName: __ZN8CryptoPP17DL_Algorithm_GDSAINS_7IntegerEED0Ev, symObjAddr: 0xC2C0, symBinAddr: 0x10003FB84, symSize: 0x4 }
  - { offsetInCU: 0x9A5DB, offset: 0x157D72, size: 0x8, addend: 0x0, symName: __ZN8CryptoPP17DL_Algorithm_GDSAINS_7IntegerEED0Ev, symObjAddr: 0xC2C0, symBinAddr: 0x10003FB84, symSize: 0x4 }
  - { offsetInCU: 0x9A612, offset: 0x157DA9, size: 0x8, addend: 0x0, symName: __ZNK8CryptoPP17DL_Algorithm_GDSAINS_7IntegerEE4SignERKNS_18DL_GroupParametersIS1_EERKS1_S8_S8_RS1_S9_, symObjAddr: 0xC2C4, symBinAddr: 0x10003FB88, symSize: 0x27C }
  - { offsetInCU: 0x9AF8A, offset: 0x158721, size: 0x8, addend: 0x0, symName: __ZNK8CryptoPP17DL_Algorithm_GDSAINS_7IntegerEE6VerifyERKNS_18DL_GroupParametersIS1_EERKNS_12DL_PublicKeyIS1_EERKS1_SC_SC_, symObjAddr: 0xC540, symBinAddr: 0x10003FE04, symSize: 0x43C }
  - { offsetInCU: 0x9BF90, offset: 0x159727, size: 0x8, addend: 0x0, symName: __ZN8CryptoPP24DL_Algorithm_DSA_RFC6979INS_7IntegerENS_4SHA1EE19StaticAlgorithmNameEv, symObjAddr: 0xC97C, symBinAddr: 0x100040240, symSize: 0xC }
  - { offsetInCU: 0x9C209, offset: 0x1599A0, size: 0x8, addend: 0x0, symName: __ZN8CryptoPP24DL_Algorithm_DSA_RFC6979INS_7IntegerENS_4SHA1EED2Ev, symObjAddr: 0xC988, symBinAddr: 0x10004024C, symSize: 0x174 }
  - { offsetInCU: 0x9CBC9, offset: 0x15A360, size: 0x8, addend: 0x0, symName: __ZN8CryptoPP24DL_Algorithm_DSA_RFC6979INS_7IntegerENS_4SHA1EED1Ev, symObjAddr: 0xCB78, symBinAddr: 0x1000403C0, symSize: 0x4 }
  - { offsetInCU: 0x9CBED, offset: 0x15A384, size: 0x8, addend: 0x0, symName: __ZN8CryptoPP24DL_Algorithm_DSA_RFC6979INS_7IntegerENS_4SHA1EED1Ev, symObjAddr: 0xCB78, symBinAddr: 0x1000403C0, symSize: 0x4 }
  - { offsetInCU: 0x9CC20, offset: 0x15A3B7, size: 0x8, addend: 0x0, symName: __ZThn8_N8CryptoPP24DL_Algorithm_DSA_RFC6979INS_7IntegerENS_4SHA1EED1Ev, symObjAddr: 0xCB7C, symBinAddr: 0x1000403C4, symSize: 0x8 }
  - { offsetInCU: 0x9CC63, offset: 0x15A3FA, size: 0x8, addend: 0x0, symName: __ZN8CryptoPP24DL_Algorithm_DSA_RFC6979INS_7IntegerENS_4SHA1EED0Ev, symObjAddr: 0xCB84, symBinAddr: 0x1000403CC, symSize: 0x38 }
  - { offsetInCU: 0x9CD02, offset: 0x15A499, size: 0x8, addend: 0x0, symName: __ZThn8_N8CryptoPP24DL_Algorithm_DSA_RFC6979INS_7IntegerENS_4SHA1EED0Ev, symObjAddr: 0xCBBC, symBinAddr: 0x100040404, symSize: 0x3C }
  - { offsetInCU: 0x9CD9A, offset: 0x15A531, size: 0x8, addend: 0x0, symName: __ZNK8CryptoPP24DL_Algorithm_DSA_RFC6979INS_7IntegerENS_4SHA1EE15IsProbabilisticEv, symObjAddr: 0xCBF8, symBinAddr: 0x100040440, symSize: 0x8 }
  - { offsetInCU: 0x9CDC1, offset: 0x15A558, size: 0x8, addend: 0x0, symName: __ZNK8CryptoPP24DL_Algorithm_DSA_RFC6979INS_7IntegerENS_4SHA1EE15IsDeterministicEv, symObjAddr: 0xCC00, symBinAddr: 0x100040448, symSize: 0x8 }
  - { offsetInCU: 0x9CE7E, offset: 0x15A615, size: 0x8, addend: 0x0, symName: __ZNK8CryptoPP24DL_Algorithm_DSA_RFC6979INS_7IntegerENS_4SHA1EE11bits2octetsERKNS_8SecBlockIhNS_20AllocatorWithCleanupIhLb0EEEEERKS1_, symObjAddr: 0xD280, symBinAddr: 0x100040AC8, symSize: 0x15C }
  - { offsetInCU: 0x9D281, offset: 0x15AA18, size: 0x8, addend: 0x0, symName: __ZNK8CryptoPP24DL_Algorithm_DSA_RFC6979INS_7IntegerENS_4SHA1EE10int2octetsERKS1_m, symObjAddr: 0xD4A4, symBinAddr: 0x100040CA0, symSize: 0x184 }
  - { offsetInCU: 0x9D59E, offset: 0x15AD35, size: 0x8, addend: 0x0, symName: __ZNK8CryptoPP24DL_Algorithm_DSA_RFC6979INS_7IntegerENS_4SHA1EE8bits2intERKNS_8SecBlockIhNS_20AllocatorWithCleanupIhLb0EEEEEm, symObjAddr: 0xD428, symBinAddr: 0x100040C24, symSize: 0x74 }
  - { offsetInCU: 0x9D65C, offset: 0x15ADF3, size: 0x8, addend: 0x0, symName: __ZThn8_NK8CryptoPP24DL_Algorithm_DSA_RFC6979INS_7IntegerENS_4SHA1EE14GenerateRandomERKS1_S5_S5_, symObjAddr: 0xD49C, symBinAddr: 0x100040C98, symSize: 0x8 }
  - { offsetInCU: 0x9D6A3, offset: 0x15AE3A, size: 0x8, addend: 0x0, symName: __ZN8CryptoPP24DL_Algorithm_DSA_RFC6979INS_7IntegerENS_6SHA224EE19StaticAlgorithmNameEv, symObjAddr: 0xD628, symBinAddr: 0x100040E24, symSize: 0xC }
  - { offsetInCU: 0x9D8C6, offset: 0x15B05D, size: 0x8, addend: 0x0, symName: __ZN8CryptoPP24DL_Algorithm_DSA_RFC6979INS_7IntegerENS_6SHA224EED2Ev, symObjAddr: 0xD634, symBinAddr: 0x100040E30, symSize: 0x174 }
  - { offsetInCU: 0x9E0DA, offset: 0x15B871, size: 0x8, addend: 0x0, symName: __ZN8CryptoPP6SHA224D1Ev, symObjAddr: 0xD7A8, symBinAddr: 0x100040FA4, symSize: 0x7C }
  - { offsetInCU: 0x9E0FD, offset: 0x15B894, size: 0x8, addend: 0x0, symName: __ZN8CryptoPP6SHA224D1Ev, symObjAddr: 0xD7A8, symBinAddr: 0x100040FA4, symSize: 0x7C }
  - { offsetInCU: 0x9E11A, offset: 0x15B8B1, size: 0x8, addend: 0x0, symName: __ZN8CryptoPP6SHA224D1Ev, symObjAddr: 0xD7A8, symBinAddr: 0x100040FA4, symSize: 0x7C }
  - { offsetInCU: 0x9E3D6, offset: 0x15BB6D, size: 0x8, addend: 0x0, symName: __ZN8CryptoPP24DL_Algorithm_DSA_RFC6979INS_7IntegerENS_6SHA224EED1Ev, symObjAddr: 0xD824, symBinAddr: 0x100041020, symSize: 0x4 }
  - { offsetInCU: 0x9E3FA, offset: 0x15BB91, size: 0x8, addend: 0x0, symName: __ZN8CryptoPP24DL_Algorithm_DSA_RFC6979INS_7IntegerENS_6SHA224EED1Ev, symObjAddr: 0xD824, symBinAddr: 0x100041020, symSize: 0x4 }
  - { offsetInCU: 0x9E42D, offset: 0x15BBC4, size: 0x8, addend: 0x0, symName: __ZThn8_N8CryptoPP24DL_Algorithm_DSA_RFC6979INS_7IntegerENS_6SHA224EED1Ev, symObjAddr: 0xD828, symBinAddr: 0x100041024, symSize: 0x8 }
  - { offsetInCU: 0x9E470, offset: 0x15BC07, size: 0x8, addend: 0x0, symName: __ZN8CryptoPP24DL_Algorithm_DSA_RFC6979INS_7IntegerENS_6SHA224EED0Ev, symObjAddr: 0xD830, symBinAddr: 0x10004102C, symSize: 0x38 }
  - { offsetInCU: 0x9E50F, offset: 0x15BCA6, size: 0x8, addend: 0x0, symName: __ZThn8_N8CryptoPP24DL_Algorithm_DSA_RFC6979INS_7IntegerENS_6SHA224EED0Ev, symObjAddr: 0xD868, symBinAddr: 0x100041064, symSize: 0x3C }
  - { offsetInCU: 0x9E5A7, offset: 0x15BD3E, size: 0x8, addend: 0x0, symName: __ZNK8CryptoPP24DL_Algorithm_DSA_RFC6979INS_7IntegerENS_6SHA224EE15IsProbabilisticEv, symObjAddr: 0xD8A4, symBinAddr: 0x1000410A0, symSize: 0x8 }
  - { offsetInCU: 0x9E5CE, offset: 0x15BD65, size: 0x8, addend: 0x0, symName: __ZNK8CryptoPP24DL_Algorithm_DSA_RFC6979INS_7IntegerENS_6SHA224EE15IsDeterministicEv, symObjAddr: 0xD8AC, symBinAddr: 0x1000410A8, symSize: 0x8 }
  - { offsetInCU: 0x9E644, offset: 0x15BDDB, size: 0x8, addend: 0x0, symName: __ZNK8CryptoPP24DL_Algorithm_DSA_RFC6979INS_7IntegerENS_6SHA224EE11bits2octetsERKNS_8SecBlockIhNS_20AllocatorWithCleanupIhLb0EEEEERKS1_, symObjAddr: 0xDF34, symBinAddr: 0x100041730, symSize: 0x15C }
  - { offsetInCU: 0x9EA31, offset: 0x15C1C8, size: 0x8, addend: 0x0, symName: __ZNK8CryptoPP24DL_Algorithm_DSA_RFC6979INS_7IntegerENS_6SHA224EE10int2octetsERKS1_m, symObjAddr: 0xE10C, symBinAddr: 0x100041908, symSize: 0x184 }
  - { offsetInCU: 0x9ED4E, offset: 0x15C4E5, size: 0x8, addend: 0x0, symName: __ZNK8CryptoPP24DL_Algorithm_DSA_RFC6979INS_7IntegerENS_6SHA224EE8bits2intERKNS_8SecBlockIhNS_20AllocatorWithCleanupIhLb0EEEEEm, symObjAddr: 0xE090, symBinAddr: 0x10004188C, symSize: 0x74 }
  - { offsetInCU: 0x9EE0C, offset: 0x15C5A3, size: 0x8, addend: 0x0, symName: __ZThn8_NK8CryptoPP24DL_Algorithm_DSA_RFC6979INS_7IntegerENS_6SHA224EE14GenerateRandomERKS1_S5_S5_, symObjAddr: 0xE104, symBinAddr: 0x100041900, symSize: 0x8 }
  - { offsetInCU: 0x9EE53, offset: 0x15C5EA, size: 0x8, addend: 0x0, symName: __ZN8CryptoPP24DL_Algorithm_DSA_RFC6979INS_7IntegerENS_6SHA256EE19StaticAlgorithmNameEv, symObjAddr: 0xE290, symBinAddr: 0x100041A8C, symSize: 0xC }
  - { offsetInCU: 0x9EFBC, offset: 0x15C753, size: 0x8, addend: 0x0, symName: __ZN8CryptoPP24DL_Algorithm_DSA_RFC6979INS_7IntegerENS_6SHA256EED2Ev, symObjAddr: 0xE29C, symBinAddr: 0x100041A98, symSize: 0x174 }
  - { offsetInCU: 0x9F7D0, offset: 0x15CF67, size: 0x8, addend: 0x0, symName: __ZN8CryptoPP6SHA256D1Ev, symObjAddr: 0xE4E8, symBinAddr: 0x100041CE4, symSize: 0x7C }
  - { offsetInCU: 0x9F7F3, offset: 0x15CF8A, size: 0x8, addend: 0x0, symName: __ZN8CryptoPP6SHA256D1Ev, symObjAddr: 0xE4E8, symBinAddr: 0x100041CE4, symSize: 0x7C }
  - { offsetInCU: 0x9F810, offset: 0x15CFA7, size: 0x8, addend: 0x0, symName: __ZN8CryptoPP6SHA256D1Ev, symObjAddr: 0xE4E8, symBinAddr: 0x100041CE4, symSize: 0x7C }
  - { offsetInCU: 0x9FACC, offset: 0x15D263, size: 0x8, addend: 0x0, symName: __ZN8CryptoPP4HMACINS_6SHA256EED1Ev, symObjAddr: 0xE410, symBinAddr: 0x100041C0C, symSize: 0xD8 }
  - { offsetInCU: 0x9FF94, offset: 0x15D72B, size: 0x8, addend: 0x0, symName: __ZN8CryptoPP24DL_Algorithm_DSA_RFC6979INS_7IntegerENS_6SHA256EED1Ev, symObjAddr: 0xE564, symBinAddr: 0x100041D60, symSize: 0x4 }
  - { offsetInCU: 0x9FFB8, offset: 0x15D74F, size: 0x8, addend: 0x0, symName: __ZN8CryptoPP24DL_Algorithm_DSA_RFC6979INS_7IntegerENS_6SHA256EED1Ev, symObjAddr: 0xE564, symBinAddr: 0x100041D60, symSize: 0x4 }
  - { offsetInCU: 0x9FFEB, offset: 0x15D782, size: 0x8, addend: 0x0, symName: __ZThn8_N8CryptoPP24DL_Algorithm_DSA_RFC6979INS_7IntegerENS_6SHA256EED1Ev, symObjAddr: 0xE568, symBinAddr: 0x100041D64, symSize: 0x8 }
  - { offsetInCU: 0xA002E, offset: 0x15D7C5, size: 0x8, addend: 0x0, symName: __ZN8CryptoPP24DL_Algorithm_DSA_RFC6979INS_7IntegerENS_6SHA256EED0Ev, symObjAddr: 0xE570, symBinAddr: 0x100041D6C, symSize: 0x38 }
  - { offsetInCU: 0xA00CD, offset: 0x15D864, size: 0x8, addend: 0x0, symName: __ZThn8_N8CryptoPP24DL_Algorithm_DSA_RFC6979INS_7IntegerENS_6SHA256EED0Ev, symObjAddr: 0xE5A8, symBinAddr: 0x100041DA4, symSize: 0x3C }
  - { offsetInCU: 0xA0165, offset: 0x15D8FC, size: 0x8, addend: 0x0, symName: __ZNK8CryptoPP24DL_Algorithm_DSA_RFC6979INS_7IntegerENS_6SHA256EE15IsProbabilisticEv, symObjAddr: 0xE5E4, symBinAddr: 0x100041DE0, symSize: 0x8 }
  - { offsetInCU: 0xA018C, offset: 0x15D923, size: 0x8, addend: 0x0, symName: __ZNK8CryptoPP24DL_Algorithm_DSA_RFC6979INS_7IntegerENS_6SHA256EE15IsDeterministicEv, symObjAddr: 0xE5EC, symBinAddr: 0x100041DE8, symSize: 0x8 }
  - { offsetInCU: 0xA0202, offset: 0x15D999, size: 0x8, addend: 0x0, symName: __ZNK8CryptoPP24DL_Algorithm_DSA_RFC6979INS_7IntegerENS_6SHA256EE11bits2octetsERKNS_8SecBlockIhNS_20AllocatorWithCleanupIhLb0EEEEERKS1_, symObjAddr: 0xEC68, symBinAddr: 0x100042464, symSize: 0x15C }
  - { offsetInCU: 0xA05EF, offset: 0x15DD86, size: 0x8, addend: 0x0, symName: __ZNK8CryptoPP24DL_Algorithm_DSA_RFC6979INS_7IntegerENS_6SHA256EE10int2octetsERKS1_m, symObjAddr: 0xEE40, symBinAddr: 0x10004263C, symSize: 0x184 }
  - { offsetInCU: 0xA090C, offset: 0x15E0A3, size: 0x8, addend: 0x0, symName: __ZNK8CryptoPP24DL_Algorithm_DSA_RFC6979INS_7IntegerENS_6SHA256EE8bits2intERKNS_8SecBlockIhNS_20AllocatorWithCleanupIhLb0EEEEEm, symObjAddr: 0xEDC4, symBinAddr: 0x1000425C0, symSize: 0x74 }
  - { offsetInCU: 0xA09CA, offset: 0x15E161, size: 0x8, addend: 0x0, symName: __ZThn8_NK8CryptoPP24DL_Algorithm_DSA_RFC6979INS_7IntegerENS_6SHA256EE14GenerateRandomERKS1_S5_S5_, symObjAddr: 0xEE38, symBinAddr: 0x100042634, symSize: 0x8 }
  - { offsetInCU: 0xA0A11, offset: 0x15E1A8, size: 0x8, addend: 0x0, symName: __ZN8CryptoPP24DL_Algorithm_DSA_RFC6979INS_7IntegerENS_6SHA384EE19StaticAlgorithmNameEv, symObjAddr: 0xEFC4, symBinAddr: 0x1000427C0, symSize: 0xC }
  - { offsetInCU: 0xA0CEB, offset: 0x15E482, size: 0x8, addend: 0x0, symName: __ZN8CryptoPP24DL_Algorithm_DSA_RFC6979INS_7IntegerENS_6SHA384EED2Ev, symObjAddr: 0xEFD0, symBinAddr: 0x1000427CC, symSize: 0x17C }
  - { offsetInCU: 0xA14FF, offset: 0x15EC96, size: 0x8, addend: 0x0, symName: __ZN8CryptoPP6SHA384D1Ev, symObjAddr: 0xF14C, symBinAddr: 0x100042948, symSize: 0x7C }
  - { offsetInCU: 0xA1522, offset: 0x15ECB9, size: 0x8, addend: 0x0, symName: __ZN8CryptoPP6SHA384D1Ev, symObjAddr: 0xF14C, symBinAddr: 0x100042948, symSize: 0x7C }
  - { offsetInCU: 0xA153F, offset: 0x15ECD6, size: 0x8, addend: 0x0, symName: __ZN8CryptoPP6SHA384D1Ev, symObjAddr: 0xF14C, symBinAddr: 0x100042948, symSize: 0x7C }
  - { offsetInCU: 0xA17FB, offset: 0x15EF92, size: 0x8, addend: 0x0, symName: __ZN8CryptoPP24DL_Algorithm_DSA_RFC6979INS_7IntegerENS_6SHA384EED1Ev, symObjAddr: 0xF1C8, symBinAddr: 0x1000429C4, symSize: 0x4 }
  - { offsetInCU: 0xA181F, offset: 0x15EFB6, size: 0x8, addend: 0x0, symName: __ZN8CryptoPP24DL_Algorithm_DSA_RFC6979INS_7IntegerENS_6SHA384EED1Ev, symObjAddr: 0xF1C8, symBinAddr: 0x1000429C4, symSize: 0x4 }
  - { offsetInCU: 0xA1852, offset: 0x15EFE9, size: 0x8, addend: 0x0, symName: __ZThn8_N8CryptoPP24DL_Algorithm_DSA_RFC6979INS_7IntegerENS_6SHA384EED1Ev, symObjAddr: 0xF1CC, symBinAddr: 0x1000429C8, symSize: 0x8 }
  - { offsetInCU: 0xA1895, offset: 0x15F02C, size: 0x8, addend: 0x0, symName: __ZN8CryptoPP24DL_Algorithm_DSA_RFC6979INS_7IntegerENS_6SHA384EED0Ev, symObjAddr: 0xF1D4, symBinAddr: 0x1000429D0, symSize: 0x38 }
  - { offsetInCU: 0xA1934, offset: 0x15F0CB, size: 0x8, addend: 0x0, symName: __ZThn8_N8CryptoPP24DL_Algorithm_DSA_RFC6979INS_7IntegerENS_6SHA384EED0Ev, symObjAddr: 0xF20C, symBinAddr: 0x100042A08, symSize: 0x3C }
  - { offsetInCU: 0xA19CC, offset: 0x15F163, size: 0x8, addend: 0x0, symName: __ZNK8CryptoPP24DL_Algorithm_DSA_RFC6979INS_7IntegerENS_6SHA384EE15IsProbabilisticEv, symObjAddr: 0xF248, symBinAddr: 0x100042A44, symSize: 0x8 }
  - { offsetInCU: 0xA19F3, offset: 0x15F18A, size: 0x8, addend: 0x0, symName: __ZNK8CryptoPP24DL_Algorithm_DSA_RFC6979INS_7IntegerENS_6SHA384EE15IsDeterministicEv, symObjAddr: 0xF250, symBinAddr: 0x100042A4C, symSize: 0x8 }
  - { offsetInCU: 0xA1A69, offset: 0x15F200, size: 0x8, addend: 0x0, symName: __ZNK8CryptoPP24DL_Algorithm_DSA_RFC6979INS_7IntegerENS_6SHA384EE11bits2octetsERKNS_8SecBlockIhNS_20AllocatorWithCleanupIhLb0EEEEERKS1_, symObjAddr: 0xF8D4, symBinAddr: 0x1000430D0, symSize: 0x15C }
  - { offsetInCU: 0xA1E56, offset: 0x15F5ED, size: 0x8, addend: 0x0, symName: __ZNK8CryptoPP24DL_Algorithm_DSA_RFC6979INS_7IntegerENS_6SHA384EE10int2octetsERKS1_m, symObjAddr: 0xFAAC, symBinAddr: 0x1000432A8, symSize: 0x184 }
  - { offsetInCU: 0xA2173, offset: 0x15F90A, size: 0x8, addend: 0x0, symName: __ZNK8CryptoPP24DL_Algorithm_DSA_RFC6979INS_7IntegerENS_6SHA384EE8bits2intERKNS_8SecBlockIhNS_20AllocatorWithCleanupIhLb0EEEEEm, symObjAddr: 0xFA30, symBinAddr: 0x10004322C, symSize: 0x74 }
  - { offsetInCU: 0xA2231, offset: 0x15F9C8, size: 0x8, addend: 0x0, symName: __ZThn8_NK8CryptoPP24DL_Algorithm_DSA_RFC6979INS_7IntegerENS_6SHA384EE14GenerateRandomERKS1_S5_S5_, symObjAddr: 0xFAA4, symBinAddr: 0x1000432A0, symSize: 0x8 }
  - { offsetInCU: 0xA2278, offset: 0x15FA0F, size: 0x8, addend: 0x0, symName: __ZN8CryptoPP24DL_Algorithm_DSA_RFC6979INS_7IntegerENS_6SHA512EE19StaticAlgorithmNameEv, symObjAddr: 0xFC30, symBinAddr: 0x10004342C, symSize: 0xC }
  - { offsetInCU: 0xA23E6, offset: 0x15FB7D, size: 0x8, addend: 0x0, symName: __ZN8CryptoPP24DL_Algorithm_DSA_RFC6979INS_7IntegerENS_6SHA512EED2Ev, symObjAddr: 0xFC3C, symBinAddr: 0x100043438, symSize: 0x17C }
  - { offsetInCU: 0xA2BFA, offset: 0x160391, size: 0x8, addend: 0x0, symName: __ZN8CryptoPP6SHA512D1Ev, symObjAddr: 0xFDB8, symBinAddr: 0x1000435B4, symSize: 0x7C }
  - { offsetInCU: 0xA2C1D, offset: 0x1603B4, size: 0x8, addend: 0x0, symName: __ZN8CryptoPP6SHA512D1Ev, symObjAddr: 0xFDB8, symBinAddr: 0x1000435B4, symSize: 0x7C }
  - { offsetInCU: 0xA2C3A, offset: 0x1603D1, size: 0x8, addend: 0x0, symName: __ZN8CryptoPP6SHA512D1Ev, symObjAddr: 0xFDB8, symBinAddr: 0x1000435B4, symSize: 0x7C }
  - { offsetInCU: 0xA2EF6, offset: 0x16068D, size: 0x8, addend: 0x0, symName: __ZN8CryptoPP24DL_Algorithm_DSA_RFC6979INS_7IntegerENS_6SHA512EED1Ev, symObjAddr: 0xFE34, symBinAddr: 0x100043630, symSize: 0x4 }
  - { offsetInCU: 0xA2F1A, offset: 0x1606B1, size: 0x8, addend: 0x0, symName: __ZN8CryptoPP24DL_Algorithm_DSA_RFC6979INS_7IntegerENS_6SHA512EED1Ev, symObjAddr: 0xFE34, symBinAddr: 0x100043630, symSize: 0x4 }
  - { offsetInCU: 0xA2F4D, offset: 0x1606E4, size: 0x8, addend: 0x0, symName: __ZThn8_N8CryptoPP24DL_Algorithm_DSA_RFC6979INS_7IntegerENS_6SHA512EED1Ev, symObjAddr: 0xFE38, symBinAddr: 0x100043634, symSize: 0x8 }
  - { offsetInCU: 0xA2F90, offset: 0x160727, size: 0x8, addend: 0x0, symName: __ZN8CryptoPP24DL_Algorithm_DSA_RFC6979INS_7IntegerENS_6SHA512EED0Ev, symObjAddr: 0xFE40, symBinAddr: 0x10004363C, symSize: 0x38 }
  - { offsetInCU: 0xA302F, offset: 0x1607C6, size: 0x8, addend: 0x0, symName: __ZThn8_N8CryptoPP24DL_Algorithm_DSA_RFC6979INS_7IntegerENS_6SHA512EED0Ev, symObjAddr: 0xFE78, symBinAddr: 0x100043674, symSize: 0x3C }
  - { offsetInCU: 0xA30C7, offset: 0x16085E, size: 0x8, addend: 0x0, symName: __ZNK8CryptoPP24DL_Algorithm_DSA_RFC6979INS_7IntegerENS_6SHA512EE15IsProbabilisticEv, symObjAddr: 0xFEB4, symBinAddr: 0x1000436B0, symSize: 0x8 }
  - { offsetInCU: 0xA30EE, offset: 0x160885, size: 0x8, addend: 0x0, symName: __ZNK8CryptoPP24DL_Algorithm_DSA_RFC6979INS_7IntegerENS_6SHA512EE15IsDeterministicEv, symObjAddr: 0xFEBC, symBinAddr: 0x1000436B8, symSize: 0x8 }
  - { offsetInCU: 0xA3164, offset: 0x1608FB, size: 0x8, addend: 0x0, symName: __ZNK8CryptoPP24DL_Algorithm_DSA_RFC6979INS_7IntegerENS_6SHA512EE11bits2octetsERKNS_8SecBlockIhNS_20AllocatorWithCleanupIhLb0EEEEERKS1_, symObjAddr: 0x10540, symBinAddr: 0x100043D3C, symSize: 0x15C }
  - { offsetInCU: 0xA3551, offset: 0x160CE8, size: 0x8, addend: 0x0, symName: __ZNK8CryptoPP24DL_Algorithm_DSA_RFC6979INS_7IntegerENS_6SHA512EE10int2octetsERKS1_m, symObjAddr: 0x10718, symBinAddr: 0x100043F14, symSize: 0x184 }
  - { offsetInCU: 0xA386E, offset: 0x161005, size: 0x8, addend: 0x0, symName: __ZNK8CryptoPP24DL_Algorithm_DSA_RFC6979INS_7IntegerENS_6SHA512EE8bits2intERKNS_8SecBlockIhNS_20AllocatorWithCleanupIhLb0EEEEEm, symObjAddr: 0x1069C, symBinAddr: 0x100043E98, symSize: 0x74 }
  - { offsetInCU: 0xA392C, offset: 0x1610C3, size: 0x8, addend: 0x0, symName: __ZThn8_NK8CryptoPP24DL_Algorithm_DSA_RFC6979INS_7IntegerENS_6SHA512EE14GenerateRandomERKS1_S5_S5_, symObjAddr: 0x10710, symBinAddr: 0x100043F0C, symSize: 0x8 }
  - { offsetInCU: 0xA3A5C, offset: 0x1611F3, size: 0x8, addend: 0x0, symName: __ZN8CryptoPP16DL_PublicKey_GFPINS_22DL_GroupParameters_DSAEED2Ev, symObjAddr: 0x1089C, symBinAddr: 0x100044098, symSize: 0xD0 }
  - { offsetInCU: 0xA3CB4, offset: 0x16144B, size: 0x8, addend: 0x0, symName: __ZN8CryptoPP16DL_PublicKey_GFPINS_22DL_GroupParameters_DSAEED1Ev, symObjAddr: 0x1096C, symBinAddr: 0x100044168, symSize: 0xA4 }
  - { offsetInCU: 0xA3EDC, offset: 0x161673, size: 0x8, addend: 0x0, symName: __ZThn8_N8CryptoPP16DL_PublicKey_GFPINS_22DL_GroupParameters_DSAEED1Ev, symObjAddr: 0x10A10, symBinAddr: 0x10004420C, symSize: 0x9C }
  - { offsetInCU: 0xA4120, offset: 0x1618B7, size: 0x8, addend: 0x0, symName: __ZTv0_n24_N8CryptoPP16DL_PublicKey_GFPINS_22DL_GroupParameters_DSAEED1Ev, symObjAddr: 0x10AAC, symBinAddr: 0x1000442A8, symSize: 0xA8 }
  - { offsetInCU: 0xA435B, offset: 0x161AF2, size: 0x8, addend: 0x0, symName: __ZThn16_N8CryptoPP16DL_PublicKey_GFPINS_22DL_GroupParameters_DSAEED1Ev, symObjAddr: 0x10B54, symBinAddr: 0x100044350, symSize: 0x98 }
  - { offsetInCU: 0xA458D, offset: 0x161D24, size: 0x8, addend: 0x0, symName: __ZN8CryptoPP16DL_PublicKey_GFPINS_22DL_GroupParameters_DSAEED0Ev, symObjAddr: 0x10BEC, symBinAddr: 0x1000443E8, symSize: 0xB4 }
  - { offsetInCU: 0xA4806, offset: 0x161F9D, size: 0x8, addend: 0x0, symName: __ZThn8_N8CryptoPP16DL_PublicKey_GFPINS_22DL_GroupParameters_DSAEED0Ev, symObjAddr: 0x10CA0, symBinAddr: 0x10004449C, symSize: 0xBC }
  - { offsetInCU: 0xA4A7D, offset: 0x162214, size: 0x8, addend: 0x0, symName: __ZTv0_n24_N8CryptoPP16DL_PublicKey_GFPINS_22DL_GroupParameters_DSAEED0Ev, symObjAddr: 0x10D5C, symBinAddr: 0x100044558, symSize: 0xBC }
  - { offsetInCU: 0xA4CF9, offset: 0x162490, size: 0x8, addend: 0x0, symName: __ZThn16_N8CryptoPP16DL_PublicKey_GFPINS_22DL_GroupParameters_DSAEED0Ev, symObjAddr: 0x10E18, symBinAddr: 0x100044614, symSize: 0xC0 }
  - { offsetInCU: 0xA4FDE, offset: 0x162775, size: 0x8, addend: 0x0, symName: __ZN8CryptoPP16DL_PublicKey_GFPINS_22DL_GroupParameters_DSAEE10InitializeERKNS_31DL_GroupParameters_IntegerBasedERKNS_7IntegerE, symObjAddr: 0x10ED8, symBinAddr: 0x1000446D4, symSize: 0xA4 }
  - { offsetInCU: 0xA5141, offset: 0x1628D8, size: 0x8, addend: 0x0, symName: __ZN8CryptoPP16DL_PublicKey_GFPINS_22DL_GroupParameters_DSAEE10InitializeERKNS_7IntegerES5_S5_, symObjAddr: 0x10F7C, symBinAddr: 0x100044778, symSize: 0x38 }
  - { offsetInCU: 0xA51F6, offset: 0x16298D, size: 0x8, addend: 0x0, symName: __ZN8CryptoPP31DL_GroupParameters_IntegerBased10InitializeERKNS_7IntegerES3_, symObjAddr: 0x10FB4, symBinAddr: 0x1000447B0, symSize: 0xF8 }
  - { offsetInCU: 0xA5587, offset: 0x162D1E, size: 0x8, addend: 0x0, symName: __ZNK8CryptoPP31DL_GroupParameters_IntegerBased17ComputeGroupOrderERKNS_7IntegerE, symObjAddr: 0x37810, symBinAddr: 0x10006854C, symSize: 0xAC }
  - { offsetInCU: 0xA573E, offset: 0x162ED5, size: 0x8, addend: 0x0, symName: __ZN8CryptoPP16DL_PublicKey_GFPINS_22DL_GroupParameters_DSAEE10InitializeERKNS_7IntegerES5_S5_S5_, symObjAddr: 0x110AC, symBinAddr: 0x1000448A8, symSize: 0x5C }
  - { offsetInCU: 0xA5851, offset: 0x162FE8, size: 0x8, addend: 0x0, symName: __ZN8CryptoPP16DL_PublicKey_GFPINS_22DL_GroupParameters_DSAEE18BERDecodePublicKeyERNS_22BufferedTransformationEbm, symObjAddr: 0x11108, symBinAddr: 0x100044904, symSize: 0x94 }
  - { offsetInCU: 0xA5A28, offset: 0x1631BF, size: 0x8, addend: 0x0, symName: __ZThn8_N8CryptoPP16DL_PublicKey_GFPINS_22DL_GroupParameters_DSAEE18BERDecodePublicKeyERNS_22BufferedTransformationEbm, symObjAddr: 0x1119C, symBinAddr: 0x100044998, symSize: 0xC8 }
  - { offsetInCU: 0xA5CDC, offset: 0x163473, size: 0x8, addend: 0x0, symName: __ZNK8CryptoPP16DL_PublicKey_GFPINS_22DL_GroupParameters_DSAEE18DEREncodePublicKeyERNS_22BufferedTransformationE, symObjAddr: 0x11264, symBinAddr: 0x100044A60, symSize: 0x34 }
  - { offsetInCU: 0xA5D5A, offset: 0x1634F1, size: 0x8, addend: 0x0, symName: __ZThn8_NK8CryptoPP16DL_PublicKey_GFPINS_22DL_GroupParameters_DSAEE18DEREncodePublicKeyERNS_22BufferedTransformationE, symObjAddr: 0x11298, symBinAddr: 0x100044A94, symSize: 0x34 }
  - { offsetInCU: 0xA5DC0, offset: 0x163557, size: 0x8, addend: 0x0, symName: __ZN8CryptoPP17DL_PrivateKey_GFPINS_22DL_GroupParameters_DSAEED2Ev, symObjAddr: 0x112CC, symBinAddr: 0x100044AC8, symSize: 0x8 }
  - { offsetInCU: 0xA5E02, offset: 0x163599, size: 0x8, addend: 0x0, symName: __ZN8CryptoPP17DL_PrivateKeyImplINS_22DL_GroupParameters_DSAEED2Ev, symObjAddr: 0x112D4, symBinAddr: 0x100044AD0, symSize: 0x130 }
  - { offsetInCU: 0xA6125, offset: 0x1638BC, size: 0x8, addend: 0x0, symName: __ZN8CryptoPP10DL_KeyImplINS_15PKCS8PrivateKeyENS_22DL_GroupParameters_DSAENS_3OIDEED2Ev, symObjAddr: 0x4699C, symBinAddr: 0x1000767C4, symSize: 0xB4 }
  - { offsetInCU: 0xA6276, offset: 0x163A0D, size: 0x8, addend: 0x0, symName: __ZN8CryptoPP17DL_PrivateKey_GFPINS_22DL_GroupParameters_DSAEED1Ev, symObjAddr: 0x11404, symBinAddr: 0x100044C00, symSize: 0x10 }
  - { offsetInCU: 0xA6299, offset: 0x163A30, size: 0x8, addend: 0x0, symName: __ZN8CryptoPP17DL_PrivateKey_GFPINS_22DL_GroupParameters_DSAEED1Ev, symObjAddr: 0x11404, symBinAddr: 0x100044C00, symSize: 0x10 }
  - { offsetInCU: 0xA62F3, offset: 0x163A8A, size: 0x8, addend: 0x0, symName: __ZThn8_N8CryptoPP17DL_PrivateKey_GFPINS_22DL_GroupParameters_DSAEED1Ev, symObjAddr: 0x11414, symBinAddr: 0x100044C10, symSize: 0x14 }
  - { offsetInCU: 0xA635F, offset: 0x163AF6, size: 0x8, addend: 0x0, symName: __ZTv0_n24_N8CryptoPP17DL_PrivateKey_GFPINS_22DL_GroupParameters_DSAEED1Ev, symObjAddr: 0x11428, symBinAddr: 0x100044C24, symSize: 0x1C }
  - { offsetInCU: 0xA63CB, offset: 0x163B62, size: 0x8, addend: 0x0, symName: __ZThn16_N8CryptoPP17DL_PrivateKey_GFPINS_22DL_GroupParameters_DSAEED1Ev, symObjAddr: 0x11444, symBinAddr: 0x100044C40, symSize: 0x14 }
  - { offsetInCU: 0xA6437, offset: 0x163BCE, size: 0x8, addend: 0x0, symName: __ZN8CryptoPP17DL_PrivateKey_GFPINS_22DL_GroupParameters_DSAEED0Ev, symObjAddr: 0x11458, symBinAddr: 0x100044C54, symSize: 0x44 }
  - { offsetInCU: 0xA6501, offset: 0x163C98, size: 0x8, addend: 0x0, symName: __ZThn8_N8CryptoPP17DL_PrivateKey_GFPINS_22DL_GroupParameters_DSAEED0Ev, symObjAddr: 0x1149C, symBinAddr: 0x100044C98, symSize: 0x48 }
  - { offsetInCU: 0xA65C2, offset: 0x163D59, size: 0x8, addend: 0x0, symName: __ZTv0_n24_N8CryptoPP17DL_PrivateKey_GFPINS_22DL_GroupParameters_DSAEED0Ev, symObjAddr: 0x114E4, symBinAddr: 0x100044CE0, symSize: 0x50 }
  - { offsetInCU: 0xA6683, offset: 0x163E1A, size: 0x8, addend: 0x0, symName: __ZThn16_N8CryptoPP17DL_PrivateKey_GFPINS_22DL_GroupParameters_DSAEED0Ev, symObjAddr: 0x11534, symBinAddr: 0x100044D30, symSize: 0x48 }
  - { offsetInCU: 0xA6744, offset: 0x163EDB, size: 0x8, addend: 0x0, symName: __ZN8CryptoPP17DL_PrivateKey_GFPINS_22DL_GroupParameters_DSAEE10InitializeERNS_21RandomNumberGeneratorEj, symObjAddr: 0x1157C, symBinAddr: 0x100044D78, symSize: 0x8 }
  - { offsetInCU: 0xA6818, offset: 0x163FAF, size: 0x8, addend: 0x0, symName: __ZN8CryptoPP17DL_PrivateKey_GFPINS_22DL_GroupParameters_DSAEE10InitializeERNS_21RandomNumberGeneratorERKNS_7IntegerES7_, symObjAddr: 0x11584, symBinAddr: 0x100044D80, symSize: 0x130 }
  - { offsetInCU: 0xA6C9C, offset: 0x164433, size: 0x8, addend: 0x0, symName: __ZN8CryptoPP17DL_PrivateKey_GFPINS_22DL_GroupParameters_DSAEE10InitializeERNS_21RandomNumberGeneratorERKNS_7IntegerES7_S7_, symObjAddr: 0x116B4, symBinAddr: 0x100044EB0, symSize: 0x150 }
  - { offsetInCU: 0xA6FE7, offset: 0x16477E, size: 0x8, addend: 0x0, symName: __ZN8CryptoPP17DL_PrivateKey_GFPINS_22DL_GroupParameters_DSAEE10InitializeERKNS_31DL_GroupParameters_IntegerBasedERKNS_7IntegerE, symObjAddr: 0x11804, symBinAddr: 0x100045000, symSize: 0xA4 }
  - { offsetInCU: 0xA714A, offset: 0x1648E1, size: 0x8, addend: 0x0, symName: __ZN8CryptoPP17DL_PrivateKey_GFPINS_22DL_GroupParameters_DSAEE10InitializeERKNS_7IntegerES5_S5_, symObjAddr: 0x118A8, symBinAddr: 0x1000450A4, symSize: 0x38 }
  - { offsetInCU: 0xA71FF, offset: 0x164996, size: 0x8, addend: 0x0, symName: __ZN8CryptoPP17DL_PrivateKey_GFPINS_22DL_GroupParameters_DSAEE10InitializeERKNS_7IntegerES5_S5_S5_, symObjAddr: 0x118E0, symBinAddr: 0x1000450DC, symSize: 0x5C }
  - { offsetInCU: 0xA7317, offset: 0x164AAE, size: 0x8, addend: 0x0, symName: __ZN8CryptoPP50DL_PrivateKey_WithSignaturePairwiseConsistencyTestINS_17DL_PrivateKey_GFPINS_22DL_GroupParameters_DSAEEENS_4DSA2INS_4SHA1EEEED2Ev, symObjAddr: 0x1193C, symBinAddr: 0x100045138, symSize: 0x8 }
  - { offsetInCU: 0xA7344, offset: 0x164ADB, size: 0x8, addend: 0x0, symName: __ZN8CryptoPP50DL_PrivateKey_WithSignaturePairwiseConsistencyTestINS_17DL_PrivateKey_GFPINS_22DL_GroupParameters_DSAEEENS_4DSA2INS_4SHA1EEEED2Ev, symObjAddr: 0x1193C, symBinAddr: 0x100045138, symSize: 0x8 }
  - { offsetInCU: 0xA73AB, offset: 0x164B42, size: 0x8, addend: 0x0, symName: __ZN8CryptoPP50DL_PrivateKey_WithSignaturePairwiseConsistencyTestINS_17DL_PrivateKey_GFPINS_22DL_GroupParameters_DSAEEENS_4DSA2INS_4SHA1EEEED1Ev, symObjAddr: 0x11944, symBinAddr: 0x100045140, symSize: 0x10 }
  - { offsetInCU: 0xA73CE, offset: 0x164B65, size: 0x8, addend: 0x0, symName: __ZN8CryptoPP50DL_PrivateKey_WithSignaturePairwiseConsistencyTestINS_17DL_PrivateKey_GFPINS_22DL_GroupParameters_DSAEEENS_4DSA2INS_4SHA1EEEED1Ev, symObjAddr: 0x11944, symBinAddr: 0x100045140, symSize: 0x10 }
  - { offsetInCU: 0xA73F6, offset: 0x164B8D, size: 0x8, addend: 0x0, symName: __ZN8CryptoPP50DL_PrivateKey_WithSignaturePairwiseConsistencyTestINS_17DL_PrivateKey_GFPINS_22DL_GroupParameters_DSAEEENS_4DSA2INS_4SHA1EEEED1Ev, symObjAddr: 0x11944, symBinAddr: 0x100045140, symSize: 0x10 }
  - { offsetInCU: 0xA744F, offset: 0x164BE6, size: 0x8, addend: 0x0, symName: __ZThn8_N8CryptoPP50DL_PrivateKey_WithSignaturePairwiseConsistencyTestINS_17DL_PrivateKey_GFPINS_22DL_GroupParameters_DSAEEENS_4DSA2INS_4SHA1EEEED1Ev, symObjAddr: 0x11954, symBinAddr: 0x100045150, symSize: 0x14 }
  - { offsetInCU: 0xA74E4, offset: 0x164C7B, size: 0x8, addend: 0x0, symName: __ZTv0_n24_N8CryptoPP50DL_PrivateKey_WithSignaturePairwiseConsistencyTestINS_17DL_PrivateKey_GFPINS_22DL_GroupParameters_DSAEEENS_4DSA2INS_4SHA1EEEED1Ev, symObjAddr: 0x11968, symBinAddr: 0x100045164, symSize: 0x1C }
  - { offsetInCU: 0xA7579, offset: 0x164D10, size: 0x8, addend: 0x0, symName: __ZThn16_N8CryptoPP50DL_PrivateKey_WithSignaturePairwiseConsistencyTestINS_17DL_PrivateKey_GFPINS_22DL_GroupParameters_DSAEEENS_4DSA2INS_4SHA1EEEED1Ev, symObjAddr: 0x11984, symBinAddr: 0x100045180, symSize: 0x14 }
  - { offsetInCU: 0xA760E, offset: 0x164DA5, size: 0x8, addend: 0x0, symName: __ZN8CryptoPP50DL_PrivateKey_WithSignaturePairwiseConsistencyTestINS_17DL_PrivateKey_GFPINS_22DL_GroupParameters_DSAEEENS_4DSA2INS_4SHA1EEEED0Ev, symObjAddr: 0x11998, symBinAddr: 0x100045194, symSize: 0x44 }
  - { offsetInCU: 0xA76FF, offset: 0x164E96, size: 0x8, addend: 0x0, symName: __ZThn8_N8CryptoPP50DL_PrivateKey_WithSignaturePairwiseConsistencyTestINS_17DL_PrivateKey_GFPINS_22DL_GroupParameters_DSAEEENS_4DSA2INS_4SHA1EEEED0Ev, symObjAddr: 0x119DC, symBinAddr: 0x1000451D8, symSize: 0x48 }
  - { offsetInCU: 0xA77E9, offset: 0x164F80, size: 0x8, addend: 0x0, symName: __ZTv0_n24_N8CryptoPP50DL_PrivateKey_WithSignaturePairwiseConsistencyTestINS_17DL_PrivateKey_GFPINS_22DL_GroupParameters_DSAEEENS_4DSA2INS_4SHA1EEEED0Ev, symObjAddr: 0x11A24, symBinAddr: 0x100045220, symSize: 0x50 }
  - { offsetInCU: 0xA78D3, offset: 0x16506A, size: 0x8, addend: 0x0, symName: __ZThn16_N8CryptoPP50DL_PrivateKey_WithSignaturePairwiseConsistencyTestINS_17DL_PrivateKey_GFPINS_22DL_GroupParameters_DSAEEENS_4DSA2INS_4SHA1EEEED0Ev, symObjAddr: 0x11A74, symBinAddr: 0x100045270, symSize: 0x48 }
  - { offsetInCU: 0xA7CA8, offset: 0x16543F, size: 0x8, addend: 0x0, symName: __ZN8CryptoPP50DL_PrivateKey_WithSignaturePairwiseConsistencyTestINS_17DL_PrivateKey_GFPINS_22DL_GroupParameters_DSAEEENS_4DSA2INS_4SHA1EEEE14GenerateRandomERNS_21RandomNumberGeneratorERKNS_14NameValuePairsE, symObjAddr: 0x11ABC, symBinAddr: 0x1000452B8, symSize: 0x1B8 }
  - { offsetInCU: 0xA82EC, offset: 0x165A83, size: 0x8, addend: 0x0, symName: __ZN8CryptoPP17DL_PrivateKeyImplINS_22DL_GroupParameters_DSAEE14GenerateRandomERNS_21RandomNumberGeneratorERKNS_14NameValuePairsE, symObjAddr: 0x11C74, symBinAddr: 0x100045470, symSize: 0x160 }
  - { offsetInCU: 0xA867E, offset: 0x165E15, size: 0x8, addend: 0x0, symName: __ZN8CryptoPP16PK_FinalTemplateINS_13DL_SignerImplINS_25DL_SignatureSchemeOptionsINS_4DSA2INS_4SHA1EEENS_11DL_Keys_DSAENS_17DL_Algorithm_GDSAINS_7IntegerEEENS_37DL_SignatureMessageEncodingMethod_DSAES4_EEEEEC2ERKNS_14CryptoMaterialE, symObjAddr: 0x46F7C, symBinAddr: 0x100076A28, symSize: 0x1AC }
  - { offsetInCU: 0xA8B26, offset: 0x1662BD, size: 0x8, addend: 0x0, symName: __ZN8CryptoPP16PK_FinalTemplateINS_15DL_VerifierImplINS_25DL_SignatureSchemeOptionsINS_4DSA2INS_4SHA1EEENS_11DL_Keys_DSAENS_17DL_Algorithm_GDSAINS_7IntegerEEENS_37DL_SignatureMessageEncodingMethod_DSAES4_EEEEEC1ERKNS_19AsymmetricAlgorithmE, symObjAddr: 0x11DD4, symBinAddr: 0x1000455D0, symSize: 0x184 }
  - { offsetInCU: 0xA8F5C, offset: 0x1666F3, size: 0x8, addend: 0x0, symName: __ZN8CryptoPP16PK_FinalTemplateINS_15DL_VerifierImplINS_25DL_SignatureSchemeOptionsINS_4DSA2INS_4SHA1EEENS_11DL_Keys_DSAENS_17DL_Algorithm_GDSAINS_7IntegerEEENS_37DL_SignatureMessageEncodingMethod_DSAES4_EEEEED1Ev, symObjAddr: 0x11F58, symBinAddr: 0x100045754, symSize: 0xBC }
  - { offsetInCU: 0xA91E7, offset: 0x16697E, size: 0x8, addend: 0x0, symName: __ZNK8CryptoPP14NameValuePairs13GetThisObjectINS_22DL_GroupParameters_DSAEEEbRT_, symObjAddr: 0x46A50, symBinAddr: 0x100076878, symSize: 0x1B0 }
  - { offsetInCU: 0xAA1A6, offset: 0x16793D, size: 0x8, addend: 0x0, symName: __ZN8CryptoPP16DL_PublicKeyImplINS_22DL_GroupParameters_DSAEEC2Ev, symObjAddr: 0x481C8, symBinAddr: 0x100077C40, symSize: 0x1FC }
  - { offsetInCU: 0xAA5EE, offset: 0x167D85, size: 0x8, addend: 0x0, symName: __ZN8CryptoPP16PK_FinalTemplateINS_13DL_SignerImplINS_25DL_SignatureSchemeOptionsINS_4DSA2INS_4SHA1EEENS_11DL_Keys_DSAENS_17DL_Algorithm_GDSAINS_7IntegerEEENS_37DL_SignatureMessageEncodingMethod_DSAES4_EEEEED1Ev, symObjAddr: 0x12014, symBinAddr: 0x100045810, symSize: 0x50 }
  - { offsetInCU: 0xAA70C, offset: 0x167EA3, size: 0x8, addend: 0x0, symName: __ZThn16_N8CryptoPP50DL_PrivateKey_WithSignaturePairwiseConsistencyTestINS_17DL_PrivateKey_GFPINS_22DL_GroupParameters_DSAEEENS_4DSA2INS_4SHA1EEEE14GenerateRandomERNS_21RandomNumberGeneratorERKNS_14NameValuePairsE, symObjAddr: 0x12064, symBinAddr: 0x100045860, symSize: 0x8 }
  - { offsetInCU: 0xAA7B3, offset: 0x167F4A, size: 0x8, addend: 0x0, symName: __ZN8CryptoPP9DH_DomainINS_39DL_GroupParameters_GFP_DefaultSafePrimeENS_10EnumToTypeINS_28CofactorMultiplicationOptionELi0EEEED2Ev, symObjAddr: 0x1206C, symBinAddr: 0x100045868, symSize: 0x40 }
  - { offsetInCU: 0xAA87C, offset: 0x168013, size: 0x8, addend: 0x0, symName: __ZN8CryptoPP39DL_GroupParameters_GFP_DefaultSafePrimeD1Ev, symObjAddr: 0x120AC, symBinAddr: 0x1000458A8, symSize: 0x10 }
  - { offsetInCU: 0xAA89F, offset: 0x168036, size: 0x8, addend: 0x0, symName: __ZN8CryptoPP39DL_GroupParameters_GFP_DefaultSafePrimeD1Ev, symObjAddr: 0x120AC, symBinAddr: 0x1000458A8, symSize: 0x10 }
  - { offsetInCU: 0xAA8C7, offset: 0x16805E, size: 0x8, addend: 0x0, symName: __ZN8CryptoPP39DL_GroupParameters_GFP_DefaultSafePrimeD1Ev, symObjAddr: 0x120AC, symBinAddr: 0x1000458A8, symSize: 0x10 }
  - { offsetInCU: 0xAA8EF, offset: 0x168086, size: 0x8, addend: 0x0, symName: __ZN8CryptoPP39DL_GroupParameters_GFP_DefaultSafePrimeD1Ev, symObjAddr: 0x120AC, symBinAddr: 0x1000458A8, symSize: 0x10 }
  - { offsetInCU: 0xAA94D, offset: 0x1680E4, size: 0x8, addend: 0x0, symName: __ZN8CryptoPP9DH_DomainINS_39DL_GroupParameters_GFP_DefaultSafePrimeENS_10EnumToTypeINS_28CofactorMultiplicationOptionELi0EEEED1Ev, symObjAddr: 0x120BC, symBinAddr: 0x1000458B8, symSize: 0x40 }
  - { offsetInCU: 0xAAA4E, offset: 0x1681E5, size: 0x8, addend: 0x0, symName: __ZN8CryptoPP9DH_DomainINS_39DL_GroupParameters_GFP_DefaultSafePrimeENS_10EnumToTypeINS_28CofactorMultiplicationOptionELi0EEEED0Ev, symObjAddr: 0x120FC, symBinAddr: 0x1000458F8, symSize: 0x54 }
  - { offsetInCU: 0xAAC4C, offset: 0x1683E3, size: 0x8, addend: 0x0, symName: __ZN8CryptoPP9DH_DomainINS_39DL_GroupParameters_GFP_DefaultSafePrimeENS_10EnumToTypeINS_28CofactorMultiplicationOptionELi0EEEEC2Ev, symObjAddr: 0x12150, symBinAddr: 0x10004594C, symSize: 0x6C }
  - { offsetInCU: 0xAAD74, offset: 0x16850B, size: 0x8, addend: 0x0, symName: __ZN8CryptoPP22DL_GroupParametersImplINS_20ModExpPrecomputationENS_30DL_FixedBasePrecomputationImplINS_7IntegerEEENS_31DL_GroupParameters_IntegerBasedEEC2Ev, symObjAddr: 0x3A1BC, symBinAddr: 0x10006AAE8, symSize: 0x19C }
  - { offsetInCU: 0xAB191, offset: 0x168928, size: 0x8, addend: 0x0, symName: __ZN8CryptoPP9DH_DomainINS_39DL_GroupParameters_GFP_DefaultSafePrimeENS_10EnumToTypeINS_28CofactorMultiplicationOptionELi0EEEEC1Ev, symObjAddr: 0x121BC, symBinAddr: 0x1000459B8, symSize: 0x6C }
  - { offsetInCU: 0xAB383, offset: 0x168B1A, size: 0x8, addend: 0x0, symName: __ZN8CryptoPP9DH_DomainINS_39DL_GroupParameters_GFP_DefaultSafePrimeENS_10EnumToTypeINS_28CofactorMultiplicationOptionELi0EEEEC2ERKS1_, symObjAddr: 0x12228, symBinAddr: 0x100045A24, symSize: 0x74 }
  - { offsetInCU: 0xAB4DB, offset: 0x168C72, size: 0x8, addend: 0x0, symName: __ZN8CryptoPP22DL_GroupParametersImplINS_20ModExpPrecomputationENS_30DL_FixedBasePrecomputationImplINS_7IntegerEEENS_31DL_GroupParameters_IntegerBasedEEC2ERKS6_, symObjAddr: 0x3A4CC, symBinAddr: 0x10006ADE8, symSize: 0x188 }
  - { offsetInCU: 0xAB866, offset: 0x168FFD, size: 0x8, addend: 0x0, symName: __ZN8CryptoPP9DH_DomainINS_39DL_GroupParameters_GFP_DefaultSafePrimeENS_10EnumToTypeINS_28CofactorMultiplicationOptionELi0EEEEC1ERKS1_, symObjAddr: 0x1229C, symBinAddr: 0x100045A98, symSize: 0x74 }
  - { offsetInCU: 0xAB9F4, offset: 0x16918B, size: 0x8, addend: 0x0, symName: __ZN8CryptoPP9DH_DomainINS_39DL_GroupParameters_GFP_DefaultSafePrimeENS_10EnumToTypeINS_28CofactorMultiplicationOptionELi0EEEEC2ERNS_22BufferedTransformationE, symObjAddr: 0x12310, symBinAddr: 0x100045B0C, symSize: 0xA8 }
  - { offsetInCU: 0xABBF2, offset: 0x169389, size: 0x8, addend: 0x0, symName: __ZN8CryptoPP9DH_DomainINS_39DL_GroupParameters_GFP_DefaultSafePrimeENS_10EnumToTypeINS_28CofactorMultiplicationOptionELi0EEEEC1ERNS_22BufferedTransformationE, symObjAddr: 0x123B8, symBinAddr: 0x100045BB4, symSize: 0xA8 }
  - { offsetInCU: 0xABDFA, offset: 0x169591, size: 0x8, addend: 0x0, symName: __ZNK8CryptoPP9DH_DomainINS_39DL_GroupParameters_GFP_DefaultSafePrimeENS_10EnumToTypeINS_28CofactorMultiplicationOptionELi0EEEE18GetGroupParametersEv, symObjAddr: 0x12460, symBinAddr: 0x100045C5C, symSize: 0x8 }
  - { offsetInCU: 0xABE21, offset: 0x1695B8, size: 0x8, addend: 0x0, symName: __ZN8CryptoPP9DH_DomainINS_39DL_GroupParameters_GFP_DefaultSafePrimeENS_10EnumToTypeINS_28CofactorMultiplicationOptionELi0EEEE21AccessGroupParametersEv, symObjAddr: 0x12468, symBinAddr: 0x100045C64, symSize: 0x8 }
  - { offsetInCU: 0xABE8E, offset: 0x169625, size: 0x8, addend: 0x0, symName: __ZNK8CryptoPP9DH_DomainINS_39DL_GroupParameters_GFP_DefaultSafePrimeENS_10EnumToTypeINS_28CofactorMultiplicationOptionELi0EEEE17GeneratePublicKeyERNS_21RandomNumberGeneratorEPKhPh, symObjAddr: 0x12470, symBinAddr: 0x100045C6C, symSize: 0x3A8 }
  - { offsetInCU: 0xAC9EE, offset: 0x16A185, size: 0x8, addend: 0x0, symName: __ZNK8CryptoPP31DL_SimpleKeyAgreementDomainBaseINS_7IntegerEE17GeneratePublicKeyERNS_21RandomNumberGeneratorEPKhPh, symObjAddr: 0x12818, symBinAddr: 0x100046014, symSize: 0x134 }
  - { offsetInCU: 0xACE3C, offset: 0x16A5D3, size: 0x8, addend: 0x0, symName: __ZN8CryptoPP9DH_DomainINS_39DL_GroupParameters_GFP_DefaultSafePrimeENS_10EnumToTypeINS_28CofactorMultiplicationOptionELi0EEEE19StaticAlgorithmNameEv, symObjAddr: 0x12A00, symBinAddr: 0x100046148, symSize: 0x1C }
  - { offsetInCU: 0xACE53, offset: 0x16A5EA, size: 0x8, addend: 0x0, symName: __ZN8CryptoPP9DH_DomainINS_39DL_GroupParameters_GFP_DefaultSafePrimeENS_10EnumToTypeINS_28CofactorMultiplicationOptionELi0EEEE19StaticAlgorithmNameEv, symObjAddr: 0x12A00, symBinAddr: 0x100046148, symSize: 0x1C }
  - { offsetInCU: 0xACE89, offset: 0x16A620, size: 0x8, addend: 0x0, symName: __ZN8CryptoPP9DH_DomainINS_39DL_GroupParameters_GFP_DefaultSafePrimeENS_10EnumToTypeINS_28CofactorMultiplicationOptionELi0EEEE19StaticAlgorithmNameEv, symObjAddr: 0x12A00, symBinAddr: 0x100046148, symSize: 0x1C }
  - { offsetInCU: 0xACEAE, offset: 0x16A645, size: 0x8, addend: 0x0, symName: __ZN8CryptoPP9DH_DomainINS_39DL_GroupParameters_GFP_DefaultSafePrimeENS_10EnumToTypeINS_28CofactorMultiplicationOptionELi0EEEE19StaticAlgorithmNameEv, symObjAddr: 0x12A00, symBinAddr: 0x100046148, symSize: 0x1C }
  - { offsetInCU: 0xAD038, offset: 0x16A7CF, size: 0x8, addend: 0x0, symName: __ZNK8CryptoPP9DH_DomainINS_39DL_GroupParameters_GFP_DefaultSafePrimeENS_10EnumToTypeINS_28CofactorMultiplicationOptionELi0EEEE13AlgorithmNameEv, symObjAddr: 0x12A1C, symBinAddr: 0x100046164, symSize: 0x1C }
  - { offsetInCU: 0xAD05E, offset: 0x16A7F5, size: 0x8, addend: 0x0, symName: __ZNK8CryptoPP9DH_DomainINS_39DL_GroupParameters_GFP_DefaultSafePrimeENS_10EnumToTypeINS_28CofactorMultiplicationOptionELi0EEEE13AlgorithmNameEv, symObjAddr: 0x12A1C, symBinAddr: 0x100046164, symSize: 0x1C }
  - { offsetInCU: 0xAD073, offset: 0x16A80A, size: 0x8, addend: 0x0, symName: __ZNK8CryptoPP9DH_DomainINS_39DL_GroupParameters_GFP_DefaultSafePrimeENS_10EnumToTypeINS_28CofactorMultiplicationOptionELi0EEEE13AlgorithmNameEv, symObjAddr: 0x12A1C, symBinAddr: 0x100046164, symSize: 0x1C }
  - { offsetInCU: 0xAD0A9, offset: 0x16A840, size: 0x8, addend: 0x0, symName: __ZNK8CryptoPP9DH_DomainINS_39DL_GroupParameters_GFP_DefaultSafePrimeENS_10EnumToTypeINS_28CofactorMultiplicationOptionELi0EEEE13AlgorithmNameEv, symObjAddr: 0x12A1C, symBinAddr: 0x100046164, symSize: 0x1C }
  - { offsetInCU: 0xAD0CE, offset: 0x16A865, size: 0x8, addend: 0x0, symName: __ZNK8CryptoPP9DH_DomainINS_39DL_GroupParameters_GFP_DefaultSafePrimeENS_10EnumToTypeINS_28CofactorMultiplicationOptionELi0EEEE13AlgorithmNameEv, symObjAddr: 0x12A1C, symBinAddr: 0x100046164, symSize: 0x1C }
  - { offsetInCU: 0xAD252, offset: 0x16A9E9, size: 0x8, addend: 0x0, symName: __ZNK8CryptoPP9DH_DomainINS_39DL_GroupParameters_GFP_DefaultSafePrimeENS_10EnumToTypeINS_28CofactorMultiplicationOptionELi0EEEE24GetKeyAgreementAlgorithmEv, symObjAddr: 0x12A38, symBinAddr: 0x100046180, symSize: 0x20 }
  - { offsetInCU: 0xAD34F, offset: 0x16AAE6, size: 0x8, addend: 0x0, symName: __ZN8CryptoPP9DH_DomainINS_39DL_GroupParameters_GFP_DefaultSafePrimeENS_10EnumToTypeINS_28CofactorMultiplicationOptionELi0EEEE29AccessAbstractGroupParametersEv, symObjAddr: 0x12B10, symBinAddr: 0x100046258, symSize: 0x8 }
  - { offsetInCU: 0xAD376, offset: 0x16AB0D, size: 0x8, addend: 0x0, symName: __ZN8CryptoPP13AbstractGroupINS_14PolynomialMod2EED2Ev, symObjAddr: 0x12B18, symBinAddr: 0x100046260, symSize: 0x4 }
  - { offsetInCU: 0xAD39E, offset: 0x16AB35, size: 0x8, addend: 0x0, symName: __ZN8CryptoPP13AbstractGroupINS_14PolynomialMod2EED1Ev, symObjAddr: 0x12B1C, symBinAddr: 0x1000C7844, symSize: 0x4 }
  - { offsetInCU: 0xAD3C6, offset: 0x16AB5D, size: 0x8, addend: 0x0, symName: __ZN8CryptoPP13AbstractGroupINS_14PolynomialMod2EED0Ev, symObjAddr: 0x12B20, symBinAddr: 0x1000C7848, symSize: 0x4 }
  - { offsetInCU: 0xAD3EE, offset: 0x16AB85, size: 0x8, addend: 0x0, symName: __ZNK8CryptoPP13AbstractGroupINS_14PolynomialMod2EE15InversionIsFastEv, symObjAddr: 0x12B24, symBinAddr: 0x100046264, symSize: 0x8 }
  - { offsetInCU: 0xAD415, offset: 0x16ABAC, size: 0x8, addend: 0x0, symName: __ZNK8CryptoPP13AbstractGroupINS_14PolynomialMod2EE6DoubleERKS1_, symObjAddr: 0x12B2C, symBinAddr: 0x10004626C, symSize: 0x10 }
  - { offsetInCU: 0xAD4DE, offset: 0x16AC75, size: 0x8, addend: 0x0, symName: __ZNK8CryptoPP13AbstractGroupINS_14PolynomialMod2EE8SubtractERKS1_S4_, symObjAddr: 0x12B3C, symBinAddr: 0x10004627C, symSize: 0xA8 }
  - { offsetInCU: 0xAD6AB, offset: 0x16AE42, size: 0x8, addend: 0x0, symName: __ZN8CryptoPP14PolynomialMod2D1Ev, symObjAddr: 0x12BE4, symBinAddr: 0x100046324, symSize: 0x4C }
  - { offsetInCU: 0xAD7EE, offset: 0x16AF85, size: 0x8, addend: 0x0, symName: __ZNK8CryptoPP13AbstractGroupINS_14PolynomialMod2EE10AccumulateERS1_RKS1_, symObjAddr: 0x12C30, symBinAddr: 0x100046370, symSize: 0x30 }
  - { offsetInCU: 0xAD85C, offset: 0x16AFF3, size: 0x8, addend: 0x0, symName: __ZNK8CryptoPP13AbstractGroupINS_14PolynomialMod2EE6ReduceERS1_RKS1_, symObjAddr: 0x12C60, symBinAddr: 0x1000463A0, symSize: 0x30 }
  - { offsetInCU: 0xAD8CA, offset: 0x16B061, size: 0x8, addend: 0x0, symName: __ZNK8CryptoPP13AbstractGroupINS_14PolynomialMod2EE14ScalarMultiplyERKS1_RKNS_7IntegerE, symObjAddr: 0x12C90, symBinAddr: 0x1000463D0, symSize: 0x70 }
  - { offsetInCU: 0xADAD3, offset: 0x16B26A, size: 0x8, addend: 0x0, symName: __ZNK8CryptoPP13AbstractGroupINS_14PolynomialMod2EE21CascadeScalarMultiplyERKS1_RKNS_7IntegerES4_S7_, symObjAddr: 0x12D00, symBinAddr: 0x100046440, symSize: 0x6A4 }
  - { offsetInCU: 0xAE308, offset: 0x16BA9F, size: 0x8, addend: 0x0, symName: __ZNSt3__16vectorIN8CryptoPP14PolynomialMod2ENS_9allocatorIS2_EEEC1Em, symObjAddr: 0x133A4, symBinAddr: 0x100046AE4, symSize: 0xFC }
  - { offsetInCU: 0xAE7C9, offset: 0x16BF60, size: 0x8, addend: 0x0, symName: __ZNSt3__16vectorIN8CryptoPP14PolynomialMod2ENS_9allocatorIS2_EEED1B7v160006Ev, symObjAddr: 0x134A0, symBinAddr: 0x100046BE0, symSize: 0x90 }
  - { offsetInCU: 0xAEC0C, offset: 0x16C3A3, size: 0x8, addend: 0x0, symName: __ZNKSt3__16vectorIN8CryptoPP14PolynomialMod2ENS_9allocatorIS2_EEE20__throw_length_errorB7v160006Ev, symObjAddr: 0x4882C, symBinAddr: 0x10007829C, symSize: 0x14 }
  - { offsetInCU: 0xAEC35, offset: 0x16C3CC, size: 0x8, addend: 0x0, symName: __ZNSt3__16vectorINS0_IN8CryptoPP14PolynomialMod2ENS_9allocatorIS2_EEEENS3_IS5_EEE16__destroy_vectorclB7v160006Ev, symObjAddr: 0x48840, symBinAddr: 0x1000782B0, symSize: 0xF0 }
  - { offsetInCU: 0xAEFEE, offset: 0x16C785, size: 0x8, addend: 0x0, symName: __ZNK8CryptoPP13AbstractGroupINS_14PolynomialMod2EE20SimultaneousMultiplyEPS1_RKS1_PKNS_7IntegerEj, symObjAddr: 0x13530, symBinAddr: 0x100046C70, symSize: 0x790 }
  - { offsetInCU: 0xB060C, offset: 0x16DDA3, size: 0x8, addend: 0x0, symName: __ZNSt3__16vectorIN8CryptoPP14PolynomialMod2ENS_9allocatorIS2_EEE8__appendEmRKS2_, symObjAddr: 0x48930, symBinAddr: 0x1000783A0, symSize: 0x258 }
  - { offsetInCU: 0xB1141, offset: 0x16E8D8, size: 0x8, addend: 0x0, symName: __ZNSt3__16vectorINS0_IN8CryptoPP14PolynomialMod2ENS_9allocatorIS2_EEEENS3_IS5_EEE16__destroy_vectorclB7v160006Ev, symObjAddr: 0x48840, symBinAddr: 0x1000782B0, symSize: 0xF0 }
  - { offsetInCU: 0xB156C, offset: 0x16ED03, size: 0x8, addend: 0x0, symName: __ZN8CryptoPP12AbstractRingINS_14PolynomialMod2EEC2Ev, symObjAddr: 0x13CC0, symBinAddr: 0x100047400, symSize: 0x24 }
  - { offsetInCU: 0xB15A8, offset: 0x16ED3F, size: 0x8, addend: 0x0, symName: __ZN8CryptoPP12AbstractRingINS_14PolynomialMod2EEC2ERKS2_, symObjAddr: 0x13CE4, symBinAddr: 0x100047424, symSize: 0x24 }
  - { offsetInCU: 0xB15EC, offset: 0x16ED83, size: 0x8, addend: 0x0, symName: __ZN8CryptoPP12AbstractRingINS_14PolynomialMod2EEaSERKS2_, symObjAddr: 0x13D08, symBinAddr: 0x100047448, symSize: 0x4 }
  - { offsetInCU: 0xB161D, offset: 0x16EDB4, size: 0x8, addend: 0x0, symName: __ZNK8CryptoPP12AbstractRingINS_14PolynomialMod2EE6SquareERKS1_, symObjAddr: 0x13D0C, symBinAddr: 0x10004744C, symSize: 0x10 }
  - { offsetInCU: 0xB1675, offset: 0x16EE0C, size: 0x8, addend: 0x0, symName: __ZNK8CryptoPP12AbstractRingINS_14PolynomialMod2EE6DivideERKS1_S4_, symObjAddr: 0x13D1C, symBinAddr: 0x10004745C, symSize: 0xA8 }
  - { offsetInCU: 0xB1842, offset: 0x16EFD9, size: 0x8, addend: 0x0, symName: __ZNK8CryptoPP12AbstractRingINS_14PolynomialMod2EE12ExponentiateERKS1_RKNS_7IntegerE, symObjAddr: 0x13DC4, symBinAddr: 0x100047504, symSize: 0x70 }
  - { offsetInCU: 0xB18E2, offset: 0x16F079, size: 0x8, addend: 0x0, symName: __ZNK8CryptoPP12AbstractRingINS_14PolynomialMod2EE19CascadeExponentiateERKS1_RKNS_7IntegerES4_S7_, symObjAddr: 0x13E34, symBinAddr: 0x100047574, symSize: 0x5C }
  - { offsetInCU: 0xB1993, offset: 0x16F12A, size: 0x8, addend: 0x0, symName: __ZNK8CryptoPP12AbstractRingINS_14PolynomialMod2EE24SimultaneousExponentiateEPS1_RKS1_PKNS_7IntegerEj, symObjAddr: 0x13E90, symBinAddr: 0x1000475D0, symSize: 0x4C }
  - { offsetInCU: 0xB1A3D, offset: 0x16F1D4, size: 0x8, addend: 0x0, symName: __ZNK8CryptoPP12AbstractRingINS_14PolynomialMod2EE19MultiplicativeGroupEv, symObjAddr: 0x13EDC, symBinAddr: 0x10004761C, symSize: 0x8 }
  - { offsetInCU: 0xB1A64, offset: 0x16F1FB, size: 0x8, addend: 0x0, symName: __ZNK8CryptoPP12AbstractRingINS_14PolynomialMod2EE20MultiplicativeGroupT7GetRingEv, symObjAddr: 0x13EE4, symBinAddr: 0x100047624, symSize: 0x8 }
  - { offsetInCU: 0xB1AA2, offset: 0x16F239, size: 0x8, addend: 0x0, symName: __ZNK8CryptoPP12AbstractRingINS_14PolynomialMod2EE20MultiplicativeGroupT5EqualERKS1_S5_, symObjAddr: 0x13EEC, symBinAddr: 0x10004762C, symSize: 0x10 }
  - { offsetInCU: 0xB1AE5, offset: 0x16F27C, size: 0x8, addend: 0x0, symName: __ZNK8CryptoPP12AbstractRingINS_14PolynomialMod2EE20MultiplicativeGroupT5EqualERKS1_S5_, symObjAddr: 0x13EEC, symBinAddr: 0x10004762C, symSize: 0x10 }
  - { offsetInCU: 0xB1B1E, offset: 0x16F2B5, size: 0x8, addend: 0x0, symName: __ZNK8CryptoPP12AbstractRingINS_14PolynomialMod2EE20MultiplicativeGroupT8IdentityEv, symObjAddr: 0x13EFC, symBinAddr: 0x10004763C, symSize: 0x10 }
  - { offsetInCU: 0xB1B47, offset: 0x16F2DE, size: 0x8, addend: 0x0, symName: __ZNK8CryptoPP12AbstractRingINS_14PolynomialMod2EE20MultiplicativeGroupT8IdentityEv, symObjAddr: 0x13EFC, symBinAddr: 0x10004763C, symSize: 0x10 }
  - { offsetInCU: 0xB1B6F, offset: 0x16F306, size: 0x8, addend: 0x0, symName: __ZNK8CryptoPP12AbstractRingINS_14PolynomialMod2EE20MultiplicativeGroupT3AddERKS1_S5_, symObjAddr: 0x13F0C, symBinAddr: 0x10004764C, symSize: 0x10 }
  - { offsetInCU: 0xB1BB2, offset: 0x16F349, size: 0x8, addend: 0x0, symName: __ZNK8CryptoPP12AbstractRingINS_14PolynomialMod2EE20MultiplicativeGroupT3AddERKS1_S5_, symObjAddr: 0x13F0C, symBinAddr: 0x10004764C, symSize: 0x10 }
  - { offsetInCU: 0xB1BEB, offset: 0x16F382, size: 0x8, addend: 0x0, symName: __ZNK8CryptoPP12AbstractRingINS_14PolynomialMod2EE20MultiplicativeGroupT10AccumulateERS1_RKS1_, symObjAddr: 0x13F1C, symBinAddr: 0x10004765C, symSize: 0x34 }
  - { offsetInCU: 0xB1C6D, offset: 0x16F404, size: 0x8, addend: 0x0, symName: __ZNK8CryptoPP12AbstractRingINS_14PolynomialMod2EE20MultiplicativeGroupT7InverseERKS1_, symObjAddr: 0x13F50, symBinAddr: 0x100047690, symSize: 0x10 }
  - { offsetInCU: 0xB1CA3, offset: 0x16F43A, size: 0x8, addend: 0x0, symName: __ZNK8CryptoPP12AbstractRingINS_14PolynomialMod2EE20MultiplicativeGroupT7InverseERKS1_, symObjAddr: 0x13F50, symBinAddr: 0x100047690, symSize: 0x10 }
  - { offsetInCU: 0xB1CD4, offset: 0x16F46B, size: 0x8, addend: 0x0, symName: __ZNK8CryptoPP12AbstractRingINS_14PolynomialMod2EE20MultiplicativeGroupT8SubtractERKS1_S5_, symObjAddr: 0x13F60, symBinAddr: 0x1000476A0, symSize: 0x10 }
  - { offsetInCU: 0xB1D17, offset: 0x16F4AE, size: 0x8, addend: 0x0, symName: __ZNK8CryptoPP12AbstractRingINS_14PolynomialMod2EE20MultiplicativeGroupT8SubtractERKS1_S5_, symObjAddr: 0x13F60, symBinAddr: 0x1000476A0, symSize: 0x10 }
  - { offsetInCU: 0xB1D50, offset: 0x16F4E7, size: 0x8, addend: 0x0, symName: __ZNK8CryptoPP12AbstractRingINS_14PolynomialMod2EE20MultiplicativeGroupT6ReduceERS1_RKS1_, symObjAddr: 0x13F70, symBinAddr: 0x1000476B0, symSize: 0x34 }
  - { offsetInCU: 0xB1DD2, offset: 0x16F569, size: 0x8, addend: 0x0, symName: __ZNK8CryptoPP12AbstractRingINS_14PolynomialMod2EE20MultiplicativeGroupT6DoubleERKS1_, symObjAddr: 0x13FA4, symBinAddr: 0x1000476E4, symSize: 0x10 }
  - { offsetInCU: 0xB1E08, offset: 0x16F59F, size: 0x8, addend: 0x0, symName: __ZNK8CryptoPP12AbstractRingINS_14PolynomialMod2EE20MultiplicativeGroupT6DoubleERKS1_, symObjAddr: 0x13FA4, symBinAddr: 0x1000476E4, symSize: 0x10 }
  - { offsetInCU: 0xB1E39, offset: 0x16F5D0, size: 0x8, addend: 0x0, symName: __ZNK8CryptoPP12AbstractRingINS_14PolynomialMod2EE20MultiplicativeGroupT14ScalarMultiplyERKS1_RKNS_7IntegerE, symObjAddr: 0x13FB4, symBinAddr: 0x1000476F4, symSize: 0x10 }
  - { offsetInCU: 0xB1E7C, offset: 0x16F613, size: 0x8, addend: 0x0, symName: __ZNK8CryptoPP12AbstractRingINS_14PolynomialMod2EE20MultiplicativeGroupT14ScalarMultiplyERKS1_RKNS_7IntegerE, symObjAddr: 0x13FB4, symBinAddr: 0x1000476F4, symSize: 0x10 }
  - { offsetInCU: 0xB1EBD, offset: 0x16F654, size: 0x8, addend: 0x0, symName: __ZNK8CryptoPP12AbstractRingINS_14PolynomialMod2EE20MultiplicativeGroupT21CascadeScalarMultiplyERKS1_RKNS_7IntegerES5_S8_, symObjAddr: 0x13FC4, symBinAddr: 0x100047704, symSize: 0x10 }
  - { offsetInCU: 0xB1F1A, offset: 0x16F6B1, size: 0x8, addend: 0x0, symName: __ZNK8CryptoPP12AbstractRingINS_14PolynomialMod2EE20MultiplicativeGroupT21CascadeScalarMultiplyERKS1_RKNS_7IntegerES5_S8_, symObjAddr: 0x13FC4, symBinAddr: 0x100047704, symSize: 0x10 }
  - { offsetInCU: 0xB1F6B, offset: 0x16F702, size: 0x8, addend: 0x0, symName: __ZNK8CryptoPP12AbstractRingINS_14PolynomialMod2EE20MultiplicativeGroupT20SimultaneousMultiplyEPS1_RKS1_PKNS_7IntegerEj, symObjAddr: 0x13FD4, symBinAddr: 0x100047714, symSize: 0x10 }
  - { offsetInCU: 0xB1FC8, offset: 0x16F75F, size: 0x8, addend: 0x0, symName: __ZNK8CryptoPP12AbstractRingINS_14PolynomialMod2EE20MultiplicativeGroupT20SimultaneousMultiplyEPS1_RKS1_PKNS_7IntegerEj, symObjAddr: 0x13FD4, symBinAddr: 0x100047714, symSize: 0x10 }
  - { offsetInCU: 0xB2011, offset: 0x16F7A8, size: 0x8, addend: 0x0, symName: __ZNK8CryptoPP23AbstractEuclideanDomainINS_14PolynomialMod2EE3ModERKS1_S4_, symObjAddr: 0x13FE4, symBinAddr: 0x100047724, symSize: 0xA8 }
  - { offsetInCU: 0xB21DA, offset: 0x16F971, size: 0x8, addend: 0x0, symName: __ZNK8CryptoPP23AbstractEuclideanDomainINS_14PolynomialMod2EE3GcdERKS1_S4_, symObjAddr: 0x1408C, symBinAddr: 0x1000477CC, symSize: 0x228 }
  - { offsetInCU: 0xB24B2, offset: 0x16FC49, size: 0x8, addend: 0x0, symName: __ZN8CryptoPP17EuclideanDomainOfINS_14PolynomialMod2EEC2Ev, symObjAddr: 0x142B4, symBinAddr: 0x1000479F4, symSize: 0x74 }
  - { offsetInCU: 0xB2551, offset: 0x16FCE8, size: 0x8, addend: 0x0, symName: __ZN8CryptoPP23AbstractEuclideanDomainINS_14PolynomialMod2EED2Ev, symObjAddr: 0x14328, symBinAddr: 0x100047A68, symSize: 0x5C }
  - { offsetInCU: 0xB26F9, offset: 0x16FE90, size: 0x8, addend: 0x0, symName: __ZN8CryptoPP17EuclideanDomainOfINS_14PolynomialMod2EEC1Ev, symObjAddr: 0x14384, symBinAddr: 0x100047AC4, symSize: 0xA0 }
  - { offsetInCU: 0xB2903, offset: 0x17009A, size: 0x8, addend: 0x0, symName: __ZNK8CryptoPP17EuclideanDomainOfINS_14PolynomialMod2EE5EqualERKS1_S4_, symObjAddr: 0x14424, symBinAddr: 0x100047B64, symSize: 0xC }
  - { offsetInCU: 0xB2963, offset: 0x1700FA, size: 0x8, addend: 0x0, symName: __ZNK8CryptoPP17EuclideanDomainOfINS_14PolynomialMod2EE8IdentityEv, symObjAddr: 0x14430, symBinAddr: 0x100047B70, symSize: 0x4 }
  - { offsetInCU: 0xB29A6, offset: 0x17013D, size: 0x8, addend: 0x0, symName: __ZNK8CryptoPP17EuclideanDomainOfINS_14PolynomialMod2EE3AddERKS1_S4_, symObjAddr: 0x14434, symBinAddr: 0x100047B74, symSize: 0x8C }
  - { offsetInCU: 0xB2B91, offset: 0x170328, size: 0x8, addend: 0x0, symName: __ZNK8CryptoPP17EuclideanDomainOfINS_14PolynomialMod2EE10AccumulateERS1_RKS1_, symObjAddr: 0x144C0, symBinAddr: 0x100047C00, symSize: 0xC }
  - { offsetInCU: 0xB2C07, offset: 0x17039E, size: 0x8, addend: 0x0, symName: __ZNK8CryptoPP17EuclideanDomainOfINS_14PolynomialMod2EE7InverseERKS1_, symObjAddr: 0x144CC, symBinAddr: 0x100047C0C, symSize: 0x84 }
  - { offsetInCU: 0xB2DB5, offset: 0x17054C, size: 0x8, addend: 0x0, symName: __ZNK8CryptoPP17EuclideanDomainOfINS_14PolynomialMod2EE8SubtractERKS1_S4_, symObjAddr: 0x14550, symBinAddr: 0x100047C90, symSize: 0x8C }
  - { offsetInCU: 0xB2FA0, offset: 0x170737, size: 0x8, addend: 0x0, symName: __ZNK8CryptoPP17EuclideanDomainOfINS_14PolynomialMod2EE6ReduceERS1_RKS1_, symObjAddr: 0x145DC, symBinAddr: 0x100047D1C, symSize: 0xC }
  - { offsetInCU: 0xB3016, offset: 0x1707AD, size: 0x8, addend: 0x0, symName: __ZNK8CryptoPP17EuclideanDomainOfINS_14PolynomialMod2EE6DoubleERKS1_, symObjAddr: 0x145E8, symBinAddr: 0x100047D28, symSize: 0x8C }
  - { offsetInCU: 0xB31A4, offset: 0x17093B, size: 0x8, addend: 0x0, symName: __ZNK8CryptoPP17EuclideanDomainOfINS_14PolynomialMod2EE22MultiplicativeIdentityEv, symObjAddr: 0x14674, symBinAddr: 0x100047DB4, symSize: 0x4 }
  - { offsetInCU: 0xB31C5, offset: 0x17095C, size: 0x8, addend: 0x0, symName: __ZNK8CryptoPP17EuclideanDomainOfINS_14PolynomialMod2EE8MultiplyERKS1_S4_, symObjAddr: 0x14678, symBinAddr: 0x100047DB8, symSize: 0x8C }
  - { offsetInCU: 0xB3365, offset: 0x170AFC, size: 0x8, addend: 0x0, symName: __ZNK8CryptoPP17EuclideanDomainOfINS_14PolynomialMod2EE6SquareERKS1_, symObjAddr: 0x14704, symBinAddr: 0x100047E44, symSize: 0x88 }
  - { offsetInCU: 0xB34E8, offset: 0x170C7F, size: 0x8, addend: 0x0, symName: __ZNK8CryptoPP17EuclideanDomainOfINS_14PolynomialMod2EE6IsUnitERKS1_, symObjAddr: 0x1478C, symBinAddr: 0x100047ECC, symSize: 0x28 }
  - { offsetInCU: 0xB354C, offset: 0x170CE3, size: 0x8, addend: 0x0, symName: __ZNK8CryptoPP17EuclideanDomainOfINS_14PolynomialMod2EE21MultiplicativeInverseERKS1_, symObjAddr: 0x147B4, symBinAddr: 0x100047EF4, symSize: 0xAC }
  - { offsetInCU: 0xB3701, offset: 0x170E98, size: 0x8, addend: 0x0, symName: __ZNK8CryptoPP17EuclideanDomainOfINS_14PolynomialMod2EE6DivideERKS1_S4_, symObjAddr: 0x14860, symBinAddr: 0x100047FA0, symSize: 0x8C }
  - { offsetInCU: 0xB38A1, offset: 0x171038, size: 0x8, addend: 0x0, symName: __ZNK8CryptoPP17EuclideanDomainOfINS_14PolynomialMod2EE3ModERKS1_S4_, symObjAddr: 0x148EC, symBinAddr: 0x10004802C, symSize: 0x8C }
  - { offsetInCU: 0xB3A41, offset: 0x1711D8, size: 0x8, addend: 0x0, symName: __ZNK8CryptoPP17EuclideanDomainOfINS_14PolynomialMod2EE17DivisionAlgorithmERS1_S3_RKS1_S5_, symObjAddr: 0x14978, symBinAddr: 0x1000480B8, symSize: 0x14 }
  - { offsetInCU: 0xB3A8C, offset: 0x171223, size: 0x8, addend: 0x0, symName: __ZNK8CryptoPP17EuclideanDomainOfINS_14PolynomialMod2EEeqERKS2_, symObjAddr: 0x1498C, symBinAddr: 0x1000480CC, symSize: 0x8 }
  - { offsetInCU: 0xB3B52, offset: 0x1712E9, size: 0x8, addend: 0x0, symName: __ZN8CryptoPP12QuotientRingINS_17EuclideanDomainOfINS_14PolynomialMod2EEEEC2ERKS3_RKS2_, symObjAddr: 0x14994, symBinAddr: 0x1000480D4, symSize: 0xF8 }
  - { offsetInCU: 0xB3E33, offset: 0x1715CA, size: 0x8, addend: 0x0, symName: __ZN8CryptoPP17EuclideanDomainOfINS_14PolynomialMod2EED1Ev, symObjAddr: 0x14A8C, symBinAddr: 0x1000481CC, symSize: 0xE4 }
  - { offsetInCU: 0xB429D, offset: 0x171A34, size: 0x8, addend: 0x0, symName: __ZN8CryptoPP12QuotientRingINS_17EuclideanDomainOfINS_14PolynomialMod2EEEEC1ERKS3_RKS2_, symObjAddr: 0x14B70, symBinAddr: 0x1000482B0, symSize: 0x4 }
  - { offsetInCU: 0xB42E4, offset: 0x171A7B, size: 0x8, addend: 0x0, symName: __ZN8CryptoPP12QuotientRingINS_17EuclideanDomainOfINS_14PolynomialMod2EEEEC1ERKS3_RKS2_, symObjAddr: 0x14B70, symBinAddr: 0x1000482B0, symSize: 0x4 }
  - { offsetInCU: 0xB4308, offset: 0x171A9F, size: 0x8, addend: 0x0, symName: __ZNK8CryptoPP12QuotientRingINS_17EuclideanDomainOfINS_14PolynomialMod2EEEE9GetDomainEv, symObjAddr: 0x14B74, symBinAddr: 0x1000482B4, symSize: 0x8 }
  - { offsetInCU: 0xB432F, offset: 0x171AC6, size: 0x8, addend: 0x0, symName: __ZNK8CryptoPP12QuotientRingINS_17EuclideanDomainOfINS_14PolynomialMod2EEEE10GetModulusEv, symObjAddr: 0x14B7C, symBinAddr: 0x1000482BC, symSize: 0x8 }
  - { offsetInCU: 0xB4401, offset: 0x171B98, size: 0x8, addend: 0x0, symName: __ZNK8CryptoPP12QuotientRingINS_17EuclideanDomainOfINS_14PolynomialMod2EEEE5EqualERKS2_S6_, symObjAddr: 0x14B84, symBinAddr: 0x1000482C4, symSize: 0x14C }
  - { offsetInCU: 0xB4A21, offset: 0x1721B8, size: 0x8, addend: 0x0, symName: __ZNK8CryptoPP12QuotientRingINS_17EuclideanDomainOfINS_14PolynomialMod2EEEE8IdentityEv, symObjAddr: 0x14CD0, symBinAddr: 0x100048410, symSize: 0x4 }
  - { offsetInCU: 0xB4A47, offset: 0x1721DE, size: 0x8, addend: 0x0, symName: __ZNK8CryptoPP12QuotientRingINS_17EuclideanDomainOfINS_14PolynomialMod2EEEE8IdentityEv, symObjAddr: 0x14CD0, symBinAddr: 0x100048410, symSize: 0x4 }
  - { offsetInCU: 0xB4A96, offset: 0x17222D, size: 0x8, addend: 0x0, symName: __ZNK8CryptoPP12QuotientRingINS_17EuclideanDomainOfINS_14PolynomialMod2EEEE3AddERKS2_S6_, symObjAddr: 0x14CD4, symBinAddr: 0x100048414, symSize: 0xB0 }
  - { offsetInCU: 0xB4DE2, offset: 0x172579, size: 0x8, addend: 0x0, symName: __ZNK8CryptoPP12QuotientRingINS_17EuclideanDomainOfINS_14PolynomialMod2EEEE10AccumulateERS2_RKS2_, symObjAddr: 0x14D84, symBinAddr: 0x1000484C4, symSize: 0xC }
  - { offsetInCU: 0xB4EA0, offset: 0x172637, size: 0x8, addend: 0x0, symName: __ZNK8CryptoPP12QuotientRingINS_17EuclideanDomainOfINS_14PolynomialMod2EEEE7InverseERKS2_, symObjAddr: 0x14D90, symBinAddr: 0x1000484D0, symSize: 0xA8 }
  - { offsetInCU: 0xB516E, offset: 0x172905, size: 0x8, addend: 0x0, symName: __ZNK8CryptoPP12QuotientRingINS_17EuclideanDomainOfINS_14PolynomialMod2EEEE8SubtractERKS2_S6_, symObjAddr: 0x14E38, symBinAddr: 0x100048578, symSize: 0xB0 }
  - { offsetInCU: 0xB54BA, offset: 0x172C51, size: 0x8, addend: 0x0, symName: __ZNK8CryptoPP12QuotientRingINS_17EuclideanDomainOfINS_14PolynomialMod2EEEE6ReduceERS2_RKS2_, symObjAddr: 0x14EE8, symBinAddr: 0x100048628, symSize: 0xC }
  - { offsetInCU: 0xB5555, offset: 0x172CEC, size: 0x8, addend: 0x0, symName: __ZNK8CryptoPP12QuotientRingINS_17EuclideanDomainOfINS_14PolynomialMod2EEEE6DoubleERKS2_, symObjAddr: 0x14EF4, symBinAddr: 0x100048634, symSize: 0x8 }
  - { offsetInCU: 0xB55C4, offset: 0x172D5B, size: 0x8, addend: 0x0, symName: __ZNK8CryptoPP12QuotientRingINS_17EuclideanDomainOfINS_14PolynomialMod2EEEE6IsUnitERKS2_, symObjAddr: 0x14EFC, symBinAddr: 0x10004863C, symSize: 0x38 }
  - { offsetInCU: 0xB566B, offset: 0x172E02, size: 0x8, addend: 0x0, symName: __ZNK8CryptoPP12QuotientRingINS_17EuclideanDomainOfINS_14PolynomialMod2EEEE22MultiplicativeIdentityEv, symObjAddr: 0x14F34, symBinAddr: 0x100048674, symSize: 0x4 }
  - { offsetInCU: 0xB5691, offset: 0x172E28, size: 0x8, addend: 0x0, symName: __ZNK8CryptoPP12QuotientRingINS_17EuclideanDomainOfINS_14PolynomialMod2EEEE22MultiplicativeIdentityEv, symObjAddr: 0x14F34, symBinAddr: 0x100048674, symSize: 0x4 }
  - { offsetInCU: 0xB56E0, offset: 0x172E77, size: 0x8, addend: 0x0, symName: __ZNK8CryptoPP12QuotientRingINS_17EuclideanDomainOfINS_14PolynomialMod2EEEE8MultiplyERKS2_S6_, symObjAddr: 0x14F38, symBinAddr: 0x100048678, symSize: 0x140 }
  - { offsetInCU: 0xB5C96, offset: 0x17342D, size: 0x8, addend: 0x0, symName: __ZNK8CryptoPP12QuotientRingINS_17EuclideanDomainOfINS_14PolynomialMod2EEEE6SquareERKS2_, symObjAddr: 0x15078, symBinAddr: 0x1000487B8, symSize: 0x13C }
  - { offsetInCU: 0xB625F, offset: 0x1739F6, size: 0x8, addend: 0x0, symName: __ZNK8CryptoPP12QuotientRingINS_17EuclideanDomainOfINS_14PolynomialMod2EEEE21MultiplicativeInverseERKS2_, symObjAddr: 0x151B4, symBinAddr: 0x1000488F4, symSize: 0x520 }
  - { offsetInCU: 0xB6D68, offset: 0x1744FF, size: 0x8, addend: 0x0, symName: __ZNK8CryptoPP12QuotientRingINS_17EuclideanDomainOfINS_14PolynomialMod2EEEEeqERKS4_, symObjAddr: 0x156D4, symBinAddr: 0x100048E14, symSize: 0xC }
  - { offsetInCU: 0xB6DBC, offset: 0x174553, size: 0x8, addend: 0x0, symName: __ZN8CryptoPP13AbstractGroupINS_8ECPPointEED2Ev, symObjAddr: 0x156E0, symBinAddr: 0x100048E20, symSize: 0x4 }
  - { offsetInCU: 0xB6DE4, offset: 0x17457B, size: 0x8, addend: 0x0, symName: __ZN8CryptoPP13AbstractGroupINS_8ECPPointEED1Ev, symObjAddr: 0x156E4, symBinAddr: 0x1000C784C, symSize: 0x4 }
  - { offsetInCU: 0xB6E0C, offset: 0x1745A3, size: 0x8, addend: 0x0, symName: __ZN8CryptoPP13AbstractGroupINS_8ECPPointEED0Ev, symObjAddr: 0x156E8, symBinAddr: 0x1000C7850, symSize: 0x4 }
  - { offsetInCU: 0xB6E34, offset: 0x1745CB, size: 0x8, addend: 0x0, symName: __ZNK8CryptoPP13AbstractGroupINS_8ECPPointEE15InversionIsFastEv, symObjAddr: 0x156EC, symBinAddr: 0x100048E24, symSize: 0x8 }
  - { offsetInCU: 0xB6E5B, offset: 0x1745F2, size: 0x8, addend: 0x0, symName: __ZNK8CryptoPP13AbstractGroupINS_8ECPPointEE6DoubleERKS1_, symObjAddr: 0x156F4, symBinAddr: 0x100048E2C, symSize: 0x10 }
  - { offsetInCU: 0xB6F0F, offset: 0x1746A6, size: 0x8, addend: 0x0, symName: __ZNK8CryptoPP13AbstractGroupINS_8ECPPointEE8SubtractERKS1_S4_, symObjAddr: 0x15704, symBinAddr: 0x100048E3C, symSize: 0x104 }
  - { offsetInCU: 0xB7160, offset: 0x1748F7, size: 0x8, addend: 0x0, symName: __ZN8CryptoPP8ECPPointD2Ev, symObjAddr: 0x3A990, symBinAddr: 0x10006B254, symSize: 0xB4 }
  - { offsetInCU: 0xB743F, offset: 0x174BD6, size: 0x8, addend: 0x0, symName: __ZN8CryptoPP8ECPPointD1Ev, symObjAddr: 0x15808, symBinAddr: 0x100048F40, symSize: 0x4 }
  - { offsetInCU: 0xB7463, offset: 0x174BFA, size: 0x8, addend: 0x0, symName: __ZN8CryptoPP8ECPPointD1Ev, symObjAddr: 0x15808, symBinAddr: 0x100048F40, symSize: 0x4 }
  - { offsetInCU: 0xB7494, offset: 0x174C2B, size: 0x8, addend: 0x0, symName: __ZNK8CryptoPP13AbstractGroupINS_8ECPPointEE10AccumulateERS1_RKS1_, symObjAddr: 0x1580C, symBinAddr: 0x100048F44, symSize: 0x50 }
  - { offsetInCU: 0xB7528, offset: 0x174CBF, size: 0x8, addend: 0x0, symName: __ZNK8CryptoPP13AbstractGroupINS_8ECPPointEE6ReduceERS1_RKS1_, symObjAddr: 0x1585C, symBinAddr: 0x100048F94, symSize: 0x50 }
  - { offsetInCU: 0xB75F0, offset: 0x174D87, size: 0x8, addend: 0x0, symName: __ZNK8CryptoPP13AbstractGroupINS_8ECPPointEE14ScalarMultiplyERKS1_RKNS_7IntegerE, symObjAddr: 0x158AC, symBinAddr: 0x100048FE4, symSize: 0xEC }
  - { offsetInCU: 0xB799C, offset: 0x175133, size: 0x8, addend: 0x0, symName: __ZNK8CryptoPP13AbstractGroupINS_8ECPPointEE21CascadeScalarMultiplyERKS1_RKNS_7IntegerES4_S7_, symObjAddr: 0x15998, symBinAddr: 0x1000490D0, symSize: 0x9B0 }
  - { offsetInCU: 0xB85C0, offset: 0x175D57, size: 0x8, addend: 0x0, symName: __ZNSt3__16vectorIN8CryptoPP8ECPPointENS_9allocatorIS2_EEEC2Em, symObjAddr: 0x48C14, symBinAddr: 0x100078684, symSize: 0x134 }
  - { offsetInCU: 0xB89DD, offset: 0x176174, size: 0x8, addend: 0x0, symName: __ZNSt3__16vectorIN8CryptoPP8ECPPointENS_9allocatorIS2_EEED1B7v160006Ev, symObjAddr: 0x16348, symBinAddr: 0x100049A80, symSize: 0x6C }
  - { offsetInCU: 0xB8DA0, offset: 0x176537, size: 0x8, addend: 0x0, symName: __ZNK8CryptoPP13AbstractGroupINS_8ECPPointEE20SimultaneousMultiplyEPS1_RKS1_PKNS_7IntegerEj, symObjAddr: 0x163B4, symBinAddr: 0x100049AEC, symSize: 0x834 }
  - { offsetInCU: 0xBA2E8, offset: 0x177A7F, size: 0x8, addend: 0x0, symName: __ZNSt3__16vectorINS0_IN8CryptoPP8ECPPointENS_9allocatorIS2_EEEENS3_IS5_EEEC1Em, symObjAddr: 0x16BE8, symBinAddr: 0x10004A320, symSize: 0x148 }
  - { offsetInCU: 0xBA85B, offset: 0x177FF2, size: 0x8, addend: 0x0, symName: __ZNSt3__16vectorIN8CryptoPP8ECPPointENS_9allocatorIS2_EEE8__appendEmRKS2_, symObjAddr: 0x48DEC, symBinAddr: 0x10007885C, symSize: 0x320 }
  - { offsetInCU: 0xBB289, offset: 0x178A20, size: 0x8, addend: 0x0, symName: __ZNSt3__16vectorINS0_IN8CryptoPP8ECPPointENS_9allocatorIS2_EEEENS3_IS5_EEED1B7v160006Ev, symObjAddr: 0x16D30, symBinAddr: 0x10004A468, symSize: 0xAC }
  - { offsetInCU: 0xBB7D3, offset: 0x178F6A, size: 0x8, addend: 0x0, symName: __ZNKSt3__16vectorINS0_IN8CryptoPP8ECPPointENS_9allocatorIS2_EEEENS3_IS5_EEE20__throw_length_errorB7v160006Ev, symObjAddr: 0x48DD8, symBinAddr: 0x100078848, symSize: 0x14 }
  - { offsetInCU: 0xBB7FC, offset: 0x178F93, size: 0x8, addend: 0x0, symName: __ZNSt3__16vectorIN8CryptoPP8ECPPointENS_9allocatorIS2_EEE8__appendEmRKS2_, symObjAddr: 0x48DEC, symBinAddr: 0x10007885C, symSize: 0x320 }
  - { offsetInCU: 0xBB808, offset: 0x178F9F, size: 0x8, addend: 0x0, symName: __ZN8CryptoPP13AbstractGroupINS_9EC2NPointEED2Ev, symObjAddr: 0x16DDC, symBinAddr: 0x10004A514, symSize: 0x4 }
  - { offsetInCU: 0xBB830, offset: 0x178FC7, size: 0x8, addend: 0x0, symName: __ZN8CryptoPP13AbstractGroupINS_9EC2NPointEED1Ev, symObjAddr: 0x16DE0, symBinAddr: 0x1000C7854, symSize: 0x4 }
  - { offsetInCU: 0xBB858, offset: 0x178FEF, size: 0x8, addend: 0x0, symName: __ZN8CryptoPP13AbstractGroupINS_9EC2NPointEED0Ev, symObjAddr: 0x16DE4, symBinAddr: 0x1000C7858, symSize: 0x4 }
  - { offsetInCU: 0xBB880, offset: 0x179017, size: 0x8, addend: 0x0, symName: __ZNK8CryptoPP13AbstractGroupINS_9EC2NPointEE15InversionIsFastEv, symObjAddr: 0x16DE8, symBinAddr: 0x10004A518, symSize: 0x8 }
  - { offsetInCU: 0xBB8A7, offset: 0x17903E, size: 0x8, addend: 0x0, symName: __ZNK8CryptoPP13AbstractGroupINS_9EC2NPointEE6DoubleERKS1_, symObjAddr: 0x16DF0, symBinAddr: 0x10004A520, symSize: 0x10 }
  - { offsetInCU: 0xBB941, offset: 0x1790D8, size: 0x8, addend: 0x0, symName: __ZNK8CryptoPP13AbstractGroupINS_9EC2NPointEE8SubtractERKS1_S4_, symObjAddr: 0x16E00, symBinAddr: 0x10004A530, symSize: 0xF4 }
  - { offsetInCU: 0xBBB74, offset: 0x17930B, size: 0x8, addend: 0x0, symName: __ZN8CryptoPP9EC2NPointD1Ev, symObjAddr: 0x16EF4, symBinAddr: 0x10004A624, symSize: 0xC4 }
  - { offsetInCU: 0xBBFBC, offset: 0x179753, size: 0x8, addend: 0x0, symName: __ZNK8CryptoPP13AbstractGroupINS_9EC2NPointEE10AccumulateERS1_RKS1_, symObjAddr: 0x16FB8, symBinAddr: 0x10004A6E8, symSize: 0x50 }
  - { offsetInCU: 0xBC050, offset: 0x1797E7, size: 0x8, addend: 0x0, symName: __ZNK8CryptoPP13AbstractGroupINS_9EC2NPointEE6ReduceERS1_RKS1_, symObjAddr: 0x17008, symBinAddr: 0x10004A738, symSize: 0x50 }
  - { offsetInCU: 0xBC118, offset: 0x1798AF, size: 0x8, addend: 0x0, symName: __ZNK8CryptoPP13AbstractGroupINS_9EC2NPointEE14ScalarMultiplyERKS1_RKNS_7IntegerE, symObjAddr: 0x17058, symBinAddr: 0x10004A788, symSize: 0xDC }
  - { offsetInCU: 0xBC490, offset: 0x179C27, size: 0x8, addend: 0x0, symName: __ZNK8CryptoPP13AbstractGroupINS_9EC2NPointEE21CascadeScalarMultiplyERKS1_RKNS_7IntegerES4_S7_, symObjAddr: 0x17134, symBinAddr: 0x10004A864, symSize: 0x990 }
  - { offsetInCU: 0xBD066, offset: 0x17A7FD, size: 0x8, addend: 0x0, symName: __ZNSt3__16vectorIN8CryptoPP9EC2NPointENS_9allocatorIS2_EEEC2Em, symObjAddr: 0x49280, symBinAddr: 0x100078CF0, symSize: 0x120 }
  - { offsetInCU: 0xBD47D, offset: 0x17AC14, size: 0x8, addend: 0x0, symName: __ZNSt3__16vectorIN8CryptoPP9EC2NPointENS_9allocatorIS2_EEED1B7v160006Ev, symObjAddr: 0x17AC4, symBinAddr: 0x10004B1F4, symSize: 0x6C }
  - { offsetInCU: 0xBD840, offset: 0x17AFD7, size: 0x8, addend: 0x0, symName: __ZNK8CryptoPP13AbstractGroupINS_9EC2NPointEE20SimultaneousMultiplyEPS1_RKS1_PKNS_7IntegerEj, symObjAddr: 0x17B30, symBinAddr: 0x10004B260, symSize: 0x824 }
  - { offsetInCU: 0xBED4B, offset: 0x17C4E2, size: 0x8, addend: 0x0, symName: __ZNSt3__16vectorINS0_IN8CryptoPP9EC2NPointENS_9allocatorIS2_EEEENS3_IS5_EEEC1Em, symObjAddr: 0x18354, symBinAddr: 0x10004BA84, symSize: 0x148 }
  - { offsetInCU: 0xBF2BE, offset: 0x17CA55, size: 0x8, addend: 0x0, symName: __ZNSt3__16vectorIN8CryptoPP9EC2NPointENS_9allocatorIS2_EEE8__appendEmRKS2_, symObjAddr: 0x49444, symBinAddr: 0x100078EB4, symSize: 0x2E0 }
  - { offsetInCU: 0xBFC96, offset: 0x17D42D, size: 0x8, addend: 0x0, symName: __ZNSt3__16vectorINS0_IN8CryptoPP9EC2NPointENS_9allocatorIS2_EEEENS3_IS5_EEED1B7v160006Ev, symObjAddr: 0x1849C, symBinAddr: 0x10004BBCC, symSize: 0xAC }
  - { offsetInCU: 0xC01E0, offset: 0x17D977, size: 0x8, addend: 0x0, symName: __ZNKSt3__16vectorINS0_IN8CryptoPP9EC2NPointENS_9allocatorIS2_EEEENS3_IS5_EEE20__throw_length_errorB7v160006Ev, symObjAddr: 0x49430, symBinAddr: 0x100078EA0, symSize: 0x14 }
  - { offsetInCU: 0xC0209, offset: 0x17D9A0, size: 0x8, addend: 0x0, symName: __ZNSt3__16vectorIN8CryptoPP9EC2NPointENS_9allocatorIS2_EEE8__appendEmRKS2_, symObjAddr: 0x49444, symBinAddr: 0x100078EB4, symSize: 0x2E0 }
  - { offsetInCU: 0xC0215, offset: 0x17D9AC, size: 0x8, addend: 0x0, symName: __ZN8CryptoPP30DL_FixedBasePrecomputationImplINS_9EC2NPointEED2Ev, symObjAddr: 0x18548, symBinAddr: 0x10004BC78, symSize: 0xD8 }
  - { offsetInCU: 0xC058A, offset: 0x17DD21, size: 0x8, addend: 0x0, symName: __ZN8CryptoPP30DL_FixedBasePrecomputationImplINS_9EC2NPointEED1Ev, symObjAddr: 0x18620, symBinAddr: 0x10004BD50, symSize: 0x4 }
  - { offsetInCU: 0xC05AE, offset: 0x17DD45, size: 0x8, addend: 0x0, symName: __ZN8CryptoPP30DL_FixedBasePrecomputationImplINS_9EC2NPointEED1Ev, symObjAddr: 0x18620, symBinAddr: 0x10004BD50, symSize: 0x4 }
  - { offsetInCU: 0xC05E1, offset: 0x17DD78, size: 0x8, addend: 0x0, symName: __ZN8CryptoPP30DL_FixedBasePrecomputationImplINS_9EC2NPointEED0Ev, symObjAddr: 0x18624, symBinAddr: 0x10004BD54, symSize: 0x38 }
  - { offsetInCU: 0xC066D, offset: 0x17DE04, size: 0x8, addend: 0x0, symName: __ZN8CryptoPP30DL_FixedBasePrecomputationImplINS_9EC2NPointEEC2Ev, symObjAddr: 0x1865C, symBinAddr: 0x10004BD8C, symSize: 0xC0 }
  - { offsetInCU: 0xC0837, offset: 0x17DFCE, size: 0x8, addend: 0x0, symName: __ZN8CryptoPP30DL_FixedBasePrecomputationImplINS_9EC2NPointEEC1Ev, symObjAddr: 0x1871C, symBinAddr: 0x10004BE4C, symSize: 0x4 }
  - { offsetInCU: 0xC085B, offset: 0x17DFF2, size: 0x8, addend: 0x0, symName: __ZN8CryptoPP30DL_FixedBasePrecomputationImplINS_9EC2NPointEEC1Ev, symObjAddr: 0x1871C, symBinAddr: 0x10004BE4C, symSize: 0x4 }
  - { offsetInCU: 0xC0885, offset: 0x17E01C, size: 0x8, addend: 0x0, symName: __ZNK8CryptoPP30DL_FixedBasePrecomputationImplINS_9EC2NPointEE13IsInitializedEv, symObjAddr: 0x18720, symBinAddr: 0x10004BE50, symSize: 0x10 }
  - { offsetInCU: 0xC08AE, offset: 0x17E045, size: 0x8, addend: 0x0, symName: __ZNK8CryptoPP30DL_FixedBasePrecomputationImplINS_9EC2NPointEE13IsInitializedEv, symObjAddr: 0x18720, symBinAddr: 0x10004BE50, symSize: 0x10 }
  - { offsetInCU: 0xC0921, offset: 0x17E0B8, size: 0x8, addend: 0x0, symName: __ZN8CryptoPP30DL_FixedBasePrecomputationImplINS_9EC2NPointEE7SetBaseERKNS_22DL_GroupPrecomputationIS1_EERKS1_, symObjAddr: 0x18730, symBinAddr: 0x10004BE60, symSize: 0x238 }
  - { offsetInCU: 0xC0D69, offset: 0x17E500, size: 0x8, addend: 0x0, symName: __ZNSt3__16vectorIN8CryptoPP9EC2NPointENS_9allocatorIS2_EEE8__appendEm, symObjAddr: 0x49888, symBinAddr: 0x1000792F8, symSize: 0x2AC }
  - { offsetInCU: 0xC16E3, offset: 0x17EE7A, size: 0x8, addend: 0x0, symName: __ZNK8CryptoPP30DL_FixedBasePrecomputationImplINS_9EC2NPointEE7GetBaseERKNS_22DL_GroupPrecomputationIS1_EE, symObjAddr: 0x18968, symBinAddr: 0x10004C098, symSize: 0x44 }
  - { offsetInCU: 0xC174D, offset: 0x17EEE4, size: 0x8, addend: 0x0, symName: __ZN8CryptoPP30DL_FixedBasePrecomputationImplINS_9EC2NPointEE10PrecomputeERKNS_22DL_GroupPrecomputationIS1_EEjj, symObjAddr: 0x189AC, symBinAddr: 0x10004C0DC, symSize: 0x1E4 }
  - { offsetInCU: 0xC1C5F, offset: 0x17F3F6, size: 0x8, addend: 0x0, symName: __ZN8CryptoPP30DL_FixedBasePrecomputationImplINS_9EC2NPointEE4LoadERKNS_22DL_GroupPrecomputationIS1_EERNS_22BufferedTransformationE, symObjAddr: 0x18B90, symBinAddr: 0x10004C2C0, symSize: 0x294 }
  - { offsetInCU: 0xC227A, offset: 0x17FA11, size: 0x8, addend: 0x0, symName: __ZNSt3__16vectorIN8CryptoPP9EC2NPointENS_9allocatorIS2_EEE21__push_back_slow_pathIS2_EEvOT_, symObjAddr: 0x49B34, symBinAddr: 0x1000795A4, symSize: 0x1D8 }
  - { offsetInCU: 0xC2909, offset: 0x1800A0, size: 0x8, addend: 0x0, symName: __ZNK8CryptoPP30DL_FixedBasePrecomputationImplINS_9EC2NPointEE4SaveERKNS_22DL_GroupPrecomputationIS1_EERNS_22BufferedTransformationE, symObjAddr: 0x18E24, symBinAddr: 0x10004C554, symSize: 0x16C }
  - { offsetInCU: 0xC2CC2, offset: 0x180459, size: 0x8, addend: 0x0, symName: __ZNK8CryptoPP30DL_FixedBasePrecomputationImplINS_9EC2NPointEE12ExponentiateERKNS_22DL_GroupPrecomputationIS1_EERKNS_7IntegerE, symObjAddr: 0x18F90, symBinAddr: 0x10004C6C0, symSize: 0xF4 }
  - { offsetInCU: 0xC2FAF, offset: 0x180746, size: 0x8, addend: 0x0, symName: __ZNSt3__16vectorIN8CryptoPP15BaseAndExponentINS1_9EC2NPointENS1_7IntegerEEENS_9allocatorIS5_EEE7reserveEm, symObjAddr: 0x19084, symBinAddr: 0x10004C7B4, symSize: 0xA8 }
  - { offsetInCU: 0xC31FE, offset: 0x180995, size: 0x8, addend: 0x0, symName: __ZNK8CryptoPP30DL_FixedBasePrecomputationImplINS_9EC2NPointEE14PrepareCascadeERKNS_22DL_GroupPrecomputationIS1_EERNSt3__16vectorINS_15BaseAndExponentIS1_NS_7IntegerEEENS7_9allocatorISB_EEEERKSA_, symObjAddr: 0x1912C, symBinAddr: 0x10004C85C, symSize: 0x4CC }
  - { offsetInCU: 0xC4246, offset: 0x1819DD, size: 0x8, addend: 0x0, symName: __ZNSt3__16vectorIN8CryptoPP15BaseAndExponentINS1_9EC2NPointENS1_7IntegerEEENS_9allocatorIS5_EEE16__destroy_vectorclB7v160006Ev, symObjAddr: 0x49D0C, symBinAddr: 0x10007977C, symSize: 0xD8 }
  - { offsetInCU: 0xC46F6, offset: 0x181E8D, size: 0x8, addend: 0x0, symName: __ZNSt3__114__split_bufferIN8CryptoPP15BaseAndExponentINS1_9EC2NPointENS1_7IntegerEEERNS_9allocatorIS5_EEED2Ev, symObjAddr: 0x49FF0, symBinAddr: 0x100079A60, symSize: 0xB8 }
  - { offsetInCU: 0xC49C5, offset: 0x18215C, size: 0x8, addend: 0x0, symName: __ZNKSt3__16vectorIN8CryptoPP15BaseAndExponentINS1_9EC2NPointENS1_7IntegerEEENS_9allocatorIS5_EEE20__throw_length_errorB7v160006Ev, symObjAddr: 0x49DE4, symBinAddr: 0x100079854, symSize: 0x14 }
  - { offsetInCU: 0xC49EE, offset: 0x182185, size: 0x8, addend: 0x0, symName: __ZNSt3__16vectorIN8CryptoPP15BaseAndExponentINS1_9EC2NPointENS1_7IntegerEEENS_9allocatorIS5_EEE26__swap_out_circular_bufferERNS_14__split_bufferIS5_RS7_EE, symObjAddr: 0x49DF8, symBinAddr: 0x100079868, symSize: 0x138 }
  - { offsetInCU: 0xC4B62, offset: 0x1822F9, size: 0x8, addend: 0x0, symName: __ZN8CryptoPP15BaseAndExponentINS_9EC2NPointENS_7IntegerEEC2ERKS1_RKS2_, symObjAddr: 0x4A7F4, symBinAddr: 0x10007A264, symSize: 0xC8 }
  - { offsetInCU: 0xC4D1D, offset: 0x1824B4, size: 0x8, addend: 0x0, symName: __ZNSt3__19allocatorIN8CryptoPP15BaseAndExponentINS1_9EC2NPointENS1_7IntegerEEEE9constructB7v160006IS5_JS5_EEEvPT_DpOT0_, symObjAddr: 0x4A9B4, symBinAddr: 0x10007A424, symSize: 0xC0 }
  - { offsetInCU: 0xC4F2D, offset: 0x1826C4, size: 0x8, addend: 0x0, symName: __ZNSt3__16vectorIN8CryptoPP15BaseAndExponentINS1_9EC2NPointENS1_7IntegerEEENS_9allocatorIS5_EEE21__push_back_slow_pathIS5_EEvOT_, symObjAddr: 0x4A8BC, symBinAddr: 0x10007A32C, symSize: 0xF8 }
  - { offsetInCU: 0xC527F, offset: 0x182A16, size: 0x8, addend: 0x0, symName: __ZN8CryptoPP15BaseAndExponentINS_9EC2NPointENS_7IntegerEED1Ev, symObjAddr: 0x199F4, symBinAddr: 0x10004D124, symSize: 0x74 }
  - { offsetInCU: 0xC54B1, offset: 0x182C48, size: 0x8, addend: 0x0, symName: __ZNK8CryptoPP30DL_FixedBasePrecomputationImplINS_9EC2NPointEE19CascadeExponentiateERKNS_22DL_GroupPrecomputationIS1_EERKNS_7IntegerERKNS_26DL_FixedBasePrecomputationIS1_EES9_, symObjAddr: 0x198CC, symBinAddr: 0x10004CFFC, symSize: 0x128 }
  - { offsetInCU: 0xC5829, offset: 0x182FC0, size: 0x8, addend: 0x0, symName: __ZN8CryptoPP22DL_GroupPrecomputationINS_9EC2NPointEED2Ev, symObjAddr: 0x19A68, symBinAddr: 0x10004D198, symSize: 0x4 }
  - { offsetInCU: 0xC5851, offset: 0x182FE8, size: 0x8, addend: 0x0, symName: __ZN8CryptoPP22DL_GroupPrecomputationINS_9EC2NPointEED1Ev, symObjAddr: 0x19A6C, symBinAddr: 0x1000C785C, symSize: 0x4 }
  - { offsetInCU: 0xC5879, offset: 0x183010, size: 0x8, addend: 0x0, symName: __ZN8CryptoPP22DL_GroupPrecomputationINS_9EC2NPointEED0Ev, symObjAddr: 0x19A70, symBinAddr: 0x1000C7860, symSize: 0x4 }
  - { offsetInCU: 0xC58A1, offset: 0x183038, size: 0x8, addend: 0x0, symName: __ZNK8CryptoPP22DL_GroupPrecomputationINS_9EC2NPointEE15NeedConversionsEv, symObjAddr: 0x19A74, symBinAddr: 0x10004D19C, symSize: 0x8 }
  - { offsetInCU: 0xC58C8, offset: 0x18305F, size: 0x8, addend: 0x0, symName: __ZNK8CryptoPP22DL_GroupPrecomputationINS_9EC2NPointEE9ConvertInERKS1_, symObjAddr: 0x19A7C, symBinAddr: 0x10004D1A4, symSize: 0x9C }
  - { offsetInCU: 0xC5A59, offset: 0x1831F0, size: 0x8, addend: 0x0, symName: __ZNK8CryptoPP22DL_GroupPrecomputationINS_9EC2NPointEE10ConvertOutERKS1_, symObjAddr: 0x19B18, symBinAddr: 0x10004D240, symSize: 0x9C }
  - { offsetInCU: 0xC5BEA, offset: 0x183381, size: 0x8, addend: 0x0, symName: __ZN8CryptoPP30DL_FixedBasePrecomputationImplINS_8ECPPointEED2Ev, symObjAddr: 0x19BB4, symBinAddr: 0x10004D2DC, symSize: 0xD8 }
  - { offsetInCU: 0xC5F9B, offset: 0x183732, size: 0x8, addend: 0x0, symName: __ZN8CryptoPP30DL_FixedBasePrecomputationImplINS_8ECPPointEED1Ev, symObjAddr: 0x19C8C, symBinAddr: 0x10004D3B4, symSize: 0x4 }
  - { offsetInCU: 0xC5FBF, offset: 0x183756, size: 0x8, addend: 0x0, symName: __ZN8CryptoPP30DL_FixedBasePrecomputationImplINS_8ECPPointEED1Ev, symObjAddr: 0x19C8C, symBinAddr: 0x10004D3B4, symSize: 0x4 }
  - { offsetInCU: 0xC5FF2, offset: 0x183789, size: 0x8, addend: 0x0, symName: __ZN8CryptoPP30DL_FixedBasePrecomputationImplINS_8ECPPointEED0Ev, symObjAddr: 0x19C90, symBinAddr: 0x10004D3B8, symSize: 0x38 }
  - { offsetInCU: 0xC607E, offset: 0x183815, size: 0x8, addend: 0x0, symName: __ZN8CryptoPP30DL_FixedBasePrecomputationImplINS_8ECPPointEEC2Ev, symObjAddr: 0x19CC8, symBinAddr: 0x10004D3F0, symSize: 0xD0 }
  - { offsetInCU: 0xC627A, offset: 0x183A11, size: 0x8, addend: 0x0, symName: __ZN8CryptoPP30DL_FixedBasePrecomputationImplINS_8ECPPointEEC1Ev, symObjAddr: 0x19D98, symBinAddr: 0x10004D4C0, symSize: 0x4 }
  - { offsetInCU: 0xC629E, offset: 0x183A35, size: 0x8, addend: 0x0, symName: __ZN8CryptoPP30DL_FixedBasePrecomputationImplINS_8ECPPointEEC1Ev, symObjAddr: 0x19D98, symBinAddr: 0x10004D4C0, symSize: 0x4 }
  - { offsetInCU: 0xC62C8, offset: 0x183A5F, size: 0x8, addend: 0x0, symName: __ZNK8CryptoPP30DL_FixedBasePrecomputationImplINS_8ECPPointEE13IsInitializedEv, symObjAddr: 0x19D9C, symBinAddr: 0x10004D4C4, symSize: 0x10 }
  - { offsetInCU: 0xC62F1, offset: 0x183A88, size: 0x8, addend: 0x0, symName: __ZNK8CryptoPP30DL_FixedBasePrecomputationImplINS_8ECPPointEE13IsInitializedEv, symObjAddr: 0x19D9C, symBinAddr: 0x10004D4C4, symSize: 0x10 }
  - { offsetInCU: 0xC6364, offset: 0x183AFB, size: 0x8, addend: 0x0, symName: __ZN8CryptoPP30DL_FixedBasePrecomputationImplINS_8ECPPointEE7SetBaseERKNS_22DL_GroupPrecomputationIS1_EERKS1_, symObjAddr: 0x19DAC, symBinAddr: 0x10004D4D4, symSize: 0x250 }
  - { offsetInCU: 0xC67CA, offset: 0x183F61, size: 0x8, addend: 0x0, symName: __ZNSt3__16vectorIN8CryptoPP8ECPPointENS_9allocatorIS2_EEE8__appendEm, symObjAddr: 0x4AA74, symBinAddr: 0x10007A4E4, symSize: 0x2EC }
  - { offsetInCU: 0xC719A, offset: 0x184931, size: 0x8, addend: 0x0, symName: __ZNK8CryptoPP30DL_FixedBasePrecomputationImplINS_8ECPPointEE7GetBaseERKNS_22DL_GroupPrecomputationIS1_EE, symObjAddr: 0x19FFC, symBinAddr: 0x10004D724, symSize: 0x44 }
  - { offsetInCU: 0xC7204, offset: 0x18499B, size: 0x8, addend: 0x0, symName: __ZN8CryptoPP30DL_FixedBasePrecomputationImplINS_8ECPPointEE10PrecomputeERKNS_22DL_GroupPrecomputationIS1_EEjj, symObjAddr: 0x1A040, symBinAddr: 0x10004D768, symSize: 0x1EC }
  - { offsetInCU: 0xC7752, offset: 0x184EE9, size: 0x8, addend: 0x0, symName: __ZN8CryptoPP30DL_FixedBasePrecomputationImplINS_8ECPPointEE4LoadERKNS_22DL_GroupPrecomputationIS1_EERNS_22BufferedTransformationE, symObjAddr: 0x1A22C, symBinAddr: 0x10004D954, symSize: 0x2A4 }
  - { offsetInCU: 0xC7DF3, offset: 0x18558A, size: 0x8, addend: 0x0, symName: __ZNSt3__16vectorIN8CryptoPP8ECPPointENS_9allocatorIS2_EEE21__push_back_slow_pathIS2_EEvOT_, symObjAddr: 0x4AD60, symBinAddr: 0x10007A7D0, symSize: 0x200 }
  - { offsetInCU: 0xC849A, offset: 0x185C31, size: 0x8, addend: 0x0, symName: __ZNK8CryptoPP30DL_FixedBasePrecomputationImplINS_8ECPPointEE4SaveERKNS_22DL_GroupPrecomputationIS1_EERNS_22BufferedTransformationE, symObjAddr: 0x1A4D0, symBinAddr: 0x10004DBF8, symSize: 0x174 }
  - { offsetInCU: 0xC8853, offset: 0x185FEA, size: 0x8, addend: 0x0, symName: __ZNK8CryptoPP30DL_FixedBasePrecomputationImplINS_8ECPPointEE12ExponentiateERKNS_22DL_GroupPrecomputationIS1_EERKNS_7IntegerE, symObjAddr: 0x1A644, symBinAddr: 0x10004DD6C, symSize: 0xFC }
  - { offsetInCU: 0xC8B80, offset: 0x186317, size: 0x8, addend: 0x0, symName: __ZNSt3__16vectorIN8CryptoPP15BaseAndExponentINS1_8ECPPointENS1_7IntegerEEENS_9allocatorIS5_EEE7reserveEm, symObjAddr: 0x1A740, symBinAddr: 0x10004DE68, symSize: 0xC8 }
  - { offsetInCU: 0xC8DCF, offset: 0x186566, size: 0x8, addend: 0x0, symName: __ZNK8CryptoPP30DL_FixedBasePrecomputationImplINS_8ECPPointEE14PrepareCascadeERKNS_22DL_GroupPrecomputationIS1_EERNSt3__16vectorINS_15BaseAndExponentIS1_NS_7IntegerEEENS7_9allocatorISB_EEEERKSA_, symObjAddr: 0x1A808, symBinAddr: 0x10004DF30, symSize: 0x4BC }
  - { offsetInCU: 0xC9FC3, offset: 0x18775A, size: 0x8, addend: 0x0, symName: __ZNSt3__16vectorIN8CryptoPP15BaseAndExponentINS1_8ECPPointENS1_7IntegerEEENS_9allocatorIS5_EEE16__destroy_vectorclB7v160006Ev, symObjAddr: 0x4AF60, symBinAddr: 0x10007A9D0, symSize: 0xD8 }
  - { offsetInCU: 0xCA4AF, offset: 0x187C46, size: 0x8, addend: 0x0, symName: __ZNSt3__114__split_bufferIN8CryptoPP15BaseAndExponentINS1_8ECPPointENS1_7IntegerEEERNS_9allocatorIS5_EEED2Ev, symObjAddr: 0x4B250, symBinAddr: 0x10007ACC0, symSize: 0xB8 }
  - { offsetInCU: 0xCA7BA, offset: 0x187F51, size: 0x8, addend: 0x0, symName: __ZNKSt3__16vectorIN8CryptoPP15BaseAndExponentINS1_8ECPPointENS1_7IntegerEEENS_9allocatorIS5_EEE20__throw_length_errorB7v160006Ev, symObjAddr: 0x4B038, symBinAddr: 0x10007AAA8, symSize: 0x14 }
  - { offsetInCU: 0xCA7E3, offset: 0x187F7A, size: 0x8, addend: 0x0, symName: __ZNSt3__16vectorIN8CryptoPP15BaseAndExponentINS1_8ECPPointENS1_7IntegerEEENS_9allocatorIS5_EEE26__swap_out_circular_bufferERNS_14__split_bufferIS5_RS7_EE, symObjAddr: 0x4B04C, symBinAddr: 0x10007AABC, symSize: 0x130 }
  - { offsetInCU: 0xCA9BB, offset: 0x188152, size: 0x8, addend: 0x0, symName: __ZN8CryptoPP15BaseAndExponentINS_8ECPPointENS_7IntegerEEC2ERKS1_RKS2_, symObjAddr: 0x4B8FC, symBinAddr: 0x10007B36C, symSize: 0xD8 }
  - { offsetInCU: 0xCABAA, offset: 0x188341, size: 0x8, addend: 0x0, symName: __ZN8CryptoPP15BaseAndExponentINS_8ECPPointENS_7IntegerEEC2ERKS3_, symObjAddr: 0x4B17C, symBinAddr: 0x10007ABEC, symSize: 0xD4 }
  - { offsetInCU: 0xCAD85, offset: 0x18851C, size: 0x8, addend: 0x0, symName: __ZNSt3__16vectorIN8CryptoPP15BaseAndExponentINS1_8ECPPointENS1_7IntegerEEENS_9allocatorIS5_EEE21__push_back_slow_pathIS5_EEvOT_, symObjAddr: 0x4B9D4, symBinAddr: 0x10007B444, symSize: 0x110 }
  - { offsetInCU: 0xCB128, offset: 0x1888BF, size: 0x8, addend: 0x0, symName: __ZN8CryptoPP15BaseAndExponentINS_8ECPPointENS_7IntegerEED1Ev, symObjAddr: 0x1B0D8, symBinAddr: 0x10004E800, symSize: 0x74 }
  - { offsetInCU: 0xCB398, offset: 0x188B2F, size: 0x8, addend: 0x0, symName: __ZNK8CryptoPP30DL_FixedBasePrecomputationImplINS_8ECPPointEE19CascadeExponentiateERKNS_22DL_GroupPrecomputationIS1_EERKNS_7IntegerERKNS_26DL_FixedBasePrecomputationIS1_EES9_, symObjAddr: 0x1AFA8, symBinAddr: 0x10004E6D0, symSize: 0x130 }
  - { offsetInCU: 0xCB750, offset: 0x188EE7, size: 0x8, addend: 0x0, symName: __ZN8CryptoPP22DL_GroupPrecomputationINS_8ECPPointEED2Ev, symObjAddr: 0x1B14C, symBinAddr: 0x10004E874, symSize: 0x4 }
  - { offsetInCU: 0xCB778, offset: 0x188F0F, size: 0x8, addend: 0x0, symName: __ZN8CryptoPP22DL_GroupPrecomputationINS_8ECPPointEED1Ev, symObjAddr: 0x1B150, symBinAddr: 0x1000C7864, symSize: 0x4 }
  - { offsetInCU: 0xCB7A0, offset: 0x188F37, size: 0x8, addend: 0x0, symName: __ZN8CryptoPP22DL_GroupPrecomputationINS_8ECPPointEED0Ev, symObjAddr: 0x1B154, symBinAddr: 0x1000C7868, symSize: 0x4 }
  - { offsetInCU: 0xCB7C8, offset: 0x188F5F, size: 0x8, addend: 0x0, symName: __ZNK8CryptoPP22DL_GroupPrecomputationINS_8ECPPointEE15NeedConversionsEv, symObjAddr: 0x1B158, symBinAddr: 0x10004E878, symSize: 0x8 }
  - { offsetInCU: 0xCB7EF, offset: 0x188F86, size: 0x8, addend: 0x0, symName: __ZNK8CryptoPP22DL_GroupPrecomputationINS_8ECPPointEE9ConvertInERKS1_, symObjAddr: 0x1B160, symBinAddr: 0x10004E880, symSize: 0xAC }
  - { offsetInCU: 0xCB994, offset: 0x18912B, size: 0x8, addend: 0x0, symName: __ZNK8CryptoPP22DL_GroupPrecomputationINS_8ECPPointEE10ConvertOutERKS1_, symObjAddr: 0x1B20C, symBinAddr: 0x10004E92C, symSize: 0xAC }
  - { offsetInCU: 0xCBC69, offset: 0x189400, size: 0x8, addend: 0x0, symName: __ZN8CryptoPP21DL_GroupParameters_ECINS_3ECPEED2Ev, symObjAddr: 0x1B2B8, symBinAddr: 0x10004E9D8, symSize: 0x11C }
  - { offsetInCU: 0xCC2EB, offset: 0x189A82, size: 0x8, addend: 0x0, symName: __ZN8CryptoPP22DL_GroupParametersImplINS_16EcPrecomputationINS_3ECPEEENS_30DL_FixedBasePrecomputationImplINS_8ECPPointEEENS_18DL_GroupParametersIS5_EEED2Ev, symObjAddr: 0x1B414, symBinAddr: 0x10004EAF4, symSize: 0xAC }
  - { offsetInCU: 0xCC572, offset: 0x189D09, size: 0x8, addend: 0x0, symName: __ZN8CryptoPP16EcPrecomputationINS_3ECPEED1Ev, symObjAddr: 0x3AABC, symBinAddr: 0x10006B340, symSize: 0x7C }
  - { offsetInCU: 0xCC6F1, offset: 0x189E88, size: 0x8, addend: 0x0, symName: __ZN8CryptoPP21DL_GroupParameters_ECINS_3ECPEED1Ev, symObjAddr: 0x1B4C0, symBinAddr: 0x10004EBA0, symSize: 0xC }
  - { offsetInCU: 0xCC743, offset: 0x189EDA, size: 0x8, addend: 0x0, symName: __ZTv0_n24_N8CryptoPP21DL_GroupParameters_ECINS_3ECPEED1Ev, symObjAddr: 0x1B4CC, symBinAddr: 0x10004EBAC, symSize: 0x18 }
  - { offsetInCU: 0xCC785, offset: 0x189F1C, size: 0x8, addend: 0x0, symName: __ZN8CryptoPP21DL_GroupParameters_ECINS_3ECPEED0Ev, symObjAddr: 0x1B4E4, symBinAddr: 0x10004EBC4, symSize: 0x40 }
  - { offsetInCU: 0xCC823, offset: 0x189FBA, size: 0x8, addend: 0x0, symName: __ZTv0_n24_N8CryptoPP21DL_GroupParameters_ECINS_3ECPEED0Ev, symObjAddr: 0x1B524, symBinAddr: 0x10004EC04, symSize: 0x4C }
  - { offsetInCU: 0xCCA3A, offset: 0x18A1D1, size: 0x8, addend: 0x0, symName: __ZN8CryptoPP21DL_GroupParameters_ECINS_3ECPEEC2Ev, symObjAddr: 0x1B570, symBinAddr: 0x10004EC50, symSize: 0x144 }
  - { offsetInCU: 0xCCE6E, offset: 0x18A605, size: 0x8, addend: 0x0, symName: __ZN8CryptoPP21DL_GroupParameters_ECINS_3ECPEEC1Ev, symObjAddr: 0x1B6B4, symBinAddr: 0x10004ED94, symSize: 0x104 }
  - { offsetInCU: 0xCD21F, offset: 0x18A9B6, size: 0x8, addend: 0x0, symName: __ZN8CryptoPP21DL_GroupParameters_ECINS_3ECPEEC2ERKNS_3OIDE, symObjAddr: 0x1B7B8, symBinAddr: 0x10004EE98, symSize: 0x16C }
  - { offsetInCU: 0xCD696, offset: 0x18AE2D, size: 0x8, addend: 0x0, symName: __ZN8CryptoPP21DL_GroupParameters_ECINS_3ECPEE10InitializeERKNS_3OIDE, symObjAddr: 0x1B924, symBinAddr: 0x10004F004, symSize: 0x4A0 }
  - { offsetInCU: 0xCE9F2, offset: 0x18C189, size: 0x8, addend: 0x0, symName: __ZNSt3__16vectorIjNS_9allocatorIjEEE6assignIPjLi0EEEvT_S6_, symObjAddr: 0x3D388, symBinAddr: 0x10006D6EC, symSize: 0x1F0 }
  - { offsetInCU: 0xCF111, offset: 0x18C8A8, size: 0x8, addend: 0x0, symName: __ZN8CryptoPP3ECPC2ERKNS_7IntegerES3_S3_, symObjAddr: 0x3D578, symBinAddr: 0x10006D8DC, symSize: 0x170 }
  - { offsetInCU: 0xCF135, offset: 0x18C8CC, size: 0x8, addend: 0x0, symName: __ZNK8CryptoPP23EcRecommendedParametersINS_3ECPEE5NewECEv, symObjAddr: 0x1DF98, symBinAddr: 0x100051678, symSize: 0x3F4 }
  - { offsetInCU: 0xCFF06, offset: 0x18D69D, size: 0x8, addend: 0x0, symName: __ZN8CryptoPP16EcPrecomputationINS_3ECPEE8SetCurveERKS1_, symObjAddr: 0x1C7EC, symBinAddr: 0x10004FECC, symSize: 0xEC }
  - { offsetInCU: 0xD0176, offset: 0x18D90D, size: 0x8, addend: 0x0, symName: __ZN8CryptoPP13BaseN_DecoderC2EPKiiPNS_22BufferedTransformationE, symObjAddr: 0x3D7D8, symBinAddr: 0x10006DB3C, symSize: 0x1E4 }
  - { offsetInCU: 0xD072F, offset: 0x18DEC6, size: 0x8, addend: 0x0, symName: __ZN8CryptoPP12StringSourceC2EPKcbPNS_22BufferedTransformationE, symObjAddr: 0x3DB60, symBinAddr: 0x10006DEAC, symSize: 0x1DC }
  - { offsetInCU: 0xD0D5C, offset: 0x18E4F3, size: 0x8, addend: 0x0, symName: __ZN8CryptoPP10UnknownOIDC1Ev, symObjAddr: 0x1DE74, symBinAddr: 0x100051554, symSize: 0xD4 }
  - { offsetInCU: 0xD13DC, offset: 0x18EB73, size: 0x8, addend: 0x0, symName: __ZN8CryptoPP21DL_GroupParameters_ECINS_3ECPEEC1ERKNS_3OIDE, symObjAddr: 0x1BDC4, symBinAddr: 0x10004F4A4, symSize: 0x128 }
  - { offsetInCU: 0xD1816, offset: 0x18EFAD, size: 0x8, addend: 0x0, symName: __ZN8CryptoPP21DL_GroupParameters_ECINS_3ECPEEC2ERKS1_RKNS_8ECPPointERKNS_7IntegerESA_, symObjAddr: 0x1BEEC, symBinAddr: 0x10004F5CC, symSize: 0x1B4 }
  - { offsetInCU: 0xD1D16, offset: 0x18F4AD, size: 0x8, addend: 0x0, symName: __ZN8CryptoPP21DL_GroupParameters_ECINS_3ECPEE10InitializeERKS1_RKNS_8ECPPointERKNS_7IntegerESA_, symObjAddr: 0x1C0A0, symBinAddr: 0x10004F780, symSize: 0x60 }
  - { offsetInCU: 0xD1D93, offset: 0x18F52A, size: 0x8, addend: 0x0, symName: __ZN8CryptoPP21DL_GroupParameters_ECINS_3ECPEEC1ERKS1_RKNS_8ECPPointERKNS_7IntegerESA_, symObjAddr: 0x1C100, symBinAddr: 0x10004F7E0, symSize: 0x170 }
  - { offsetInCU: 0xD2210, offset: 0x18F9A7, size: 0x8, addend: 0x0, symName: __ZN8CryptoPP21DL_GroupParameters_ECINS_3ECPEEC2ERNS_22BufferedTransformationE, symObjAddr: 0x1C270, symBinAddr: 0x10004F950, symSize: 0x16C }
  - { offsetInCU: 0xD2687, offset: 0x18FE1E, size: 0x8, addend: 0x0, symName: __ZN8CryptoPP21DL_GroupParameters_ECINS_3ECPEE9BERDecodeERNS_22BufferedTransformationE, symObjAddr: 0x1C3DC, symBinAddr: 0x10004FABC, symSize: 0x2E8 }
  - { offsetInCU: 0xD2FA6, offset: 0x19073D, size: 0x8, addend: 0x0, symName: __ZN8CryptoPP3ECPD2Ev, symObjAddr: 0x3E81C, symBinAddr: 0x10006EA18, symSize: 0xFC }
  - { offsetInCU: 0xD33A5, offset: 0x190B3C, size: 0x8, addend: 0x0, symName: __ZN8CryptoPP21DL_GroupParameters_ECINS_3ECPEEC1ERNS_22BufferedTransformationE, symObjAddr: 0x1C6C4, symBinAddr: 0x10004FDA4, symSize: 0x128 }
  - { offsetInCU: 0xD3858, offset: 0x190FEF, size: 0x8, addend: 0x0, symName: __ZN8CryptoPP3ECPC2ERKS0_, symObjAddr: 0x3B020, symBinAddr: 0x10006B8A4, symSize: 0x134 }
  - { offsetInCU: 0xD3B85, offset: 0x19131C, size: 0x8, addend: 0x0, symName: __ZN8CryptoPP23EcRecommendedParametersINS_3ECPEEC1ERKNS_3OIDEPKcS7_S7_S7_S7_j, symObjAddr: 0x3B1DC, symBinAddr: 0x10006BA60, symSize: 0x16C }
  - { offsetInCU: 0xD40E4, offset: 0x19187B, size: 0x8, addend: 0x0, symName: __ZN8CryptoPP10UnknownOIDD1Ev, symObjAddr: 0x1DF48, symBinAddr: 0x100051628, symSize: 0x50 }
  - { offsetInCU: 0xD42FC, offset: 0x191A93, size: 0x8, addend: 0x0, symName: __ZN8CryptoPP3ECPC2ERKNS_7IntegerES3_S3_, symObjAddr: 0x3D578, symBinAddr: 0x10006D8DC, symSize: 0x170 }
  - { offsetInCU: 0xD4673, offset: 0x191E0A, size: 0x8, addend: 0x0, symName: __ZNK8CryptoPP21DL_GroupParameters_ECINS_3ECPEE8GetCurveEv, symObjAddr: 0x1E38C, symBinAddr: 0x100051A6C, symSize: 0x8 }
  - { offsetInCU: 0xD4698, offset: 0x191E2F, size: 0x8, addend: 0x0, symName: __ZNK8CryptoPP21DL_GroupParameters_ECINS_3ECPEE8GetCurveEv, symObjAddr: 0x1E38C, symBinAddr: 0x100051A6C, symSize: 0x8 }
  - { offsetInCU: 0xD46B7, offset: 0x191E4E, size: 0x8, addend: 0x0, symName: __ZNK8CryptoPP21DL_GroupParameters_ECINS_3ECPEE8GetCurveEv, symObjAddr: 0x1E38C, symBinAddr: 0x100051A6C, symSize: 0x8 }
  - { offsetInCU: 0xD46D6, offset: 0x191E6D, size: 0x8, addend: 0x0, symName: __ZN8CryptoPP12StringSourceD1Ev, symObjAddr: 0x1E394, symBinAddr: 0x100051A74, symSize: 0x48 }
  - { offsetInCU: 0xD489A, offset: 0x192031, size: 0x8, addend: 0x0, symName: __ZNK8CryptoPP21DL_GroupParameters_ECINS_3ECPEE12GetVoidValueEPKcRKSt9type_infoPv, symObjAddr: 0x1E3DC, symBinAddr: 0x100051ABC, symSize: 0x10C }
  - { offsetInCU: 0xD4AC2, offset: 0x192259, size: 0x8, addend: 0x0, symName: __ZN8CryptoPP19GetValueHelperClassINS_21DL_GroupParameters_ECINS_3ECPEEENS_18DL_GroupParametersINS_8ECPPointEEEEC2EPKS3_PKcRKSt9type_infoPvPKNS_14NameValuePairsE, symObjAddr: 0x4BAE4, symBinAddr: 0x10007B554, symSize: 0x214 }
  - { offsetInCU: 0xD4CF6, offset: 0x19248D, size: 0x8, addend: 0x0, symName: __ZN8CryptoPP19GetValueHelperClassINS_21DL_GroupParameters_ECINS_3ECPEEENS_18DL_GroupParametersINS_8ECPPointEEEE10AssignableEv, symObjAddr: 0x1E4E8, symBinAddr: 0x100051BC8, symSize: 0x11C }
  - { offsetInCU: 0xD4E5C, offset: 0x1925F3, size: 0x8, addend: 0x0, symName: __ZN8CryptoPP19GetValueHelperClassINS_21DL_GroupParameters_ECINS_3ECPEEENS_18DL_GroupParametersINS_8ECPPointEEEEclIS2_EERS7_PKcMS3_KFRKT_vE, symObjAddr: 0x1E604, symBinAddr: 0x100051CE4, symSize: 0x124 }
  - { offsetInCU: 0xD4FE9, offset: 0x192780, size: 0x8, addend: 0x0, symName: __ZN8CryptoPP22DL_GroupParametersImplINS_16EcPrecomputationINS_3ECPEEENS_30DL_FixedBasePrecomputationImplINS_8ECPPointEEENS_18DL_GroupParametersIS5_EEEaSERKS9_, symObjAddr: 0x402DC, symBinAddr: 0x10007041C, symSize: 0x12C }
  - { offsetInCU: 0xD5286, offset: 0x192A1D, size: 0x8, addend: 0x0, symName: __ZTv0_n32_NK8CryptoPP21DL_GroupParameters_ECINS_3ECPEE12GetVoidValueEPKcRKSt9type_infoPv, symObjAddr: 0x1E728, symBinAddr: 0x100051E08, symSize: 0x10 }
  - { offsetInCU: 0xD5317, offset: 0x192AAE, size: 0x8, addend: 0x0, symName: __ZN8CryptoPP21DL_GroupParameters_ECINS_3ECPEE10AssignFromERKNS_14NameValuePairsE, symObjAddr: 0x1E738, symBinAddr: 0x100051E18, symSize: 0x308 }
  - { offsetInCU: 0xD5F2E, offset: 0x1936C5, size: 0x8, addend: 0x0, symName: __ZN8CryptoPP3ECPC2Ev, symObjAddr: 0x3E710, symBinAddr: 0x10006E90C, symSize: 0x10C }
  - { offsetInCU: 0xD61CC, offset: 0x193963, size: 0x8, addend: 0x0, symName: __ZNK8CryptoPP14NameValuePairs20GetRequiredParameterINS_3ECPEEEvPKcS4_RT_, symObjAddr: 0x1EA40, symBinAddr: 0x100052120, symSize: 0x18C }
  - { offsetInCU: 0xD67C9, offset: 0x193F60, size: 0x8, addend: 0x0, symName: __ZNK8CryptoPP14NameValuePairs20GetRequiredParameterINS_8ECPPointEEEvPKcS4_RT_, symObjAddr: 0x1EBCC, symBinAddr: 0x1000522AC, symSize: 0x18C }
  - { offsetInCU: 0xD6DC6, offset: 0x19455D, size: 0x8, addend: 0x0, symName: __ZNK8CryptoPP14NameValuePairs20GetRequiredParameterINS_7IntegerEEEvPKcS4_RT_, symObjAddr: 0x1ED58, symBinAddr: 0x100052438, symSize: 0x18C }
  - { offsetInCU: 0xD75B7, offset: 0x194D4E, size: 0x8, addend: 0x0, symName: __ZTv0_n40_N8CryptoPP21DL_GroupParameters_ECINS_3ECPEE10AssignFromERKNS_14NameValuePairsE, symObjAddr: 0x1EFB4, symBinAddr: 0x1000525C4, symSize: 0x10 }
  - { offsetInCU: 0xD75E5, offset: 0x194D7C, size: 0x8, addend: 0x0, symName: __ZN8CryptoPP21DL_GroupParameters_ECINS_3ECPEE14GenerateRandomERNS_21RandomNumberGeneratorERKNS_14NameValuePairsE, symObjAddr: 0x1EFC4, symBinAddr: 0x1000525D4, symSize: 0xD8 }
  - { offsetInCU: 0xD785F, offset: 0x194FF6, size: 0x8, addend: 0x0, symName: __ZNK8CryptoPP21DL_GroupParameters_ECINS_3ECPEE21GetBasePrecomputationEv, symObjAddr: 0x1F14C, symBinAddr: 0x1000526AC, symSize: 0x8 }
  - { offsetInCU: 0xD7886, offset: 0x19501D, size: 0x8, addend: 0x0, symName: __ZN8CryptoPP21DL_GroupParameters_ECINS_3ECPEE24AccessBasePrecomputationEv, symObjAddr: 0x1F154, symBinAddr: 0x1000526B4, symSize: 0x8 }
  - { offsetInCU: 0xD78AD, offset: 0x195044, size: 0x8, addend: 0x0, symName: __ZNK8CryptoPP21DL_GroupParameters_ECINS_3ECPEE16GetSubgroupOrderEv, symObjAddr: 0x1F15C, symBinAddr: 0x1000526BC, symSize: 0x8 }
  - { offsetInCU: 0xD791B, offset: 0x1950B2, size: 0x8, addend: 0x0, symName: __ZNK8CryptoPP21DL_GroupParameters_ECINS_3ECPEE11GetCofactorEv, symObjAddr: 0x1F164, symBinAddr: 0x1000526C4, symSize: 0x2F8 }
  - { offsetInCU: 0xD85A4, offset: 0x195D3B, size: 0x8, addend: 0x0, symName: __ZNK8CryptoPP21DL_GroupParameters_ECINS_3ECPEE13ValidateGroupERNS_21RandomNumberGeneratorEj, symObjAddr: 0x1F45C, symBinAddr: 0x1000529BC, symSize: 0x3E0 }
  - { offsetInCU: 0xD942B, offset: 0x196BC2, size: 0x8, addend: 0x0, symName: __ZNK8CryptoPP21DL_GroupParameters_ECINS_3ECPEE15ValidateElementEjRKNS_8ECPPointEPKNS_26DL_FixedBasePrecomputationIS3_EE, symObjAddr: 0x1FB30, symBinAddr: 0x100053090, symSize: 0x1C0 }
  - { offsetInCU: 0xD9729, offset: 0x196EC0, size: 0x8, addend: 0x0, symName: __ZNK8CryptoPP21DL_GroupParameters_ECINS_3ECPEE26FastSubgroupCheckAvailableEv, symObjAddr: 0x1FCF0, symBinAddr: 0x100053250, symSize: 0x8 }
  - { offsetInCU: 0xD9750, offset: 0x196EE7, size: 0x8, addend: 0x0, symName: __ZNK8CryptoPP21DL_GroupParameters_ECINS_3ECPEE13EncodeElementEbRKNS_8ECPPointEPh, symObjAddr: 0x1FCF8, symBinAddr: 0x100053258, symSize: 0x64 }
  - { offsetInCU: 0xD9825, offset: 0x196FBC, size: 0x8, addend: 0x0, symName: __ZNK8CryptoPP21DL_GroupParameters_ECINS_3ECPEE21GetEncodedElementSizeEb, symObjAddr: 0x1FD5C, symBinAddr: 0x1000532BC, symSize: 0x24 }
  - { offsetInCU: 0xD9A59, offset: 0x1971F0, size: 0x8, addend: 0x0, symName: __ZNK8CryptoPP21DL_GroupParameters_ECINS_3ECPEE13DecodeElementEPKhb, symObjAddr: 0x1FE64, symBinAddr: 0x1000532E0, symSize: 0x174 }
  - { offsetInCU: 0xD9D26, offset: 0x1974BD, size: 0x8, addend: 0x0, symName: __ZN8CryptoPP13DL_BadElementC1Ev, symObjAddr: 0x1FFD8, symBinAddr: 0x100053454, symSize: 0xD4 }
  - { offsetInCU: 0xDA40B, offset: 0x197BA2, size: 0x8, addend: 0x0, symName: __ZN8CryptoPP13DL_BadElementD1Ev, symObjAddr: 0x200AC, symBinAddr: 0x100053528, symSize: 0x50 }
  - { offsetInCU: 0xDA5C6, offset: 0x197D5D, size: 0x8, addend: 0x0, symName: __ZNK8CryptoPP21DL_GroupParameters_ECINS_3ECPEE23ConvertElementToIntegerERKNS_8ECPPointE, symObjAddr: 0x200FC, symBinAddr: 0x100053578, symSize: 0xC }
  - { offsetInCU: 0xDA61F, offset: 0x197DB6, size: 0x8, addend: 0x0, symName: __ZNK8CryptoPP21DL_GroupParameters_ECINS_3ECPEE14GetMaxExponentEv, symObjAddr: 0x20108, symBinAddr: 0x100053584, symSize: 0xA4 }
  - { offsetInCU: 0xDA7C6, offset: 0x197F5D, size: 0x8, addend: 0x0, symName: __ZNK8CryptoPP21DL_GroupParameters_ECINS_3ECPEE10IsIdentityERKNS_8ECPPointE, symObjAddr: 0x201AC, symBinAddr: 0x100053628, symSize: 0x8 }
  - { offsetInCU: 0xDA7FA, offset: 0x197F91, size: 0x8, addend: 0x0, symName: __ZNK8CryptoPP21DL_GroupParameters_ECINS_3ECPEE24SimultaneousExponentiateEPNS_8ECPPointERKS3_PKNS_7IntegerEj, symObjAddr: 0x201B4, symBinAddr: 0x100053630, symSize: 0x10 }
  - { offsetInCU: 0xDA85A, offset: 0x197FF1, size: 0x8, addend: 0x0, symName: __ZNK8CryptoPP21DL_GroupParameters_ECINS_3ECPEE24SimultaneousExponentiateEPNS_8ECPPointERKS3_PKNS_7IntegerEj, symObjAddr: 0x201B4, symBinAddr: 0x100053630, symSize: 0x10 }
  - { offsetInCU: 0xDA878, offset: 0x19800F, size: 0x8, addend: 0x0, symName: __ZNK8CryptoPP21DL_GroupParameters_ECINS_3ECPEE24SimultaneousExponentiateEPNS_8ECPPointERKS3_PKNS_7IntegerEj, symObjAddr: 0x201B4, symBinAddr: 0x100053630, symSize: 0x10 }
  - { offsetInCU: 0xDA897, offset: 0x19802E, size: 0x8, addend: 0x0, symName: __ZNK8CryptoPP21DL_GroupParameters_ECINS_3ECPEE24SimultaneousExponentiateEPNS_8ECPPointERKS3_PKNS_7IntegerEj, symObjAddr: 0x201B4, symBinAddr: 0x100053630, symSize: 0x10 }
  - { offsetInCU: 0xDA8E4, offset: 0x19807B, size: 0x8, addend: 0x0, symName: __ZN8CryptoPP21DL_GroupParameters_ECINS_3ECPEE25StaticAlgorithmNamePrefixEv, symObjAddr: 0x201C4, symBinAddr: 0x100053640, symSize: 0x18 }
  - { offsetInCU: 0xDAAE4, offset: 0x19827B, size: 0x8, addend: 0x0, symName: __ZNK8CryptoPP21DL_GroupParameters_ECINS_3ECPEE14GetAlgorithmIDEv, symObjAddr: 0x201DC, symBinAddr: 0x100053658, symSize: 0x88 }
  - { offsetInCU: 0xDAE65, offset: 0x1985FC, size: 0x8, addend: 0x0, symName: __ZNK8CryptoPP21DL_GroupParameters_ECINS_3ECPEE16MultiplyElementsERKNS_8ECPPointES5_, symObjAddr: 0x20264, symBinAddr: 0x1000536E0, symSize: 0xB8 }
  - { offsetInCU: 0xDB0E4, offset: 0x19887B, size: 0x8, addend: 0x0, symName: __ZNK8CryptoPP21DL_GroupParameters_ECINS_3ECPEE19CascadeExponentiateERKNS_8ECPPointERKNS_7IntegerES5_S8_, symObjAddr: 0x2031C, symBinAddr: 0x100053798, symSize: 0x10 }
  - { offsetInCU: 0xDB144, offset: 0x1988DB, size: 0x8, addend: 0x0, symName: __ZNK8CryptoPP21DL_GroupParameters_ECINS_3ECPEE19CascadeExponentiateERKNS_8ECPPointERKNS_7IntegerES5_S8_, symObjAddr: 0x2031C, symBinAddr: 0x100053798, symSize: 0x10 }
  - { offsetInCU: 0xDB162, offset: 0x1988F9, size: 0x8, addend: 0x0, symName: __ZNK8CryptoPP21DL_GroupParameters_ECINS_3ECPEE19CascadeExponentiateERKNS_8ECPPointERKNS_7IntegerES5_S8_, symObjAddr: 0x2031C, symBinAddr: 0x100053798, symSize: 0x10 }
  - { offsetInCU: 0xDB181, offset: 0x198918, size: 0x8, addend: 0x0, symName: __ZNK8CryptoPP21DL_GroupParameters_ECINS_3ECPEE19CascadeExponentiateERKNS_8ECPPointERKNS_7IntegerES5_S8_, symObjAddr: 0x2031C, symBinAddr: 0x100053798, symSize: 0x10 }
  - { offsetInCU: 0xDB50C, offset: 0x198CA3, size: 0x8, addend: 0x0, symName: __ZN8CryptoPP21DL_GroupParameters_ECINS_3ECPEE31GetNextRecommendedParametersOIDERKNS_3OIDE, symObjAddr: 0x2032C, symBinAddr: 0x1000537A8, symSize: 0x1F4 }
  - { offsetInCU: 0xDBCC9, offset: 0x199460, size: 0x8, addend: 0x0, symName: __ZN8CryptoPP4ASN16iso_cnEv, symObjAddr: 0x3CB80, symBinAddr: 0x10006D068, symSize: 0xDC }
  - { offsetInCU: 0xDBCEB, offset: 0x199482, size: 0x8, addend: 0x0, symName: __ZNK8CryptoPP21DL_GroupParameters_ECINS_3ECPEE9DEREncodeERNS_22BufferedTransformationE, symObjAddr: 0x20520, symBinAddr: 0x10005399C, symSize: 0x198 }
  - { offsetInCU: 0xDC0C4, offset: 0x19985B, size: 0x8, addend: 0x0, symName: __ZN8CryptoPP21DL_GroupParameters_ECINS_3ECPEE19SetPointCompressionEb, symObjAddr: 0x206B8, symBinAddr: 0x100053B34, symSize: 0x8 }
  - { offsetInCU: 0xDC0F4, offset: 0x19988B, size: 0x8, addend: 0x0, symName: __ZNK8CryptoPP21DL_GroupParameters_ECINS_3ECPEE19GetPointCompressionEv, symObjAddr: 0x206C0, symBinAddr: 0x100053B3C, symSize: 0x8 }
  - { offsetInCU: 0xDC117, offset: 0x1998AE, size: 0x8, addend: 0x0, symName: __ZN8CryptoPP21DL_GroupParameters_ECINS_3ECPEE14SetEncodeAsOIDEb, symObjAddr: 0x206C8, symBinAddr: 0x100053B44, symSize: 0x8 }
  - { offsetInCU: 0xDC147, offset: 0x1998DE, size: 0x8, addend: 0x0, symName: __ZNK8CryptoPP21DL_GroupParameters_ECINS_3ECPEE14GetEncodeAsOIDEv, symObjAddr: 0x206D0, symBinAddr: 0x100053B4C, symSize: 0x8 }
  - { offsetInCU: 0xDC1DA, offset: 0x199971, size: 0x8, addend: 0x0, symName: __ZNK8CryptoPP21DL_GroupParameters_ECINS_3ECPEEeqERKS2_, symObjAddr: 0x206D8, symBinAddr: 0x100053B54, symSize: 0x110 }
  - { offsetInCU: 0xDC4CC, offset: 0x199C63, size: 0x8, addend: 0x0, symName: __ZNK8CryptoPP21DL_GroupParameters_ECINS_3ECPEE18FieldElementLengthEv, symObjAddr: 0x207E8, symBinAddr: 0x100053C64, symSize: 0xC }
  - { offsetInCU: 0xDC4F5, offset: 0x199C8C, size: 0x8, addend: 0x0, symName: __ZNK8CryptoPP21DL_GroupParameters_ECINS_3ECPEE18FieldElementLengthEv, symObjAddr: 0x207E8, symBinAddr: 0x100053C64, symSize: 0xC }
  - { offsetInCU: 0xDC512, offset: 0x199CA9, size: 0x8, addend: 0x0, symName: __ZNK8CryptoPP21DL_GroupParameters_ECINS_3ECPEE18FieldElementLengthEv, symObjAddr: 0x207E8, symBinAddr: 0x100053C64, symSize: 0xC }
  - { offsetInCU: 0xDC531, offset: 0x199CC8, size: 0x8, addend: 0x0, symName: __ZNK8CryptoPP21DL_GroupParameters_ECINS_3ECPEE18FieldElementLengthEv, symObjAddr: 0x207E8, symBinAddr: 0x100053C64, symSize: 0xC }
  - { offsetInCU: 0xDC59D, offset: 0x199D34, size: 0x8, addend: 0x0, symName: __ZNK8CryptoPP21DL_GroupParameters_ECINS_3ECPEE14ExponentLengthEv, symObjAddr: 0x207F4, symBinAddr: 0x100053C70, symSize: 0x8 }
  - { offsetInCU: 0xDC640, offset: 0x199DD7, size: 0x8, addend: 0x0, symName: __ZN8CryptoPP21DL_GroupParameters_ECINS_4EC2NEED2Ev, symObjAddr: 0x207FC, symBinAddr: 0x100053C78, symSize: 0x170 }
  - { offsetInCU: 0xDCDE7, offset: 0x19A57E, size: 0x8, addend: 0x0, symName: __ZN8CryptoPP4EC2ND2Ev, symObjAddr: 0x401F4, symBinAddr: 0x100070334, symSize: 0xE8 }
  - { offsetInCU: 0xDD1B6, offset: 0x19A94D, size: 0x8, addend: 0x0, symName: __ZN8CryptoPP22DL_GroupParametersImplINS_16EcPrecomputationINS_4EC2NEEENS_30DL_FixedBasePrecomputationImplINS_9EC2NPointEEENS_18DL_GroupParametersIS5_EEED2Ev, symObjAddr: 0x2096C, symBinAddr: 0x100053DE8, symSize: 0x7C }
  - { offsetInCU: 0xDD2FA, offset: 0x19AA91, size: 0x8, addend: 0x0, symName: __ZN8CryptoPP21DL_GroupParameters_ECINS_4EC2NEED1Ev, symObjAddr: 0x209E8, symBinAddr: 0x100053E64, symSize: 0xC }
  - { offsetInCU: 0xDD34C, offset: 0x19AAE3, size: 0x8, addend: 0x0, symName: __ZTv0_n24_N8CryptoPP21DL_GroupParameters_ECINS_4EC2NEED1Ev, symObjAddr: 0x209F4, symBinAddr: 0x100053E70, symSize: 0x18 }
  - { offsetInCU: 0xDD38E, offset: 0x19AB25, size: 0x8, addend: 0x0, symName: __ZN8CryptoPP21DL_GroupParameters_ECINS_4EC2NEED0Ev, symObjAddr: 0x20A0C, symBinAddr: 0x100053E88, symSize: 0x40 }
  - { offsetInCU: 0xDD42C, offset: 0x19ABC3, size: 0x8, addend: 0x0, symName: __ZTv0_n24_N8CryptoPP21DL_GroupParameters_ECINS_4EC2NEED0Ev, symObjAddr: 0x20A4C, symBinAddr: 0x100053EC8, symSize: 0x4C }
  - { offsetInCU: 0xDD57E, offset: 0x19AD15, size: 0x8, addend: 0x0, symName: __ZN8CryptoPP21DL_GroupParameters_ECINS_4EC2NEEC2Ev, symObjAddr: 0x20A98, symBinAddr: 0x100053F14, symSize: 0x154 }
  - { offsetInCU: 0xDD9BD, offset: 0x19B154, size: 0x8, addend: 0x0, symName: __ZN8CryptoPP4EC2NC2Ev, symObjAddr: 0x400F8, symBinAddr: 0x100070238, symSize: 0xFC }
  - { offsetInCU: 0xDDC53, offset: 0x19B3EA, size: 0x8, addend: 0x0, symName: __ZN8CryptoPP21DL_GroupParameters_ECINS_4EC2NEEC1Ev, symObjAddr: 0x20BEC, symBinAddr: 0x100054068, symSize: 0x10C }
  - { offsetInCU: 0xDE017, offset: 0x19B7AE, size: 0x8, addend: 0x0, symName: __ZN8CryptoPP21DL_GroupParameters_ECINS_4EC2NEEC2ERKNS_3OIDE, symObjAddr: 0x20CF8, symBinAddr: 0x100054174, symSize: 0x174 }
  - { offsetInCU: 0xDE499, offset: 0x19BC30, size: 0x8, addend: 0x0, symName: __ZN8CryptoPP21DL_GroupParameters_ECINS_4EC2NEE10InitializeERKNS_3OIDE, symObjAddr: 0x20E6C, symBinAddr: 0x1000542E8, symSize: 0x4F4 }
  - { offsetInCU: 0xDF5AA, offset: 0x19CD41, size: 0x8, addend: 0x0, symName: __ZNK8CryptoPP23EcRecommendedParametersINS_4EC2NEE5NewECEv, symObjAddr: 0x22F40, symBinAddr: 0x1000563BC, symSize: 0x780 }
  - { offsetInCU: 0xE1422, offset: 0x19EBB9, size: 0x8, addend: 0x0, symName: __ZN8CryptoPP21DL_GroupParameters_ECINS_4EC2NEEC1ERKNS_3OIDE, symObjAddr: 0x21360, symBinAddr: 0x1000547DC, symSize: 0x130 }
  - { offsetInCU: 0xE1829, offset: 0x19EFC0, size: 0x8, addend: 0x0, symName: __ZN8CryptoPP21DL_GroupParameters_ECINS_4EC2NEEC2ERKS1_RKNS_9EC2NPointERKNS_7IntegerESA_, symObjAddr: 0x21490, symBinAddr: 0x10005490C, symSize: 0x19C }
  - { offsetInCU: 0xE1CF0, offset: 0x19F487, size: 0x8, addend: 0x0, symName: __ZN8CryptoPP21DL_GroupParameters_ECINS_4EC2NEE10InitializeERKS1_RKNS_9EC2NPointERKNS_7IntegerESA_, symObjAddr: 0x2162C, symBinAddr: 0x100054AA8, symSize: 0xCC }
  - { offsetInCU: 0xE1E47, offset: 0x19F5DE, size: 0x8, addend: 0x0, symName: __ZN8CryptoPP21DL_GroupParameters_ECINS_4EC2NEEC1ERKS1_RKNS_9EC2NPointERKNS_7IntegerESA_, symObjAddr: 0x216F8, symBinAddr: 0x100054B74, symSize: 0x150 }
  - { offsetInCU: 0xE2293, offset: 0x19FA2A, size: 0x8, addend: 0x0, symName: __ZN8CryptoPP21DL_GroupParameters_ECINS_4EC2NEEC2ERNS_22BufferedTransformationE, symObjAddr: 0x21848, symBinAddr: 0x100054CC4, symSize: 0x174 }
  - { offsetInCU: 0xE2715, offset: 0x19FEAC, size: 0x8, addend: 0x0, symName: __ZN8CryptoPP21DL_GroupParameters_ECINS_4EC2NEE9BERDecodeERNS_22BufferedTransformationE, symObjAddr: 0x219BC, symBinAddr: 0x100054E38, symSize: 0x2C8 }
  - { offsetInCU: 0xE2F3B, offset: 0x1A06D2, size: 0x8, addend: 0x0, symName: __ZN8CryptoPP21DL_GroupParameters_ECINS_4EC2NEEC1ERNS_22BufferedTransformationE, symObjAddr: 0x21C84, symBinAddr: 0x100055100, symSize: 0x130 }
  - { offsetInCU: 0xE337F, offset: 0x1A0B16, size: 0x8, addend: 0x0, symName: __ZN8CryptoPP23EcRecommendedParametersINS_4EC2NEEC1ERKNS_3OIDEjjjjjPKcS7_S7_S7_j, symObjAddr: 0x3EC5C, symBinAddr: 0x10006ED9C, symSize: 0x17C }
  - { offsetInCU: 0xE38BB, offset: 0x1A1052, size: 0x8, addend: 0x0, symName: __ZN8CryptoPP23EcRecommendedParametersINS_4EC2NEEC1ERKNS_3OIDEjjjPKcS7_S7_S7_j, symObjAddr: 0x3EF70, symBinAddr: 0x10006F0B0, symSize: 0x178 }
  - { offsetInCU: 0xE3FC0, offset: 0x1A1757, size: 0x8, addend: 0x0, symName: __ZN8CryptoPP6GF2NPPC1Ejjjjj, symObjAddr: 0x3FDC4, symBinAddr: 0x10006FF04, symSize: 0xE4 }
  - { offsetInCU: 0xE42DF, offset: 0x1A1A76, size: 0x8, addend: 0x0, symName: __ZN8CryptoPP4EC2NC2ERKNS_5GF2NPERKNS_14PolynomialMod2ES6_, symObjAddr: 0x3FEA8, symBinAddr: 0x10006FFE8, symSize: 0x11C }
  - { offsetInCU: 0xE45C1, offset: 0x1A1D58, size: 0x8, addend: 0x0, symName: __ZN8CryptoPP12QuotientRingINS_17EuclideanDomainOfINS_14PolynomialMod2EEEED2Ev, symObjAddr: 0x3FFC4, symBinAddr: 0x100070104, symSize: 0x134 }
  - { offsetInCU: 0xE4BB2, offset: 0x1A2349, size: 0x8, addend: 0x0, symName: __ZN8CryptoPP8GF2NT233D1Ev, symObjAddr: 0x3FCDC, symBinAddr: 0x10006FE1C, symSize: 0x74 }
  - { offsetInCU: 0xE4DD3, offset: 0x1A256A, size: 0x8, addend: 0x0, symName: __ZN8CryptoPP5GF2NTD1Ev, symObjAddr: 0x3FD50, symBinAddr: 0x10006FE90, symSize: 0x74 }
  - { offsetInCU: 0xE4FEE, offset: 0x1A2785, size: 0x8, addend: 0x0, symName: __ZNK8CryptoPP21DL_GroupParameters_ECINS_4EC2NEE8GetCurveEv, symObjAddr: 0x236C0, symBinAddr: 0x100056B3C, symSize: 0x8 }
  - { offsetInCU: 0xE5013, offset: 0x1A27AA, size: 0x8, addend: 0x0, symName: __ZNK8CryptoPP21DL_GroupParameters_ECINS_4EC2NEE8GetCurveEv, symObjAddr: 0x236C0, symBinAddr: 0x100056B3C, symSize: 0x8 }
  - { offsetInCU: 0xE50BB, offset: 0x1A2852, size: 0x8, addend: 0x0, symName: __ZNK8CryptoPP21DL_GroupParameters_ECINS_4EC2NEE12GetVoidValueEPKcRKSt9type_infoPv, symObjAddr: 0x236C8, symBinAddr: 0x100056B44, symSize: 0x10C }
  - { offsetInCU: 0xE52E3, offset: 0x1A2A7A, size: 0x8, addend: 0x0, symName: __ZN8CryptoPP19GetValueHelperClassINS_21DL_GroupParameters_ECINS_4EC2NEEENS_18DL_GroupParametersINS_9EC2NPointEEEEC2EPKS3_PKcRKSt9type_infoPvPKNS_14NameValuePairsE, symObjAddr: 0x4BCF8, symBinAddr: 0x10007B768, symSize: 0x214 }
  - { offsetInCU: 0xE5517, offset: 0x1A2CAE, size: 0x8, addend: 0x0, symName: __ZN8CryptoPP19GetValueHelperClassINS_21DL_GroupParameters_ECINS_4EC2NEEENS_18DL_GroupParametersINS_9EC2NPointEEEE10AssignableEv, symObjAddr: 0x237D4, symBinAddr: 0x100056C50, symSize: 0x11C }
  - { offsetInCU: 0xE567E, offset: 0x1A2E15, size: 0x8, addend: 0x0, symName: __ZN8CryptoPP19GetValueHelperClassINS_21DL_GroupParameters_ECINS_4EC2NEEENS_18DL_GroupParametersINS_9EC2NPointEEEEclIS2_EERS7_PKcMS3_KFRKT_vE, symObjAddr: 0x238F0, symBinAddr: 0x100056D6C, symSize: 0x124 }
  - { offsetInCU: 0xE580C, offset: 0x1A2FA3, size: 0x8, addend: 0x0, symName: __ZN8CryptoPP22DL_GroupParametersImplINS_16EcPrecomputationINS_4EC2NEEENS_30DL_FixedBasePrecomputationImplINS_9EC2NPointEEENS_18DL_GroupParametersIS5_EEEaSERKS9_, symObjAddr: 0x40784, symBinAddr: 0x1000708C4, symSize: 0xE4 }
  - { offsetInCU: 0xE59DC, offset: 0x1A3173, size: 0x8, addend: 0x0, symName: __ZTv0_n32_NK8CryptoPP21DL_GroupParameters_ECINS_4EC2NEE12GetVoidValueEPKcRKSt9type_infoPv, symObjAddr: 0x23A14, symBinAddr: 0x100056E90, symSize: 0x10 }
  - { offsetInCU: 0xE5A1A, offset: 0x1A31B1, size: 0x8, addend: 0x0, symName: __ZN8CryptoPP21DL_GroupParameters_ECINS_4EC2NEE10AssignFromERKNS_14NameValuePairsE, symObjAddr: 0x23A24, symBinAddr: 0x100056EA0, symSize: 0x2D4 }
  - { offsetInCU: 0xE65BF, offset: 0x1A3D56, size: 0x8, addend: 0x0, symName: __ZNK8CryptoPP14NameValuePairs20GetRequiredParameterINS_4EC2NEEEvPKcS4_RT_, symObjAddr: 0x23CF8, symBinAddr: 0x100057174, symSize: 0x18C }
  - { offsetInCU: 0xE6BBC, offset: 0x1A4353, size: 0x8, addend: 0x0, symName: __ZNK8CryptoPP14NameValuePairs20GetRequiredParameterINS_9EC2NPointEEEvPKcS4_RT_, symObjAddr: 0x23E84, symBinAddr: 0x100057300, symSize: 0x18C }
  - { offsetInCU: 0xE722B, offset: 0x1A49C2, size: 0x8, addend: 0x0, symName: __ZTv0_n40_N8CryptoPP21DL_GroupParameters_ECINS_4EC2NEE10AssignFromERKNS_14NameValuePairsE, symObjAddr: 0x24010, symBinAddr: 0x10005748C, symSize: 0x10 }
  - { offsetInCU: 0xE7259, offset: 0x1A49F0, size: 0x8, addend: 0x0, symName: __ZN8CryptoPP21DL_GroupParameters_ECINS_4EC2NEE14GenerateRandomERNS_21RandomNumberGeneratorERKNS_14NameValuePairsE, symObjAddr: 0x24020, symBinAddr: 0x10005749C, symSize: 0xD8 }
  - { offsetInCU: 0xE7443, offset: 0x1A4BDA, size: 0x8, addend: 0x0, symName: __ZNK8CryptoPP21DL_GroupParameters_ECINS_4EC2NEE21GetBasePrecomputationEv, symObjAddr: 0x240F8, symBinAddr: 0x100057574, symSize: 0x8 }
  - { offsetInCU: 0xE746A, offset: 0x1A4C01, size: 0x8, addend: 0x0, symName: __ZN8CryptoPP21DL_GroupParameters_ECINS_4EC2NEE24AccessBasePrecomputationEv, symObjAddr: 0x24100, symBinAddr: 0x10005757C, symSize: 0x8 }
  - { offsetInCU: 0xE7491, offset: 0x1A4C28, size: 0x8, addend: 0x0, symName: __ZNK8CryptoPP21DL_GroupParameters_ECINS_4EC2NEE16GetSubgroupOrderEv, symObjAddr: 0x24108, symBinAddr: 0x100057584, symSize: 0x8 }
  - { offsetInCU: 0xE74FF, offset: 0x1A4C96, size: 0x8, addend: 0x0, symName: __ZNK8CryptoPP21DL_GroupParameters_ECINS_4EC2NEE11GetCofactorEv, symObjAddr: 0x24110, symBinAddr: 0x10005758C, symSize: 0x2F4 }
  - { offsetInCU: 0xE810B, offset: 0x1A58A2, size: 0x8, addend: 0x0, symName: __ZNK8CryptoPP21DL_GroupParameters_ECINS_4EC2NEE13ValidateGroupERNS_21RandomNumberGeneratorEj, symObjAddr: 0x24404, symBinAddr: 0x100057880, symSize: 0x3DC }
  - { offsetInCU: 0xE8ED5, offset: 0x1A666C, size: 0x8, addend: 0x0, symName: __ZNK8CryptoPP21DL_GroupParameters_ECINS_4EC2NEE15ValidateElementEjRKNS_9EC2NPointEPKNS_26DL_FixedBasePrecomputationIS3_EE, symObjAddr: 0x247E0, symBinAddr: 0x100057C5C, symSize: 0x1BC }
  - { offsetInCU: 0xE90F8, offset: 0x1A688F, size: 0x8, addend: 0x0, symName: __ZNK8CryptoPP21DL_GroupParameters_ECINS_4EC2NEE26FastSubgroupCheckAvailableEv, symObjAddr: 0x2499C, symBinAddr: 0x100057E18, symSize: 0x8 }
  - { offsetInCU: 0xE911F, offset: 0x1A68B6, size: 0x8, addend: 0x0, symName: __ZNK8CryptoPP21DL_GroupParameters_ECINS_4EC2NEE13EncodeElementEbRKNS_9EC2NPointEPh, symObjAddr: 0x249A4, symBinAddr: 0x100057E20, symSize: 0x58 }
  - { offsetInCU: 0xE91D8, offset: 0x1A696F, size: 0x8, addend: 0x0, symName: __ZNK8CryptoPP21DL_GroupParameters_ECINS_4EC2NEE21GetEncodedElementSizeEb, symObjAddr: 0x249FC, symBinAddr: 0x100057E78, symSize: 0x28 }
  - { offsetInCU: 0xE92BB, offset: 0x1A6A52, size: 0x8, addend: 0x0, symName: __ZNK8CryptoPP21DL_GroupParameters_ECINS_4EC2NEE13DecodeElementEPKhb, symObjAddr: 0x24A24, symBinAddr: 0x100057EA0, symSize: 0x160 }
  - { offsetInCU: 0xE94E8, offset: 0x1A6C7F, size: 0x8, addend: 0x0, symName: __ZNK8CryptoPP21DL_GroupParameters_ECINS_4EC2NEE23ConvertElementToIntegerERKNS_9EC2NPointE, symObjAddr: 0x24B84, symBinAddr: 0x100058000, symSize: 0xD0 }
  - { offsetInCU: 0xE9758, offset: 0x1A6EEF, size: 0x8, addend: 0x0, symName: __ZNK8CryptoPP21DL_GroupParameters_ECINS_4EC2NEE14GetMaxExponentEv, symObjAddr: 0x24C54, symBinAddr: 0x1000580D0, symSize: 0xA4 }
  - { offsetInCU: 0xE98FF, offset: 0x1A7096, size: 0x8, addend: 0x0, symName: __ZNK8CryptoPP21DL_GroupParameters_ECINS_4EC2NEE10IsIdentityERKNS_9EC2NPointE, symObjAddr: 0x24CF8, symBinAddr: 0x100058174, symSize: 0x8 }
  - { offsetInCU: 0xE9933, offset: 0x1A70CA, size: 0x8, addend: 0x0, symName: __ZNK8CryptoPP21DL_GroupParameters_ECINS_4EC2NEE24SimultaneousExponentiateEPNS_9EC2NPointERKS3_PKNS_7IntegerEj, symObjAddr: 0x24D00, symBinAddr: 0x10005817C, symSize: 0xC }
  - { offsetInCU: 0xE99BE, offset: 0x1A7155, size: 0x8, addend: 0x0, symName: __ZN8CryptoPP21DL_GroupParameters_ECINS_4EC2NEE25StaticAlgorithmNamePrefixEv, symObjAddr: 0x24D0C, symBinAddr: 0x100058188, symSize: 0x18 }
  - { offsetInCU: 0xE9BBE, offset: 0x1A7355, size: 0x8, addend: 0x0, symName: __ZNK8CryptoPP21DL_GroupParameters_ECINS_4EC2NEE14GetAlgorithmIDEv, symObjAddr: 0x24D24, symBinAddr: 0x1000581A0, symSize: 0x88 }
  - { offsetInCU: 0xE9F3F, offset: 0x1A76D6, size: 0x8, addend: 0x0, symName: __ZNK8CryptoPP21DL_GroupParameters_ECINS_4EC2NEE16MultiplyElementsERKNS_9EC2NPointES5_, symObjAddr: 0x24DAC, symBinAddr: 0x100058228, symSize: 0xA4 }
  - { offsetInCU: 0xEA147, offset: 0x1A78DE, size: 0x8, addend: 0x0, symName: __ZNK8CryptoPP21DL_GroupParameters_ECINS_4EC2NEE19CascadeExponentiateERKNS_9EC2NPointERKNS_7IntegerES5_S8_, symObjAddr: 0x24E50, symBinAddr: 0x1000582CC, symSize: 0xC }
  - { offsetInCU: 0xEA1A7, offset: 0x1A793E, size: 0x8, addend: 0x0, symName: __ZNK8CryptoPP21DL_GroupParameters_ECINS_4EC2NEE19CascadeExponentiateERKNS_9EC2NPointERKNS_7IntegerES5_S8_, symObjAddr: 0x24E50, symBinAddr: 0x1000582CC, symSize: 0xC }
  - { offsetInCU: 0xEA27B, offset: 0x1A7A12, size: 0x8, addend: 0x0, symName: __ZN8CryptoPP21DL_GroupParameters_ECINS_4EC2NEE31GetNextRecommendedParametersOIDERKNS_3OIDE, symObjAddr: 0x24E5C, symBinAddr: 0x1000582D8, symSize: 0x1FC }
  - { offsetInCU: 0xEAA21, offset: 0x1A81B8, size: 0x8, addend: 0x0, symName: __ZNK8CryptoPP21DL_GroupParameters_ECINS_4EC2NEE9DEREncodeERNS_22BufferedTransformationE, symObjAddr: 0x25058, symBinAddr: 0x1000584D4, symSize: 0x198 }
  - { offsetInCU: 0xEAD86, offset: 0x1A851D, size: 0x8, addend: 0x0, symName: __ZN8CryptoPP21DL_GroupParameters_ECINS_4EC2NEE19SetPointCompressionEb, symObjAddr: 0x251F0, symBinAddr: 0x10005866C, symSize: 0x8 }
  - { offsetInCU: 0xEADB6, offset: 0x1A854D, size: 0x8, addend: 0x0, symName: __ZNK8CryptoPP21DL_GroupParameters_ECINS_4EC2NEE19GetPointCompressionEv, symObjAddr: 0x251F8, symBinAddr: 0x100058674, symSize: 0x8 }
  - { offsetInCU: 0xEADD9, offset: 0x1A8570, size: 0x8, addend: 0x0, symName: __ZN8CryptoPP21DL_GroupParameters_ECINS_4EC2NEE14SetEncodeAsOIDEb, symObjAddr: 0x25200, symBinAddr: 0x10005867C, symSize: 0x8 }
  - { offsetInCU: 0xEAE09, offset: 0x1A85A0, size: 0x8, addend: 0x0, symName: __ZNK8CryptoPP21DL_GroupParameters_ECINS_4EC2NEE14GetEncodeAsOIDEv, symObjAddr: 0x25208, symBinAddr: 0x100058684, symSize: 0x8 }
  - { offsetInCU: 0xEAEA1, offset: 0x1A8638, size: 0x8, addend: 0x0, symName: __ZNK8CryptoPP21DL_GroupParameters_ECINS_4EC2NEEeqERKS2_, symObjAddr: 0x25210, symBinAddr: 0x10005868C, symSize: 0xFC }
  - { offsetInCU: 0xEB12C, offset: 0x1A88C3, size: 0x8, addend: 0x0, symName: __ZNK8CryptoPP21DL_GroupParameters_ECINS_4EC2NEE18FieldElementLengthEv, symObjAddr: 0x2530C, symBinAddr: 0x100058788, symSize: 0x14 }
  - { offsetInCU: 0xEB155, offset: 0x1A88EC, size: 0x8, addend: 0x0, symName: __ZNK8CryptoPP21DL_GroupParameters_ECINS_4EC2NEE18FieldElementLengthEv, symObjAddr: 0x2530C, symBinAddr: 0x100058788, symSize: 0x14 }
  - { offsetInCU: 0xEB174, offset: 0x1A890B, size: 0x8, addend: 0x0, symName: __ZNK8CryptoPP21DL_GroupParameters_ECINS_4EC2NEE18FieldElementLengthEv, symObjAddr: 0x2530C, symBinAddr: 0x100058788, symSize: 0x14 }
  - { offsetInCU: 0xEB1F3, offset: 0x1A898A, size: 0x8, addend: 0x0, symName: __ZNK8CryptoPP21DL_GroupParameters_ECINS_4EC2NEE14ExponentLengthEv, symObjAddr: 0x25320, symBinAddr: 0x10005879C, symSize: 0x8 }
  - { offsetInCU: 0xEB243, offset: 0x1A89DA, size: 0x8, addend: 0x0, symName: __ZN8CryptoPP16DL_PublicKeyImplINS_21DL_GroupParameters_ECINS_3ECPEEEED2Ev, symObjAddr: 0x25328, symBinAddr: 0x1000587A4, symSize: 0xC8 }
  - { offsetInCU: 0xEB359, offset: 0x1A8AF0, size: 0x8, addend: 0x0, symName: __ZN8CryptoPP16DL_PublicKeyImplINS_21DL_GroupParameters_ECINS_3ECPEEEED1Ev, symObjAddr: 0x253F0, symBinAddr: 0x1000C786C, symSize: 0x4 }
  - { offsetInCU: 0xEB396, offset: 0x1A8B2D, size: 0x8, addend: 0x0, symName: __ZThn8_N8CryptoPP16DL_PublicKeyImplINS_21DL_GroupParameters_ECINS_3ECPEEEED1Ev, symObjAddr: 0x253F4, symBinAddr: 0x1000C7870, symSize: 0x4 }
  - { offsetInCU: 0xEB3B1, offset: 0x1A8B48, size: 0x8, addend: 0x0, symName: __ZThn8_N8CryptoPP16DL_PublicKeyImplINS_21DL_GroupParameters_ECINS_3ECPEEEED1Ev, symObjAddr: 0x253F4, symBinAddr: 0x1000C7870, symSize: 0x4 }
  - { offsetInCU: 0xEB3CD, offset: 0x1A8B64, size: 0x8, addend: 0x0, symName: __ZTv0_n24_N8CryptoPP16DL_PublicKeyImplINS_21DL_GroupParameters_ECINS_3ECPEEEED1Ev, symObjAddr: 0x253F8, symBinAddr: 0x1000C7874, symSize: 0x4 }
  - { offsetInCU: 0xEB3E8, offset: 0x1A8B7F, size: 0x8, addend: 0x0, symName: __ZTv0_n24_N8CryptoPP16DL_PublicKeyImplINS_21DL_GroupParameters_ECINS_3ECPEEEED1Ev, symObjAddr: 0x253F8, symBinAddr: 0x1000C7874, symSize: 0x4 }
  - { offsetInCU: 0xEB3F9, offset: 0x1A8B90, size: 0x8, addend: 0x0, symName: __ZThn16_N8CryptoPP16DL_PublicKeyImplINS_21DL_GroupParameters_ECINS_3ECPEEEED1Ev, symObjAddr: 0x253FC, symBinAddr: 0x1000C7878, symSize: 0x4 }
  - { offsetInCU: 0xEB414, offset: 0x1A8BAB, size: 0x8, addend: 0x0, symName: __ZThn16_N8CryptoPP16DL_PublicKeyImplINS_21DL_GroupParameters_ECINS_3ECPEEEED1Ev, symObjAddr: 0x253FC, symBinAddr: 0x1000C7878, symSize: 0x4 }
  - { offsetInCU: 0xEB430, offset: 0x1A8BC7, size: 0x8, addend: 0x0, symName: __ZN8CryptoPP16DL_PublicKeyImplINS_21DL_GroupParameters_ECINS_3ECPEEEED0Ev, symObjAddr: 0x25400, symBinAddr: 0x1000C787C, symSize: 0x4 }
  - { offsetInCU: 0xEB46D, offset: 0x1A8C04, size: 0x8, addend: 0x0, symName: __ZThn8_N8CryptoPP16DL_PublicKeyImplINS_21DL_GroupParameters_ECINS_3ECPEEEED0Ev, symObjAddr: 0x25404, symBinAddr: 0x1000C7880, symSize: 0x4 }
  - { offsetInCU: 0xEB488, offset: 0x1A8C1F, size: 0x8, addend: 0x0, symName: __ZThn8_N8CryptoPP16DL_PublicKeyImplINS_21DL_GroupParameters_ECINS_3ECPEEEED0Ev, symObjAddr: 0x25404, symBinAddr: 0x1000C7880, symSize: 0x4 }
  - { offsetInCU: 0xEB4A4, offset: 0x1A8C3B, size: 0x8, addend: 0x0, symName: __ZTv0_n24_N8CryptoPP16DL_PublicKeyImplINS_21DL_GroupParameters_ECINS_3ECPEEEED0Ev, symObjAddr: 0x25408, symBinAddr: 0x1000C7884, symSize: 0x4 }
  - { offsetInCU: 0xEB4BF, offset: 0x1A8C56, size: 0x8, addend: 0x0, symName: __ZTv0_n24_N8CryptoPP16DL_PublicKeyImplINS_21DL_GroupParameters_ECINS_3ECPEEEED0Ev, symObjAddr: 0x25408, symBinAddr: 0x1000C7884, symSize: 0x4 }
  - { offsetInCU: 0xEB4D0, offset: 0x1A8C67, size: 0x8, addend: 0x0, symName: __ZThn16_N8CryptoPP16DL_PublicKeyImplINS_21DL_GroupParameters_ECINS_3ECPEEEED0Ev, symObjAddr: 0x2540C, symBinAddr: 0x1000C7888, symSize: 0x4 }
  - { offsetInCU: 0xEB4EB, offset: 0x1A8C82, size: 0x8, addend: 0x0, symName: __ZThn16_N8CryptoPP16DL_PublicKeyImplINS_21DL_GroupParameters_ECINS_3ECPEEEED0Ev, symObjAddr: 0x2540C, symBinAddr: 0x1000C7888, symSize: 0x4 }
  - { offsetInCU: 0xEB507, offset: 0x1A8C9E, size: 0x8, addend: 0x0, symName: __ZNK8CryptoPP16DL_PublicKeyImplINS_21DL_GroupParameters_ECINS_3ECPEEEE8ValidateERNS_21RandomNumberGeneratorEj, symObjAddr: 0x25410, symBinAddr: 0x10005886C, symSize: 0xB0 }
  - { offsetInCU: 0xEB613, offset: 0x1A8DAA, size: 0x8, addend: 0x0, symName: __ZTv0_n48_NK8CryptoPP16DL_PublicKeyImplINS_21DL_GroupParameters_ECINS_3ECPEEEE8ValidateERNS_21RandomNumberGeneratorEj, symObjAddr: 0x254C0, symBinAddr: 0x10005891C, symSize: 0xBC }
  - { offsetInCU: 0xEB775, offset: 0x1A8F0C, size: 0x8, addend: 0x0, symName: __ZNK8CryptoPP16DL_PublicKeyImplINS_21DL_GroupParameters_ECINS_3ECPEEEE12GetVoidValueEPKcRKSt9type_infoPv, symObjAddr: 0x2557C, symBinAddr: 0x1000589D8, symSize: 0x40 }
  - { offsetInCU: 0xEB8AC, offset: 0x1A9043, size: 0x8, addend: 0x0, symName: __ZN8CryptoPP19GetValueHelperClassINS_16DL_PublicKeyImplINS_21DL_GroupParameters_ECINS_3ECPEEEEENS_12DL_PublicKeyINS_8ECPPointEEEEC2EPKS5_PKcRKSt9type_infoPvPKNS_14NameValuePairsE, symObjAddr: 0x4BF0C, symBinAddr: 0x10007B97C, symSize: 0x298 }
  - { offsetInCU: 0xEBD03, offset: 0x1A949A, size: 0x8, addend: 0x0, symName: __ZN8CryptoPP19GetValueHelperClassINS_16DL_PublicKeyImplINS_21DL_GroupParameters_ECINS_3ECPEEEEENS_12DL_PublicKeyINS_8ECPPointEEEE10AssignableEv, symObjAddr: 0x255BC, symBinAddr: 0x100058A18, symSize: 0xD4 }
  - { offsetInCU: 0xEBDBE, offset: 0x1A9555, size: 0x8, addend: 0x0, symName: __ZN8CryptoPP16DL_PublicKeyImplINS_21DL_GroupParameters_ECINS_3ECPEEEEaSERKS4_, symObjAddr: 0x4C408, symBinAddr: 0x10007BE78, symSize: 0xB0 }
  - { offsetInCU: 0xEBF85, offset: 0x1A971C, size: 0x8, addend: 0x0, symName: __ZTv0_n32_NK8CryptoPP16DL_PublicKeyImplINS_21DL_GroupParameters_ECINS_3ECPEEEE12GetVoidValueEPKcRKSt9type_infoPv, symObjAddr: 0x25690, symBinAddr: 0x100058AEC, symSize: 0x48 }
  - { offsetInCU: 0xEC104, offset: 0x1A989B, size: 0x8, addend: 0x0, symName: __ZN8CryptoPP16DL_PublicKeyImplINS_21DL_GroupParameters_ECINS_3ECPEEEE10AssignFromERKNS_14NameValuePairsE, symObjAddr: 0x256D8, symBinAddr: 0x100058B34, symSize: 0x28 }
  - { offsetInCU: 0xEC1AF, offset: 0x1A9946, size: 0x8, addend: 0x0, symName: __ZN8CryptoPP21AssignFromHelperClassINS_16DL_PublicKeyImplINS_21DL_GroupParameters_ECINS_3ECPEEEEENS_12DL_PublicKeyINS_8ECPPointEEEEC2EPS5_RKNS_14NameValuePairsE, symObjAddr: 0x4C4B8, symBinAddr: 0x10007BF28, symSize: 0x144 }
  - { offsetInCU: 0xEC3CA, offset: 0x1A9B61, size: 0x8, addend: 0x0, symName: __ZTv0_n40_N8CryptoPP16DL_PublicKeyImplINS_21DL_GroupParameters_ECINS_3ECPEEEE10AssignFromERKNS_14NameValuePairsE, symObjAddr: 0x25700, symBinAddr: 0x100058B5C, symSize: 0x30 }
  - { offsetInCU: 0xEC47D, offset: 0x1A9C14, size: 0x8, addend: 0x0, symName: __ZNK8CryptoPP16DL_PublicKeyImplINS_21DL_GroupParameters_ECINS_3ECPEEEE22SupportsPrecomputationEv, symObjAddr: 0x25730, symBinAddr: 0x100058B8C, symSize: 0x8 }
  - { offsetInCU: 0xEC4A4, offset: 0x1A9C3B, size: 0x8, addend: 0x0, symName: __ZTv0_n80_NK8CryptoPP16DL_PublicKeyImplINS_21DL_GroupParameters_ECINS_3ECPEEEE22SupportsPrecomputationEv, symObjAddr: 0x25738, symBinAddr: 0x100058B94, symSize: 0x8 }
  - { offsetInCU: 0xEC4BB, offset: 0x1A9C52, size: 0x8, addend: 0x0, symName: __ZN8CryptoPP16DL_PublicKeyImplINS_21DL_GroupParameters_ECINS_3ECPEEEE10PrecomputeEj, symObjAddr: 0x25740, symBinAddr: 0x100058B9C, symSize: 0xB0 }
  - { offsetInCU: 0xEC5AA, offset: 0x1A9D41, size: 0x8, addend: 0x0, symName: __ZTv0_n88_N8CryptoPP16DL_PublicKeyImplINS_21DL_GroupParameters_ECINS_3ECPEEEE10PrecomputeEj, symObjAddr: 0x257F0, symBinAddr: 0x100058C4C, symSize: 0xBC }
  - { offsetInCU: 0xEC689, offset: 0x1A9E20, size: 0x8, addend: 0x0, symName: __ZN8CryptoPP16DL_PublicKeyImplINS_21DL_GroupParameters_ECINS_3ECPEEEE18LoadPrecomputationERNS_22BufferedTransformationE, symObjAddr: 0x258AC, symBinAddr: 0x100058D08, symSize: 0x88 }
  - { offsetInCU: 0xEC751, offset: 0x1A9EE8, size: 0x8, addend: 0x0, symName: __ZTv0_n96_N8CryptoPP16DL_PublicKeyImplINS_21DL_GroupParameters_ECINS_3ECPEEEE18LoadPrecomputationERNS_22BufferedTransformationE, symObjAddr: 0x25934, symBinAddr: 0x100058D90, symSize: 0x94 }
